ccopy_reg
_reconstructor
p0
(csympy.matrices.dense
MutableDenseMatrix
p1
c__builtin__
object
p2
Ntp3
Rp4
(dp5
S'rows'
p6
I27
sS'_mat'
p7
(lp8
csympy.core.numbers
One
p9
(tRp10
(dp11
bacsympy.core.numbers
Zero
p12
(tRp13
(dp14
bacsympy.core.numbers
NegativeOne
p15
(tRp16
(dp17
bag13
ag13
ag13
ag16
ag13
ag10
ag13
ag13
ag13
ag13
ag13
ag13
ag13
ag13
ag13
ag16
ag13
ag10
ag13
ag13
ag13
ag10
ag13
ag16
ag13
acsympy.core.numbers
Half
p18
(tRp19
(dp20
bag19
ag13
ag13
ag13
ag13
acsympy.core.numbers
Rational
p21
(I-1
I2
tp22
Rp23
(dp24
bag23
ag13
ag13
ag13
ag13
ag13
ag13
ag13
ag13
ag13
ag13
ag23
ag23
ag13
ag13
ag13
ag13
ag19
ag19
ag13
ag23
ag19
ag13
ag13
ag13
ag13
ag19
ag23
ag13
ag13
ag13
ag13
ag13
ag13
ag13
ag13
ag13
ag13
ag19
ag23
ag13
ag13
ag13
ag13
ag23
ag19
ag13
ag13
ag13
ag19
ag13
ag23
ag19
ag13
ag23
ag13
ag13
ag13
ag13
ag13
ag13
ag13
ag13
ag13
ag13
ag13
ag13
ag23
ag13
ag19
ag23
ag13
ag19
ag13
ag13
ag13
ag13
ag21
(I1
I4
tp25
Rp26
(dp27
bag26
ag13
ag26
ag26
ag13
ag13
ag13
ag13
ag13
ag13
ag13
ag13
ag13
ag13
ag13
ag13
ag13
ag21
(I-1
I4
tp28
Rp29
(dp30
bag21
(I-1
I4
tp31
Rp32
(dp33
bag13
ag32
ag29
ag13
ag13
ag13
ag13
ag32
ag26
ag13
ag32
ag26
ag13
ag13
ag13
ag13
ag13
ag13
ag13
ag13
ag13
ag13
ag13
ag13
ag13
ag21
(I1
I4
tp34
Rp35
(dp36
bag32
ag13
ag26
ag29
ag13
ag13
ag13
ag23
ag13
ag19
ag19
ag13
ag23
ag13
ag13
ag13
ag13
ag13
ag13
ag13
ag13
ag13
ag13
ag13
ag13
ag19
ag13
ag23
ag23
ag13
ag19
ag13
ag13
ag13
ag13
ag32
ag32
ag13
ag26
ag26
ag13
ag13
ag13
ag13
ag13
ag13
ag13
ag13
ag13
ag13
ag13
ag13
ag13
ag35
ag26
ag13
ag32
ag29
ag13
ag13
ag13
ag13
ag26
ag32
ag13
ag32
ag26
ag13
ag13
ag13
ag13
ag13
ag13
ag13
ag13
ag13
ag13
ag13
ag13
ag13
ag29
ag26
ag13
ag26
ag29
ag13
ag13
ag13
ag13
ag13
ag13
ag13
ag13
ag13
ag19
ag13
ag23
ag13
ag13
ag13
ag23
ag13
ag19
ag19
ag13
ag23
ag13
ag13
ag13
ag23
ag13
ag19
ag13
ag13
ag13
ag13
ag13
ag13
ag13
ag13
ag13
ag13
ag26
ag26
ag13
ag13
ag13
ag13
ag29
ag32
ag13
ag26
ag26
ag13
ag13
ag13
ag13
ag32
ag29
ag13
ag13
ag13
ag13
ag13
ag13
ag13
ag13
ag13
ag13
ag32
ag26
ag13
ag13
ag13
ag13
ag35
ag32
ag13
ag32
ag26
ag13
ag13
ag13
ag13
ag26
ag29
ag13
ag13
ag13
ag13
ag13
ag13
ag13
ag13
ag13
ag13
ag13
ag13
ag26
ag13
ag29
ag26
ag13
ag32
ag13
ag13
ag13
ag26
ag13
ag32
ag26
ag13
ag29
ag13
ag13
ag13
ag13
ag13
ag13
ag13
ag13
ag13
ag13
ag13
ag13
ag13
ag21
(I1
I8
tp37
Rp38
(dp39
bag21
(I1
I8
tp40
Rp41
(dp42
bag13
ag41
ag38
ag13
ag13
ag13
ag13
ag41
ag38
ag13
ag38
ag41
ag13
ag13
ag13
ag13
ag13
ag13
ag13
ag13
ag13
ag13
ag13
ag13
ag13
ag21
(I-1
I8
tp43
Rp44
(dp45
bag41
ag13
ag21
(I-1
I8
tp46
Rp47
(dp48
bag38
ag13
ag13
ag13
ag13
ag47
ag38
ag13
ag44
ag41
ag13
ag13
ag13
ag13
ag13
ag13
ag13
ag13
ag13
ag13
ag13
ag13
ag32
ag13
ag35
ag26
ag13
ag32
ag13
ag13
ag13
ag32
ag13
ag26
ag26
ag13
ag29
ag13
ag13
ag13
ag13
ag13
ag13
ag13
ag13
ag13
ag13
ag13
ag13
ag13
ag44
ag47
ag13
ag41
ag38
ag13
ag13
ag13
ag13
ag47
ag44
ag13
ag38
ag41
ag13
ag13
ag13
ag13
ag13
ag13
ag13
ag13
ag13
ag13
ag13
ag13
ag13
ag38
ag47
ag13
ag47
ag38
ag13
ag13
ag13
ag13
ag41
ag44
ag13
ag44
ag41
ag13
ag13
ag13
ag13
ag13
ag13
ag13
ag13
ag13
ag23
ag13
ag19
ag13
ag13
ag13
ag19
ag13
ag23
ag19
ag13
ag23
ag13
ag13
ag13
ag23
ag13
ag19
ag13
ag13
ag13
ag13
ag13
ag13
ag13
ag13
ag13
ag13
ag32
ag32
ag13
ag13
ag13
ag13
ag35
ag26
ag13
ag26
ag26
ag13
ag13
ag13
ag13
ag32
ag29
ag13
ag13
ag13
ag13
ag13
ag13
ag13
ag13
ag13
ag13
ag26
ag32
ag13
ag13
ag13
ag13
ag29
ag26
ag13
ag32
ag26
ag13
ag13
ag13
ag13
ag26
ag29
ag13
ag13
ag13
ag13
ag13
ag13
ag13
ag13
ag13
ag13
ag13
ag13
ag32
ag13
ag35
ag32
ag13
ag26
ag13
ag13
ag13
ag26
ag13
ag32
ag26
ag13
ag29
ag13
ag13
ag13
ag13
ag13
ag13
ag13
ag13
ag13
ag13
ag13
ag13
ag13
ag44
ag47
ag13
ag47
ag44
ag13
ag13
ag13
ag13
ag41
ag38
ag13
ag38
ag41
ag13
ag13
ag13
ag13
ag13
ag13
ag13
ag13
ag13
ag13
ag13
ag13
ag13
ag38
ag47
ag13
ag41
ag44
ag13
ag13
ag13
ag13
ag47
ag38
ag13
ag44
ag41
ag13
ag13
ag13
ag13
ag13
ag13
ag13
ag13
ag13
ag13
ag13
ag13
ag26
ag13
ag29
ag32
ag13
ag26
ag13
ag13
ag13
ag32
ag13
ag26
ag26
ag13
ag29
ag13
ag13
ag13
ag13
ag13
ag13
ag13
ag13
ag13
ag13
ag13
ag13
ag13
ag38
ag41
ag13
ag47
ag44
ag13
ag13
ag13
ag13
ag47
ag44
ag13
ag38
ag41
ag13
ag13
ag13
ag13
ag13
ag13
ag13
ag13
ag13
ag13
ag13
ag13
ag13
ag44
ag41
ag13
ag41
ag44
ag13
ag13
ag13
ag13
ag41
ag44
ag13
ag44
ag41
asS'cols'
p49
I27
sb.