ccopy_reg
_reconstructor
p0
(csympy.matrices.dense
MutableDenseMatrix
p1
c__builtin__
object
p2
Ntp3
Rp4
(dp5
S'rows'
p6
I3
sS'_mat'
p7
(lp8
csympy.core.numbers
One
p9
(tRp10
(dp11
bacsympy.core.numbers
Zero
p12
(tRp13
(dp14
bacsympy.core.numbers
NegativeOne
p15
(tRp16
(dp17
bag13
acsympy.core.numbers
Half
p18
(tRp19
(dp20
bag19
ag13
acsympy.core.numbers
Rational
p21
(I-1
I2
tp22
Rp23
(dp24
bag19
asS'cols'
p25
I3
sb.