ccopy_reg
_reconstructor
p0
(csympy.matrices.dense
MutableDenseMatrix
p1
c__builtin__
object
p2
Ntp3
Rp4
(dp5
S'rows'
p6
I9
sS'_mat'
p7
(lp8
csympy.core.numbers
One
p9
(tRp10
(dp11
bacsympy.core.numbers
Zero
p12
(tRp13
(dp14
bacsympy.core.numbers
NegativeOne
p15
(tRp16
(dp17
bag13
ag13
ag13
ag16
ag13
ag10
ag13
acsympy.core.numbers
Half
p18
(tRp19
(dp20
bag19
ag13
ag13
ag13
ag13
acsympy.core.numbers
Rational
p21
(I-1
I2
tp22
Rp23
(dp24
bag23
ag13
ag23
ag19
ag13
ag13
ag13
ag13
ag19
ag23
ag13
ag13
ag13
ag19
ag13
ag23
ag19
ag13
ag23
ag13
ag13
ag13
ag13
ag21
(I1
I4
tp25
Rp26
(dp27
bag21
(I1
I4
tp28
Rp29
(dp30
bag13
ag29
ag26
ag13
ag13
ag13
ag13
ag21
(I-1
I4
tp31
Rp32
(dp33
bag29
ag13
ag21
(I-1
I4
tp34
Rp35
(dp36
bag26
ag13
ag13
ag13
ag23
ag13
ag19
ag19
ag13
ag23
ag13
ag13
ag13
ag13
ag32
ag35
ag13
ag29
ag26
ag13
ag13
ag13
ag13
ag26
ag35
ag13
ag35
ag26
asS'cols'
p37
I9
sb.