ccopy_reg
_reconstructor
p0
(csympy.matrices.dense
MutableDenseMatrix
p1
c__builtin__
object
p2
Ntp3
Rp4
(dp5
S'rows'
p6
I27
sS'_mat'
p7
(lp8
csympy.core.numbers
One
p9
(tRp10
(dp11
bag10
ag10
ag10
ag10
ag10
ag10
ag10
ag10
ag10
ag10
ag10
ag10
ag10
ag10
ag10
ag10
ag10
ag10
ag10
ag10
ag10
ag10
ag10
ag10
ag10
ag10
acsympy.core.numbers
Zero
p12
(tRp13
(dp14
bag10
acsympy.core.numbers
NegativeOne
p15
(tRp16
(dp17
bag13
ag10
ag16
ag13
ag10
ag16
ag13
ag10
ag16
ag13
ag10
ag16
ag13
ag10
ag16
ag13
ag10
ag16
ag13
ag10
ag16
ag13
ag10
ag16
ag13
ag10
ag10
ag13
ag10
ag10
ag13
ag10
ag10
ag13
ag10
ag10
ag13
ag10
ag10
ag13
ag10
ag10
ag13
ag10
ag10
ag13
ag10
ag10
ag13
ag10
ag10
ag13
ag13
ag13
ag10
ag10
ag10
ag16
ag16
ag16
ag13
ag13
ag13
ag10
ag10
ag10
ag16
ag16
ag16
ag13
ag13
ag13
ag10
ag10
ag10
ag16
ag16
ag16
ag13
ag13
ag13
ag13
ag10
ag16
ag13
ag16
ag10
ag13
ag13
ag13
ag13
ag10
ag16
ag13
ag16
ag10
ag13
ag13
ag13
ag13
ag10
ag16
ag13
ag16
ag10
ag13
ag13
ag13
ag13
ag10
ag10
ag13
ag16
ag16
ag13
ag13
ag13
ag13
ag10
ag10
ag13
ag16
ag16
ag13
ag13
ag13
ag13
ag10
ag10
ag13
ag16
ag16
ag13
ag13
ag13
ag10
ag10
ag10
ag10
ag10
ag10
ag13
ag13
ag13
ag10
ag10
ag10
ag10
ag10
ag10
ag13
ag13
ag13
ag10
ag10
ag10
ag10
ag10
ag10
ag13
ag13
ag13
ag13
ag10
ag16
ag13
ag10
ag16
ag13
ag13
ag13
ag13
ag10
ag16
ag13
ag10
ag16
ag13
ag13
ag13
ag13
ag10
ag16
ag13
ag10
ag16
ag13
ag13
ag13
ag13
ag10
ag10
ag13
ag10
ag10
ag13
ag13
ag13
ag13
ag10
ag10
ag13
ag10
ag10
ag13
ag13
ag13
ag13
ag10
ag10
ag13
ag10
ag10
ag13
ag13
ag13
ag13
ag13
ag13
ag13
ag13
ag13
ag10
ag10
ag10
ag10
ag10
ag10
ag10
ag10
ag10
ag16
ag16
ag16
ag16
ag16
ag16
ag16
ag16
ag16
ag13
ag13
ag13
ag13
ag13
ag13
ag13
ag13
ag13
ag13
ag10
ag16
ag13
ag10
ag16
ag13
ag10
ag16
ag13
ag16
ag10
ag13
ag16
ag10
ag13
ag16
ag10
ag13
ag13
ag13
ag13
ag13
ag13
ag13
ag13
ag13
ag13
ag10
ag10
ag13
ag10
ag10
ag13
ag10
ag10
ag13
ag16
ag16
ag13
ag16
ag16
ag13
ag16
ag16
ag13
ag13
ag13
ag13
ag13
ag13
ag13
ag13
ag13
ag13
ag13
ag13
ag10
ag10
ag10
ag16
ag16
ag16
ag13
ag13
ag13
ag16
ag16
ag16
ag10
ag10
ag10
ag13
ag13
ag13
ag13
ag13
ag13
ag13
ag13
ag13
ag13
ag13
ag13
ag13
ag10
ag16
ag13
ag16
ag10
ag13
ag13
ag13
ag13
ag16
ag10
ag13
ag10
ag16
ag13
ag13
ag13
ag13
ag13
ag13
ag13
ag13
ag13
ag13
ag13
ag13
ag13
ag10
ag10
ag13
ag16
ag16
ag13
ag13
ag13
ag13
ag16
ag16
ag13
ag10
ag10
ag13
ag13
ag13
ag13
ag13
ag13
ag13
ag13
ag13
ag13
ag13
ag13
ag10
ag10
ag10
ag10
ag10
ag10
ag13
ag13
ag13
ag16
ag16
ag16
ag16
ag16
ag16
ag13
ag13
ag13
ag13
ag13
ag13
ag13
ag13
ag13
ag13
ag13
ag13
ag13
ag10
ag16
ag13
ag10
ag16
ag13
ag13
ag13
ag13
ag16
ag10
ag13
ag16
ag10
ag13
ag13
ag13
ag13
ag13
ag13
ag13
ag13
ag13
ag13
ag13
ag13
ag13
ag10
ag10
ag13
ag10
ag10
ag13
ag13
ag13
ag13
ag16
ag16
ag13
ag16
ag16
ag13
ag13
ag13
ag13
ag13
ag13
ag13
ag13
ag13
ag10
ag10
ag10
ag10
ag10
ag10
ag10
ag10
ag10
ag10
ag10
ag10
ag10
ag10
ag10
ag10
ag10
ag10
ag13
ag13
ag13
ag13
ag13
ag13
ag13
ag13
ag13
ag13
ag10
ag16
ag13
ag10
ag16
ag13
ag10
ag16
ag13
ag10
ag16
ag13
ag10
ag16
ag13
ag10
ag16
ag13
ag13
ag13
ag13
ag13
ag13
ag13
ag13
ag13
ag13
ag10
ag10
ag13
ag10
ag10
ag13
ag10
ag10
ag13
ag10
ag10
ag13
ag10
ag10
ag13
ag10
ag10
ag13
ag13
ag13
ag13
ag13
ag13
ag13
ag13
ag13
ag13
ag13
ag13
ag10
ag10
ag10
ag16
ag16
ag16
ag13
ag13
ag13
ag10
ag10
ag10
ag16
ag16
ag16
ag13
ag13
ag13
ag13
ag13
ag13
ag13
ag13
ag13
ag13
ag13
ag13
ag13
ag10
ag16
ag13
ag16
ag10
ag13
ag13
ag13
ag13
ag10
ag16
ag13
ag16
ag10
ag13
ag13
ag13
ag13
ag13
ag13
ag13
ag13
ag13
ag13
ag13
ag13
ag13
ag10
ag10
ag13
ag16
ag16
ag13
ag13
ag13
ag13
ag10
ag10
ag13
ag16
ag16
ag13
ag13
ag13
ag13
ag13
ag13
ag13
ag13
ag13
ag13
ag13
ag13
ag10
ag10
ag10
ag10
ag10
ag10
ag13
ag13
ag13
ag10
ag10
ag10
ag10
ag10
ag10
ag13
ag13
ag13
ag13
ag13
ag13
ag13
ag13
ag13
ag13
ag13
ag13
ag13
ag10
ag16
ag13
ag10
ag16
ag13
ag13
ag13
ag13
ag10
ag16
ag13
ag10
ag16
ag13
ag13
ag13
ag13
ag13
ag13
ag13
ag13
ag13
ag13
ag13
ag13
ag13
ag10
ag10
ag13
ag10
ag10
ag13
ag13
ag13
ag13
ag10
ag10
ag13
ag10
ag10
asS'cols'
p18
I27
sb.