(lp0
((lp1
csympy.core.relational
StrictGreaterThan
p2
(csympy.core.add
Add
p3
(csympy.core.mul
Mul
p4
(csympy.core.numbers
Integer
p5
(I4752
tp6
Rp7
(dp8
bcsympy.core.power
Pow
p9
(csympy.core.symbol
Symbol
p10
(S'x'
p11
tp12
Rp13
(dp14
S'_assumptions'
p15
ccopy_reg
_reconstructor
p16
(csympy.core.assumptions
StdFactKB
p17
c__builtin__
dict
p18
(dp19
S'real'
p20
NsS'irrational'
p21
NsS'antihermitian'
p22
NsS'nonpositive'
p23
NsS'negative'
p24
NsS'hermitian'
p25
NsS'bounded'
p26
NsS'integer'
p27
NsS'imaginary'
p28
NsS'odd'
p29
NsS'even'
p30
NsS'commutative'
p31
I01
sS'positive'
p32
NsS'zero'
p33
NsS'nonnegative'
p34
NsS'rational'
p35
Nstp36
Rp37
sbg5
(I2
tp38
Rp39
(dp40
btp41
Rp42
(dp43
btp44
Rp45
(dp46
bg4
(g5
(I1716
tp47
Rp48
(dp49
bg13
tp50
Rp51
(dp52
bg4
(csympy.core.numbers
Rational
p53
(I-3186
I5
tp54
Rp55
(dp56
bg9
(g13
g5
(I6
tp57
Rp58
(dp59
btp60
Rp61
(dp62
btp63
Rp64
(dp65
bg4
(g53
(I-283
I70
tp66
Rp67
(dp68
bg9
(g13
g5
(I8
tp69
Rp70
(dp71
btp72
Rp73
(dp74
btp75
Rp76
(dp77
bg4
(g5
(I310
tp78
Rp79
(dp80
bg9
(g13
g5
(I4
tp81
Rp82
(dp83
btp84
Rp85
(dp86
btp87
Rp88
(dp89
bg4
(g53
(I-1011
I10
tp90
Rp91
(dp92
bg9
(g13
g5
(I7
tp93
Rp94
(dp95
btp96
Rp97
(dp98
btp99
Rp100
(dp101
bg4
(g5
(I-1286
tp102
Rp103
(dp104
bg9
(g13
g5
(I5
tp105
Rp106
(dp107
btp108
Rp109
(dp110
btp111
Rp112
(dp113
bg4
(g5
(I4092
tp114
Rp115
(dp116
bg9
(g13
g5
(I3
tp117
Rp118
(dp119
btp120
Rp121
(dp122
btp123
Rp124
(dp125
btp126
Rp127
(dp128
bcsympy.core.numbers
Zero
p129
(tRp130
(dp131
btp132
Rp133
(dp134
bag2
(g13
g130
tp135
Rp136
(dp137
bacsympy.core.relational
LessThan
p138
(g3
(g5
(I-1716
tp139
Rp140
(dp141
bg4
(g5
(I-7350
tp142
Rp143
(dp144
bg121
tp145
Rp146
(dp147
bg4
(g5
(I-49
tp148
Rp149
(dp150
bg61
tp151
Rp152
(dp153
bg4
(g5
(I-9702
tp154
Rp155
(dp156
bg42
tp157
Rp158
(dp159
bg4
(g5
(I-588
tp160
Rp161
(dp162
bg109
tp163
Rp164
(dp165
bg4
(g5
(I-6468
tp166
Rp167
(dp168
bg13
tp169
Rp170
(dp171
bg4
(csympy.core.numbers
NegativeOne
p172
(tRp173
(dp174
bg97
tp175
Rp176
(dp177
bg4
(g5
(I-2940
tp178
Rp179
(dp180
bg85
tp181
Rp182
(dp183
btp184
Rp185
(dp186
bg130
tp187
Rp188
(dp189
bag138
(g3
(g5
(I-462
tp190
Rp191
(dp192
bg4
(g5
(I-1890
tp193
Rp194
(dp195
bg42
tp196
Rp197
(dp198
bg4
(g5
(I-315
tp199
Rp200
(dp201
bg85
tp202
Rp203
(dp204
bg4
(g5
(I-1120
tp205
Rp206
(dp207
bg121
tp208
Rp209
(dp210
bg4
(g5
(I-36
tp211
Rp212
(dp213
bg109
tp214
Rp215
(dp216
bg4
(g173
g61
tp217
Rp218
(dp219
bg4
(g5
(I-1512
tp220
Rp221
(dp222
bg13
tp223
Rp224
(dp225
btp226
Rp227
(dp228
bg130
tp229
Rp230
(dp231
bag138
(g3
(g191
g4
(g5
(I-560
tp232
Rp233
(dp234
bg121
tp235
Rp236
(dp237
bg4
(g5
(I-1260
tp238
Rp239
(dp240
bg13
tp241
Rp242
(dp243
bg4
(g239
g42
tp244
Rp245
(dp246
bg4
(g5
(I-6
tp247
Rp248
(dp249
bg109
tp250
Rp251
(dp252
bg4
(g5
(I-105
tp253
Rp254
(dp255
bg85
tp256
Rp257
(dp258
btp259
Rp260
(dp261
bg130
tp262
Rp263
(dp264
bag2
(g4
(g173
g13
tp265
Rp266
(dp267
bg130
tp268
Rp269
(dp270
bag2
(g13
g130
tp271
Rp272
(dp273
bacsympy.core.relational
Equality
p274
(g3
(g173
g42
g266
tp275
Rp276
(dp277
bg130
tp278
Rp279
(dp280
bag138
(g3
(g173
g13
tp281
Rp282
(dp283
bg130
tp284
Rp285
(dp286
bag138
(g266
g130
tp287
Rp288
(dp289
ba(lp290
g138
(g3
(g53
(I9997
I10000
tp291
Rp292
(dp293
bg13
tp294
Rp295
(dp296
bg130
tp297
Rp298
(dp299
batp300
a((lp301
g2
(g266
g130
tp302
Rp303
(dp304
bag2
(g127
g130
tp305
Rp306
(dp307
bag138
(g185
g130
tp308
Rp309
(dp310
bag138
(g227
g130
tp311
Rp312
(dp313
bag138
(g260
g130
tp314
Rp315
(dp316
bag2
(g266
g130
tp317
Rp318
(dp319
bag2
(g13
g130
tp320
Rp321
(dp322
bag274
(g276
g130
tp323
Rp324
(dp325
bag138
(g282
g130
tp326
Rp327
(dp328
bag138
(g266
g130
tp329
Rp330
(dp331
ba(lp332
g138
(g295
g130
tp333
Rp334
(dp335
batp336
a((lp337
g138
(g266
g130
tp338
Rp339
(dp340
bag138
(g127
g130
tp341
Rp342
(dp343
bag138
(g185
g130
tp344
Rp345
(dp346
bag138
(g227
g130
tp347
Rp348
(dp349
bag138
(g260
g130
tp350
Rp351
(dp352
bag2
(g266
g130
tp353
Rp354
(dp355
bag2
(g13
g130
tp356
Rp357
(dp358
bag274
(g276
g130
tp359
Rp360
(dp361
bag138
(g282
g130
tp362
Rp363
(dp364
bag138
(g266
g130
tp365
Rp366
(dp367
ba(lp368
g138
(g295
g130
tp369
Rp370
(dp371
batp372
a((lp373
g2
(g3
(g4
(g53
(I-1207
I280
tp374
Rp375
(dp376
bg9
(g13
g5
(I9
tp377
Rp378
(dp379
btp380
Rp381
(dp382
btp383
Rp384
(dp385
bg4
(g5
(I21021
tp386
Rp387
(dp388
bg42
tp389
Rp390
(dp391
bg4
(g5
(I7887
tp392
Rp393
(dp394
bg85
tp395
Rp396
(dp397
bg4
(g53
(I-13527
I10
tp398
Rp399
(dp400
bg97
tp401
Rp402
(dp403
bg4
(g5
(I-4643
tp404
Rp405
(dp406
bg61
tp407
Rp408
(dp409
bg4
(g53
(I-5211
I35
tp410
Rp411
(dp412
bg73
tp413
Rp414
(dp415
bg4
(g53
(I-19085
I4
tp416
Rp417
(dp418
bg109
tp419
Rp420
(dp421
bg4
(g5
(I6435
tp422
Rp423
(dp424
bg13
tp425
Rp426
(dp427
bg4
(g53
(I47619
I2
tp428
Rp429
(dp430
bg121
tp431
Rp432
(dp433
btp434
Rp435
(dp436
bg130
tp437
Rp438
(dp439
bag2
(g13
g130
tp440
Rp441
(dp442
bag138
(g185
g130
tp443
Rp444
(dp445
bag138
(g227
g130
tp446
Rp447
(dp448
bag138
(g260
g130
tp449
Rp450
(dp451
bag2
(g266
g130
tp452
Rp453
(dp454
bag2
(g13
g130
tp455
Rp456
(dp457
bag274
(g276
g130
tp458
Rp459
(dp460
bag138
(g282
g130
tp461
Rp462
(dp463
bag138
(g266
g130
tp464
Rp465
(dp466
ba(lp467
g138
(g295
g130
tp468
Rp469
(dp470
batp471
a.