(lp0
((lp1
csympy.core.relational
StrictGreaterThan
p2
(csympy.core.add
Add
p3
(csympy.core.mul
Mul
p4
(csympy.core.numbers
Rational
p5
(I-989
I6
tp6
Rp7
(dp8
bcsympy.core.power
Pow
p9
(csympy.core.symbol
Symbol
p10
(S'x'
p11
tp12
Rp13
(dp14
S'_assumptions'
p15
ccopy_reg
_reconstructor
p16
(csympy.core.assumptions
StdFactKB
p17
c__builtin__
dict
p18
(dp19
S'real'
p20
NsS'irrational'
p21
NsS'antihermitian'
p22
NsS'nonpositive'
p23
NsS'negative'
p24
NsS'hermitian'
p25
NsS'bounded'
p26
NsS'integer'
p27
NsS'imaginary'
p28
NsS'odd'
p29
NsS'even'
p30
NsS'commutative'
p31
I01
sS'positive'
p32
NsS'zero'
p33
NsS'nonnegative'
p34
NsS'rational'
p35
Nstp36
Rp37
sbcsympy.core.numbers
Integer
p38
(I4
tp39
Rp40
(dp41
btp42
Rp43
(dp44
btp45
Rp46
(dp47
bg4
(g38
(I308
tp48
Rp49
(dp50
bg9
(g13
g38
(I3
tp51
Rp52
(dp53
btp54
Rp55
(dp56
btp57
Rp58
(dp59
bg4
(g38
(I-238
tp60
Rp61
(dp62
bg9
(g13
g38
(I2
tp63
Rp64
(dp65
btp66
Rp67
(dp68
btp69
Rp70
(dp71
bg4
(g38
(I63
tp72
Rp73
(dp74
bg13
tp75
Rp76
(dp77
bg4
(g5
(I497
I15
tp78
Rp79
(dp80
bg9
(g13
g38
(I5
tp81
Rp82
(dp83
btp84
Rp85
(dp86
btp87
Rp88
(dp89
bg4
(g5
(I-3
I2
tp90
Rp91
(dp92
bg9
(g13
g38
(I6
tp93
Rp94
(dp95
btp96
Rp97
(dp98
btp99
Rp100
(dp101
btp102
Rp103
(dp104
bcsympy.core.numbers
Zero
p105
(tRp106
(dp107
btp108
Rp109
(dp110
bag2
(g3
(g38
(I-126
tp111
Rp112
(dp113
bg4
(g38
(I150
tp114
Rp115
(dp116
bg55
tp117
Rp118
(dp119
bg4
(g38
(I350
tp120
Rp121
(dp122
bg13
tp123
Rp124
(dp125
bg4
(g38
(I-350
tp126
Rp127
(dp128
bg67
tp129
Rp130
(dp131
bg85
g4
(g38
(I-25
tp132
Rp133
(dp134
bg43
tp135
Rp136
(dp137
btp138
Rp139
(dp140
bg106
tp141
Rp142
(dp143
bag2
(g3
(g4
(g5
(I-35
I2
tp144
Rp145
(dp146
bg13
tp147
Rp148
(dp149
bg4
(g5
(I241
I12
tp150
Rp151
(dp152
bg43
tp153
Rp154
(dp155
bg4
(g5
(I-175
I3
tp156
Rp157
(dp158
bg55
tp159
Rp160
(dp161
bg4
(g91
g85
tp162
Rp163
(dp164
bg4
(g5
(I115
I2
tp165
Rp166
(dp167
bg67
tp168
Rp169
(dp170
btp171
Rp172
(dp173
bg106
tp174
Rp175
(dp176
bacsympy.core.relational
LessThan
p177
(g3
(g38
(I-35
tp178
Rp179
(dp180
bg4
(g38
(I80
tp181
Rp182
(dp183
bg13
tp184
Rp185
(dp186
bg4
(csympy.core.numbers
NegativeOne
p187
(tRp188
(dp189
bg43
tp190
Rp191
(dp192
bg4
(g38
(I16
tp193
Rp194
(dp195
bg55
tp196
Rp197
(dp198
bg4
(g38
(I-60
tp199
Rp200
(dp201
bg67
tp202
Rp203
(dp204
btp205
Rp206
(dp207
bg106
tp208
Rp209
(dp210
bag2
(g3
(g4
(g38
(I14
tp211
Rp212
(dp213
bg67
tp214
Rp215
(dp216
bg4
(g5
(I3
I2
tp217
Rp218
(dp219
bg43
tp220
Rp221
(dp222
bg4
(g38
(I-5
tp223
Rp224
(dp225
bg13
tp226
Rp227
(dp228
bg4
(g5
(I-61
I6
tp229
Rp230
(dp231
bg55
tp232
Rp233
(dp234
btp235
Rp236
(dp237
bg106
tp238
Rp239
(dp240
bag177
(g3
(g38
(I-10
tp241
Rp242
(dp243
bg55
g4
(g38
(I-9
tp244
Rp245
(dp246
bg67
tp247
Rp248
(dp249
bg4
(g38
(I18
tp250
Rp251
(dp252
bg13
tp253
Rp254
(dp255
btp256
Rp257
(dp258
bg106
tp259
Rp260
(dp261
bag2
(g3
(g4
(g5
(I7
I2
tp262
Rp263
(dp264
bg67
tp265
Rp266
(dp267
bg4
(g91
g55
tp268
Rp269
(dp270
bg4
(g91
g13
tp271
Rp272
(dp273
btp274
Rp275
(dp276
bg106
tp277
Rp278
(dp279
bag177
(g3
(g38
(I-3
tp280
Rp281
(dp282
bg4
(g40
g13
tp283
Rp284
(dp285
bg4
(g188
g67
tp286
Rp287
(dp288
btp289
Rp290
(dp291
bg106
tp292
Rp293
(dp294
bag2
(g3
(g4
(g5
(I-1
I2
tp295
Rp296
(dp297
bg13
tp298
Rp299
(dp300
bg4
(g218
g67
tp301
Rp302
(dp303
btp304
Rp305
(dp306
bg106
tp307
Rp308
(dp309
bag177
(g3
(g188
g13
tp310
Rp311
(dp312
bg106
tp313
Rp314
(dp315
bag177
(g3
(g5
(I-582811643
I1000000000
tp316
Rp317
(dp318
bg13
tp319
Rp320
(dp321
bg106
tp322
Rp323
(dp324
ba(lp325
g177
(g13
g106
tp326
Rp327
(dp328
batp329
a((lp330
g177
(g139
g106
tp331
Rp332
(dp333
bag2
(g172
g106
tp334
Rp335
(dp336
bag177
(g206
g106
tp337
Rp338
(dp339
bag2
(g236
g106
tp340
Rp341
(dp342
bag177
(g257
g106
tp343
Rp344
(dp345
bag2
(g275
g106
tp346
Rp347
(dp348
bag177
(g290
g106
tp349
Rp350
(dp351
bag2
(g305
g106
tp352
Rp353
(dp354
bag177
(g311
g106
tp355
Rp356
(dp357
bag177
(g320
g106
tp358
Rp359
(dp360
ba(lp361
g177
(g13
g106
tp362
Rp363
(dp364
batp365
a((lp366
g2
(g3
(g38
(I126
tp367
Rp368
(dp369
bg4
(g38
(I-150
tp370
Rp371
(dp372
bg55
tp373
Rp374
(dp375
bg4
(g121
g67
tp376
Rp377
(dp378
bg4
(g127
g13
tp379
Rp380
(dp381
bg4
(g38
(I25
tp382
Rp383
(dp384
bg43
tp385
Rp386
(dp387
bg4
(g188
g85
tp388
Rp389
(dp390
btp391
Rp392
(dp393
bg106
tp394
Rp395
(dp396
bag2
(g3
(g4
(g5
(I989
I6
tp397
Rp398
(dp399
bg43
tp400
Rp401
(dp402
bg4
(g218
g97
tp403
Rp404
(dp405
bg4
(g38
(I-308
tp406
Rp407
(dp408
bg55
tp409
Rp410
(dp411
bg4
(g38
(I238
tp412
Rp413
(dp414
bg67
tp415
Rp416
(dp417
bg4
(g38
(I-63
tp418
Rp419
(dp420
bg13
tp421
Rp422
(dp423
bg4
(g5
(I-497
I15
tp424
Rp425
(dp426
bg85
tp427
Rp428
(dp429
btp430
Rp431
(dp432
bg106
tp433
Rp434
(dp435
bag2
(g172
g106
tp436
Rp437
(dp438
bag177
(g206
g106
tp439
Rp440
(dp441
bag2
(g236
g106
tp442
Rp443
(dp444
bag177
(g257
g106
tp445
Rp446
(dp447
bag2
(g275
g106
tp448
Rp449
(dp450
bag177
(g290
g106
tp451
Rp452
(dp453
bag2
(g305
g106
tp454
Rp455
(dp456
bag177
(g311
g106
tp457
Rp458
(dp459
bag177
(g320
g106
tp460
Rp461
(dp462
ba(lp463
g177
(g13
g106
tp464
Rp465
(dp466
batp467
a((lp468
g177
(g392
g106
tp469
Rp470
(dp471
bag177
(g431
g106
tp472
Rp473
(dp474
bag2
(g172
g106
tp475
Rp476
(dp477
bag177
(g206
g106
tp478
Rp479
(dp480
bag2
(g236
g106
tp481
Rp482
(dp483
bag177
(g257
g106
tp484
Rp485
(dp486
bag2
(g275
g106
tp487
Rp488
(dp489
bag177
(g290
g106
tp490
Rp491
(dp492
bag2
(g305
g106
tp493
Rp494
(dp495
bag177
(g311
g106
tp496
Rp497
(dp498
bag177
(g320
g106
tp499
Rp500
(dp501
ba(lp502
g177
(g13
g106
tp503
Rp504
(dp505
batp506
a((lp507
g177
(g139
g106
tp508
Rp509
(dp510
bag2
(g172
g106
tp511
Rp512
(dp513
bag177
(g206
g106
tp514
Rp515
(dp516
bag2
(g236
g106
tp517
Rp518
(dp519
bag177
(g257
g106
tp520
Rp521
(dp522
bag2
(g275
g106
tp523
Rp524
(dp525
bag177
(g290
g106
tp526
Rp527
(dp528
bag2
(g305
g106
tp529
Rp530
(dp531
bag177
(g311
g106
tp532
Rp533
(dp534
bag177
(g320
g106
tp535
Rp536
(dp537
ba(lp538
g177
(g13
g106
tp539
Rp540
(dp541
batp542
a((lp543
g2
(g431
g106
tp544
Rp545
(dp546
bag177
(g139
g106
tp547
Rp548
(dp549
bag2
(g172
g106
tp550
Rp551
(dp552
bag177
(g206
g106
tp553
Rp554
(dp555
bag2
(g236
g106
tp556
Rp557
(dp558
bag177
(g257
g106
tp559
Rp560
(dp561
bag2
(g275
g106
tp562
Rp563
(dp564
bag177
(g290
g106
tp565
Rp566
(dp567
bag2
(g305
g106
tp568
Rp569
(dp570
bag177
(g311
g106
tp571
Rp572
(dp573
bag177
(g320
g106
tp574
Rp575
(dp576
ba(lp577
g177
(g13
g106
tp578
Rp579
(dp580
batp581
a((lp582
g2
(g3
(g4
(g5
(I3731
I10
tp583
Rp584
(dp585
bg85
tp586
Rp587
(dp588
bg4
(g5
(I-2233
I2
tp589
Rp590
(dp591
bg43
tp592
Rp593
(dp594
bg4
(g218
g9
(g13
g38
(I7
tp595
Rp596
(dp597
btp598
Rp599
(dp600
btp601
Rp602
(dp603
bg4
(g38
(I1547
tp604
Rp605
(dp606
bg55
tp607
Rp608
(dp609
bg4
(g5
(I-739
I15
tp610
Rp611
(dp612
bg97
tp613
Rp614
(dp615
bg4
(g38
(I-987
tp616
Rp617
(dp618
bg67
tp619
Rp620
(dp621
bg4
(g38
(I231
tp622
Rp623
(dp624
bg13
tp625
Rp626
(dp627
btp628
Rp629
(dp630
bg106
tp631
Rp632
(dp633
bag2
(g3
(g38
(I-462
tp634
Rp635
(dp636
bg4
(g38
(I-1890
tp637
Rp638
(dp639
bg67
tp640
Rp641
(dp642
bg4
(g38
(I-315
tp643
Rp644
(dp645
bg43
tp646
Rp647
(dp648
bg4
(g38
(I36
tp649
Rp650
(dp651
bg85
tp652
Rp653
(dp654
bg4
(g188
g97
tp655
Rp656
(dp657
bg4
(g38
(I1120
tp658
Rp659
(dp660
bg55
tp661
Rp662
(dp663
bg4
(g38
(I1512
tp664
Rp665
(dp666
bg13
tp667
Rp668
(dp669
btp670
Rp671
(dp672
bg106
tp673
Rp674
(dp675
bag2
(g431
g106
tp676
Rp677
(dp678
bag177
(g139
g106
tp679
Rp680
(dp681
bag2
(g172
g106
tp682
Rp683
(dp684
bag177
(g206
g106
tp685
Rp686
(dp687
bag2
(g236
g106
tp688
Rp689
(dp690
bag177
(g257
g106
tp691
Rp692
(dp693
bag2
(g275
g106
tp694
Rp695
(dp696
bag177
(g290
g106
tp697
Rp698
(dp699
bag2
(g305
g106
tp700
Rp701
(dp702
bag177
(g311
g106
tp703
Rp704
(dp705
bag177
(g320
g106
tp706
Rp707
(dp708
ba(lp709
g177
(g13
g106
tp710
Rp711
(dp712
batp713
a((lp714
g177
(g671
g106
tp715
Rp716
(dp717
bag2
(g431
g106
tp718
Rp719
(dp720
bag177
(g139
g106
tp721
Rp722
(dp723
bag2
(g172
g106
tp724
Rp725
(dp726
bag177
(g206
g106
tp727
Rp728
(dp729
bag2
(g236
g106
tp730
Rp731
(dp732
bag177
(g257
g106
tp733
Rp734
(dp735
bag2
(g275
g106
tp736
Rp737
(dp738
bag177
(g290
g106
tp739
Rp740
(dp741
bag2
(g305
g106
tp742
Rp743
(dp744
bag177
(g311
g106
tp745
Rp746
(dp747
bag177
(g320
g106
tp748
Rp749
(dp750
ba(lp751
g177
(g13
g106
tp752
Rp753
(dp754
batp755
a((lp756
g2
(g3
(g38
(I462
tp757
Rp758
(dp759
bg4
(g38
(I-1120
tp760
Rp761
(dp762
bg55
tp763
Rp764
(dp765
bg4
(g38
(I-36
tp766
Rp767
(dp768
bg85
tp769
Rp770
(dp771
bg4
(g38
(I1890
tp772
Rp773
(dp774
bg67
tp775
Rp776
(dp777
bg97
g4
(g38
(I315
tp778
Rp779
(dp780
bg43
tp781
Rp782
(dp783
bg4
(g38
(I-1512
tp784
Rp785
(dp786
bg13
tp787
Rp788
(dp789
btp790
Rp791
(dp792
bg106
tp793
Rp794
(dp795
bag2
(g3
(g4
(g5
(I-3731
I10
tp796
Rp797
(dp798
bg85
tp799
Rp800
(dp801
bg4
(g38
(I-231
tp802
Rp803
(dp804
bg13
tp805
Rp806
(dp807
bg4
(g38
(I-1547
tp808
Rp809
(dp810
bg55
tp811
Rp812
(dp813
bg4
(g38
(I987
tp814
Rp815
(dp816
bg67
tp817
Rp818
(dp819
bg4
(g91
g599
tp820
Rp821
(dp822
bg4
(g5
(I2233
I2
tp823
Rp824
(dp825
bg43
tp826
Rp827
(dp828
bg4
(g5
(I739
I15
tp829
Rp830
(dp831
bg97
tp832
Rp833
(dp834
btp835
Rp836
(dp837
bg106
tp838
Rp839
(dp840
bag2
(g431
g106
tp841
Rp842
(dp843
bag177
(g139
g106
tp844
Rp845
(dp846
bag2
(g172
g106
tp847
Rp848
(dp849
bag177
(g206
g106
tp850
Rp851
(dp852
bag2
(g236
g106
tp853
Rp854
(dp855
bag177
(g257
g106
tp856
Rp857
(dp858
bag2
(g275
g106
tp859
Rp860
(dp861
bag177
(g290
g106
tp862
Rp863
(dp864
bag2
(g305
g106
tp865
Rp866
(dp867
bag177
(g311
g106
tp868
Rp869
(dp870
bag177
(g320
g106
tp871
Rp872
(dp873
ba(lp874
g177
(g13
g106
tp875
Rp876
(dp877
batp878
a((lp879
g177
(g791
g106
tp880
Rp881
(dp882
bag177
(g836
g106
tp883
Rp884
(dp885
bag2
(g431
g106
tp886
Rp887
(dp888
bag177
(g139
g106
tp889
Rp890
(dp891
bag2
(g172
g106
tp892
Rp893
(dp894
bag177
(g206
g106
tp895
Rp896
(dp897
bag2
(g236
g106
tp898
Rp899
(dp900
bag177
(g257
g106
tp901
Rp902
(dp903
bag2
(g275
g106
tp904
Rp905
(dp906
bag177
(g290
g106
tp907
Rp908
(dp909
bag2
(g305
g106
tp910
Rp911
(dp912
bag177
(g311
g106
tp913
Rp914
(dp915
bag177
(g320
g106
tp916
Rp917
(dp918
ba(lp919
g177
(g13
g106
tp920
Rp921
(dp922
batp923
a((lp924
g177
(g671
g106
tp925
Rp926
(dp927
bag2
(g431
g106
tp928
Rp929
(dp930
bag177
(g139
g106
tp931
Rp932
(dp933
bag2
(g172
g106
tp934
Rp935
(dp936
bag177
(g206
g106
tp937
Rp938
(dp939
bag2
(g236
g106
tp940
Rp941
(dp942
bag177
(g257
g106
tp943
Rp944
(dp945
bag2
(g275
g106
tp946
Rp947
(dp948
bag177
(g290
g106
tp949
Rp950
(dp951
bag2
(g305
g106
tp952
Rp953
(dp954
bag177
(g311
g106
tp955
Rp956
(dp957
bag177
(g320
g106
tp958
Rp959
(dp960
ba(lp961
g177
(g13
g106
tp962
Rp963
(dp964
batp965
a((lp966
g2
(g836
g106
tp967
Rp968
(dp969
bag177
(g671
g106
tp970
Rp971
(dp972
bag2
(g431
g106
tp973
Rp974
(dp975
bag177
(g139
g106
tp976
Rp977
(dp978
bag2
(g172
g106
tp979
Rp980
(dp981
bag177
(g206
g106
tp982
Rp983
(dp984
bag2
(g236
g106
tp985
Rp986
(dp987
bag177
(g257
g106
tp988
Rp989
(dp990
bag2
(g275
g106
tp991
Rp992
(dp993
bag177
(g290
g106
tp994
Rp995
(dp996
bag2
(g305
g106
tp997
Rp998
(dp999
bag177
(g311
g106
tp1000
Rp1001
(dp1002
bag177
(g320
g106
tp1003
Rp1004
(dp1005
ba(lp1006
g177
(g13
g106
tp1007
Rp1008
(dp1009
batp1010
a((lp1011
g2
(g3
(g4
(g38
(I858
tp1012
Rp1013
(dp1014
bg13
tp1015
Rp1016
(dp1017
bg4
(g38
(I-4092
tp1018
Rp1019
(dp1020
bg67
tp1021
Rp1022
(dp1023
bg4
(g38
(I-6799
tp1024
Rp1025
(dp1026
bg43
tp1027
Rp1028
(dp1029
bg4
(g5
(I2396
I35
tp1030
Rp1031
(dp1032
bg599
tp1033
Rp1034
(dp1035
bg4
(g38
(I7513
tp1036
Rp1037
(dp1038
bg55
tp1039
Rp1040
(dp1041
bg4
(g5
(I-7319
I10
tp1042
Rp1043
(dp1044
bg97
tp1045
Rp1046
(dp1047
bg4
(g91
g9
(g13
g38
(I8
tp1048
Rp1049
(dp1050
btp1051
Rp1052
(dp1053
btp1054
Rp1055
(dp1056
bg4
(g5
(I15924
I5
tp1057
Rp1058
(dp1059
bg85
tp1060
Rp1061
(dp1062
btp1063
Rp1064
(dp1065
bg106
tp1066
Rp1067
(dp1068
bag2
(g3
(g38
(I-1716
tp1069
Rp1070
(dp1071
bg4
(g38
(I-49
tp1072
Rp1073
(dp1074
bg97
tp1075
Rp1076
(dp1077
bg4
(g38
(I-9702
tp1078
Rp1079
(dp1080
bg67
tp1081
Rp1082
(dp1083
bg4
(g38
(I7350
tp1084
Rp1085
(dp1086
bg55
tp1087
Rp1088
(dp1089
bg4
(g38
(I6468
tp1090
Rp1091
(dp1092
bg13
tp1093
Rp1094
(dp1095
bg599
g4
(g38
(I588
tp1096
Rp1097
(dp1098
bg85
tp1099
Rp1100
(dp1101
bg4
(g38
(I-2940
tp1102
Rp1103
(dp1104
bg43
tp1105
Rp1106
(dp1107
btp1108
Rp1109
(dp1110
bg106
tp1111
Rp1112
(dp1113
bag2
(g836
g106
tp1114
Rp1115
(dp1116
bag177
(g671
g106
tp1117
Rp1118
(dp1119
bag2
(g431
g106
tp1120
Rp1121
(dp1122
bag177
(g139
g106
tp1123
Rp1124
(dp1125
bag2
(g172
g106
tp1126
Rp1127
(dp1128
bag177
(g206
g106
tp1129
Rp1130
(dp1131
bag2
(g236
g106
tp1132
Rp1133
(dp1134
bag177
(g257
g106
tp1135
Rp1136
(dp1137
bag2
(g275
g106
tp1138
Rp1139
(dp1140
bag177
(g290
g106
tp1141
Rp1142
(dp1143
bag2
(g305
g106
tp1144
Rp1145
(dp1146
bag177
(g311
g106
tp1147
Rp1148
(dp1149
bag177
(g320
g106
tp1150
Rp1151
(dp1152
ba(lp1153
g177
(g13
g106
tp1154
Rp1155
(dp1156
batp1157
a((lp1158
g177
(g1109
g106
tp1159
Rp1160
(dp1161
bag2
(g836
g106
tp1162
Rp1163
(dp1164
bag177
(g671
g106
tp1165
Rp1166
(dp1167
bag2
(g431
g106
tp1168
Rp1169
(dp1170
bag177
(g139
g106
tp1171
Rp1172
(dp1173
bag2
(g172
g106
tp1174
Rp1175
(dp1176
bag177
(g206
g106
tp1177
Rp1178
(dp1179
bag2
(g236
g106
tp1180
Rp1181
(dp1182
bag177
(g257
g106
tp1183
Rp1184
(dp1185
bag2
(g275
g106
tp1186
Rp1187
(dp1188
bag177
(g290
g106
tp1189
Rp1190
(dp1191
bag2
(g305
g106
tp1192
Rp1193
(dp1194
bag177
(g311
g106
tp1195
Rp1196
(dp1197
bag177
(g320
g106
tp1198
Rp1199
(dp1200
ba(lp1201
g177
(g13
g106
tp1202
Rp1203
(dp1204
batp1205
a((lp1206
g2
(g3
(g38
(I1716
tp1207
Rp1208
(dp1209
bg4
(g38
(I-7350
tp1210
Rp1211
(dp1212
bg55
tp1213
Rp1214
(dp1215
bg4
(g38
(I9702
tp1216
Rp1217
(dp1218
bg67
tp1219
Rp1220
(dp1221
bg4
(g38
(I-588
tp1222
Rp1223
(dp1224
bg85
tp1225
Rp1226
(dp1227
bg4
(g38
(I-6468
tp1228
Rp1229
(dp1230
bg13
tp1231
Rp1232
(dp1233
bg4
(g38
(I2940
tp1234
Rp1235
(dp1236
bg43
tp1237
Rp1238
(dp1239
bg4
(g188
g599
tp1240
Rp1241
(dp1242
bg4
(g38
(I49
tp1243
Rp1244
(dp1245
bg97
tp1246
Rp1247
(dp1248
btp1249
Rp1250
(dp1251
bg106
tp1252
Rp1253
(dp1254
bag2
(g3
(g4
(g218
g1052
tp1255
Rp1256
(dp1257
bg4
(g5
(I-15924
I5
tp1258
Rp1259
(dp1260
bg85
tp1261
Rp1262
(dp1263
bg4
(g38
(I4092
tp1264
Rp1265
(dp1266
bg67
tp1267
Rp1268
(dp1269
bg4
(g38
(I-858
tp1270
Rp1271
(dp1272
bg13
tp1273
Rp1274
(dp1275
bg4
(g5
(I7319
I10
tp1276
Rp1277
(dp1278
bg97
tp1279
Rp1280
(dp1281
bg4
(g5
(I-2396
I35
tp1282
Rp1283
(dp1284
bg599
tp1285
Rp1286
(dp1287
bg4
(g38
(I-7513
tp1288
Rp1289
(dp1290
bg55
tp1291
Rp1292
(dp1293
bg4
(g38
(I6799
tp1294
Rp1295
(dp1296
bg43
tp1297
Rp1298
(dp1299
btp1300
Rp1301
(dp1302
bg106
tp1303
Rp1304
(dp1305
bag2
(g836
g106
tp1306
Rp1307
(dp1308
bag177
(g671
g106
tp1309
Rp1310
(dp1311
bag2
(g431
g106
tp1312
Rp1313
(dp1314
bag177
(g139
g106
tp1315
Rp1316
(dp1317
bag2
(g172
g106
tp1318
Rp1319
(dp1320
bag177
(g206
g106
tp1321
Rp1322
(dp1323
bag2
(g236
g106
tp1324
Rp1325
(dp1326
bag177
(g257
g106
tp1327
Rp1328
(dp1329
bag2
(g275
g106
tp1330
Rp1331
(dp1332
bag177
(g290
g106
tp1333
Rp1334
(dp1335
bag2
(g305
g106
tp1336
Rp1337
(dp1338
bag177
(g311
g106
tp1339
Rp1340
(dp1341
bag177
(g320
g106
tp1342
Rp1343
(dp1344
ba(lp1345
g177
(g13
g106
tp1346
Rp1347
(dp1348
batp1349
a((lp1350
g177
(g1250
g106
tp1351
Rp1352
(dp1353
bag177
(g1301
g106
tp1354
Rp1355
(dp1356
bag2
(g836
g106
tp1357
Rp1358
(dp1359
bag177
(g671
g106
tp1360
Rp1361
(dp1362
bag2
(g431
g106
tp1363
Rp1364
(dp1365
bag177
(g139
g106
tp1366
Rp1367
(dp1368
bag2
(g172
g106
tp1369
Rp1370
(dp1371
bag177
(g206
g106
tp1372
Rp1373
(dp1374
bag2
(g236
g106
tp1375
Rp1376
(dp1377
bag177
(g257
g106
tp1378
Rp1379
(dp1380
bag2
(g275
g106
tp1381
Rp1382
(dp1383
bag177
(g290
g106
tp1384
Rp1385
(dp1386
bag2
(g305
g106
tp1387
Rp1388
(dp1389
bag177
(g311
g106
tp1390
Rp1391
(dp1392
bag177
(g320
g106
tp1393
Rp1394
(dp1395
ba(lp1396
g177
(g13
g106
tp1397
Rp1398
(dp1399
batp1400
a((lp1401
g177
(g1109
g106
tp1402
Rp1403
(dp1404
bag2
(g836
g106
tp1405
Rp1406
(dp1407
bag177
(g671
g106
tp1408
Rp1409
(dp1410
bag2
(g431
g106
tp1411
Rp1412
(dp1413
bag177
(g139
g106
tp1414
Rp1415
(dp1416
bag2
(g172
g106
tp1417
Rp1418
(dp1419
bag177
(g206
g106
tp1420
Rp1421
(dp1422
bag2
(g236
g106
tp1423
Rp1424
(dp1425
bag177
(g257
g106
tp1426
Rp1427
(dp1428
bag2
(g275
g106
tp1429
Rp1430
(dp1431
bag177
(g290
g106
tp1432
Rp1433
(dp1434
bag2
(g305
g106
tp1435
Rp1436
(dp1437
bag177
(g311
g106
tp1438
Rp1439
(dp1440
bag177
(g320
g106
tp1441
Rp1442
(dp1443
ba(lp1444
g177
(g13
g106
tp1445
Rp1446
(dp1447
batp1448
a((lp1449
g2
(g1301
g106
tp1450
Rp1451
(dp1452
bag177
(g1109
g106
tp1453
Rp1454
(dp1455
bag2
(g836
g106
tp1456
Rp1457
(dp1458
bag177
(g671
g106
tp1459
Rp1460
(dp1461
bag2
(g431
g106
tp1462
Rp1463
(dp1464
bag177
(g139
g106
tp1465
Rp1466
(dp1467
bag2
(g172
g106
tp1468
Rp1469
(dp1470
bag177
(g206
g106
tp1471
Rp1472
(dp1473
bag2
(g236
g106
tp1474
Rp1475
(dp1476
bag177
(g257
g106
tp1477
Rp1478
(dp1479
bag2
(g275
g106
tp1480
Rp1481
(dp1482
bag177
(g290
g106
tp1483
Rp1484
(dp1485
bag2
(g305
g106
tp1486
Rp1487
(dp1488
bag177
(g311
g106
tp1489
Rp1490
(dp1491
bag177
(g320
g106
tp1492
Rp1493
(dp1494
ba(lp1495
g177
(g13
g106
tp1496
Rp1497
(dp1498
batp1499
a((lp1500
g2
(g3
(g4
(g5
(I-25393
I280
tp1501
Rp1502
(dp1503
bg1052
tp1504
Rp1505
(dp1506
bg4
(g38
(I35607
tp1507
Rp1508
(dp1509
bg55
tp1510
Rp1511
(dp1512
bg4
(g5
(I45469
I35
tp1513
Rp1514
(dp1515
bg599
tp1516
Rp1517
(dp1518
bg4
(g218
g9
(g13
g38
(I9
tp1519
Rp1520
(dp1521
btp1522
Rp1523
(dp1524
btp1525
Rp1526
(dp1527
bg4
(g5
(I-77193
I10
tp1528
Rp1529
(dp1530
bg97
tp1531
Rp1532
(dp1533
bg4
(g5
(I-154627
I4
tp1534
Rp1535
(dp1536
bg43
tp1537
Rp1538
(dp1539
bg4
(g5
(I6435
I2
tp1540
Rp1541
(dp1542
bg13
tp1543
Rp1544
(dp1545
bg4
(g38
(I23287
tp1546
Rp1547
(dp1548
bg85
tp1549
Rp1550
(dp1551
bg4
(g5
(I-33891
I2
tp1552
Rp1553
(dp1554
bg67
tp1555
Rp1556
(dp1557
btp1558
Rp1559
(dp1560
bg106
tp1561
Rp1562
(dp1563
bag2
(g3
(g38
(I-6435
tp1564
Rp1565
(dp1566
bg4
(g38
(I-23100
tp1567
Rp1568
(dp1569
bg43
tp1570
Rp1571
(dp1572
bg4
(g188
g1052
tp1573
Rp1574
(dp1575
bg4
(g38
(I44352
tp1576
Rp1577
(dp1578
bg55
tp1579
Rp1580
(dp1581
bg4
(g38
(I6720
tp1582
Rp1583
(dp1584
bg85
tp1585
Rp1586
(dp1587
bg4
(g38
(I-1008
tp1588
Rp1589
(dp1590
bg97
tp1591
Rp1592
(dp1593
bg4
(g38
(I64
tp1594
Rp1595
(dp1596
bg599
tp1597
Rp1598
(dp1599
bg4
(g38
(I-48048
tp1600
Rp1601
(dp1602
bg67
tp1603
Rp1604
(dp1605
bg4
(g38
(I27456
tp1606
Rp1607
(dp1608
bg13
tp1609
Rp1610
(dp1611
btp1612
Rp1613
(dp1614
bg106
tp1615
Rp1616
(dp1617
bag2
(g1301
g106
tp1618
Rp1619
(dp1620
bag177
(g1109
g106
tp1621
Rp1622
(dp1623
bag2
(g836
g106
tp1624
Rp1625
(dp1626
bag177
(g671
g106
tp1627
Rp1628
(dp1629
bag2
(g431
g106
tp1630
Rp1631
(dp1632
bag177
(g139
g106
tp1633
Rp1634
(dp1635
bag2
(g172
g106
tp1636
Rp1637
(dp1638
bag177
(g206
g106
tp1639
Rp1640
(dp1641
bag2
(g236
g106
tp1642
Rp1643
(dp1644
bag177
(g257
g106
tp1645
Rp1646
(dp1647
bag2
(g275
g106
tp1648
Rp1649
(dp1650
bag177
(g290
g106
tp1651
Rp1652
(dp1653
bag2
(g305
g106
tp1654
Rp1655
(dp1656
bag177
(g311
g106
tp1657
Rp1658
(dp1659
bag177
(g320
g106
tp1660
Rp1661
(dp1662
ba(lp1663
g177
(g13
g106
tp1664
Rp1665
(dp1666
batp1667
a((lp1668
g177
(g1613
g106
tp1669
Rp1670
(dp1671
bag2
(g1301
g106
tp1672
Rp1673
(dp1674
bag177
(g1109
g106
tp1675
Rp1676
(dp1677
bag2
(g836
g106
tp1678
Rp1679
(dp1680
bag177
(g671
g106
tp1681
Rp1682
(dp1683
bag2
(g431
g106
tp1684
Rp1685
(dp1686
bag177
(g139
g106
tp1687
Rp1688
(dp1689
bag2
(g172
g106
tp1690
Rp1691
(dp1692
bag177
(g206
g106
tp1693
Rp1694
(dp1695
bag2
(g236
g106
tp1696
Rp1697
(dp1698
bag177
(g257
g106
tp1699
Rp1700
(dp1701
bag2
(g275
g106
tp1702
Rp1703
(dp1704
bag177
(g290
g106
tp1705
Rp1706
(dp1707
bag2
(g305
g106
tp1708
Rp1709
(dp1710
bag177
(g311
g106
tp1711
Rp1712
(dp1713
bag177
(g320
g106
tp1714
Rp1715
(dp1716
ba(lp1717
g177
(g13
g106
tp1718
Rp1719
(dp1720
batp1721
a((lp1722
g2
(g3
(g38
(I6435
tp1723
Rp1724
(dp1725
bg4
(g38
(I23100
tp1726
Rp1727
(dp1728
bg43
tp1729
Rp1730
(dp1731
bg4
(g38
(I-44352
tp1732
Rp1733
(dp1734
bg55
tp1735
Rp1736
(dp1737
bg4
(g38
(I48048
tp1738
Rp1739
(dp1740
bg67
tp1741
Rp1742
(dp1743
bg1052
g4
(g38
(I1008
tp1744
Rp1745
(dp1746
bg97
tp1747
Rp1748
(dp1749
bg4
(g38
(I-27456
tp1750
Rp1751
(dp1752
bg13
tp1753
Rp1754
(dp1755
bg4
(g38
(I-64
tp1756
Rp1757
(dp1758
bg599
tp1759
Rp1760
(dp1761
bg4
(g38
(I-6720
tp1762
Rp1763
(dp1764
bg85
tp1765
Rp1766
(dp1767
btp1768
Rp1769
(dp1770
bg106
tp1771
Rp1772
(dp1773
bag2
(g3
(g4
(g5
(I-45469
I35
tp1774
Rp1775
(dp1776
bg599
tp1777
Rp1778
(dp1779
bg4
(g5
(I33891
I2
tp1780
Rp1781
(dp1782
bg67
tp1783
Rp1784
(dp1785
bg4
(g5
(I154627
I4
tp1786
Rp1787
(dp1788
bg43
tp1789
Rp1790
(dp1791
bg4
(g91
g1523
tp1792
Rp1793
(dp1794
bg4
(g5
(I77193
I10
tp1795
Rp1796
(dp1797
bg97
tp1798
Rp1799
(dp1800
bg4
(g38
(I-23287
tp1801
Rp1802
(dp1803
bg85
tp1804
Rp1805
(dp1806
bg4
(g38
(I-35607
tp1807
Rp1808
(dp1809
bg55
tp1810
Rp1811
(dp1812
bg4
(g5
(I25393
I280
tp1813
Rp1814
(dp1815
bg1052
tp1816
Rp1817
(dp1818
bg4
(g5
(I-6435
I2
tp1819
Rp1820
(dp1821
bg13
tp1822
Rp1823
(dp1824
btp1825
Rp1826
(dp1827
bg106
tp1828
Rp1829
(dp1830
bag2
(g1301
g106
tp1831
Rp1832
(dp1833
bag177
(g1109
g106
tp1834
Rp1835
(dp1836
bag2
(g836
g106
tp1837
Rp1838
(dp1839
bag177
(g671
g106
tp1840
Rp1841
(dp1842
bag2
(g431
g106
tp1843
Rp1844
(dp1845
bag177
(g139
g106
tp1846
Rp1847
(dp1848
bag2
(g172
g106
tp1849
Rp1850
(dp1851
bag177
(g206
g106
tp1852
Rp1853
(dp1854
bag2
(g236
g106
tp1855
Rp1856
(dp1857
bag177
(g257
g106
tp1858
Rp1859
(dp1860
bag2
(g275
g106
tp1861
Rp1862
(dp1863
bag177
(g290
g106
tp1864
Rp1865
(dp1866
bag2
(g305
g106
tp1867
Rp1868
(dp1869
bag177
(g311
g106
tp1870
Rp1871
(dp1872
bag177
(g320
g106
tp1873
Rp1874
(dp1875
ba(lp1876
g177
(g13
g106
tp1877
Rp1878
(dp1879
batp1880
a((lp1881
g177
(g1769
g106
tp1882
Rp1883
(dp1884
bag2
(g1301
g106
tp1885
Rp1886
(dp1887
bag177
(g1109
g106
tp1888
Rp1889
(dp1890
bag2
(g836
g106
tp1891
Rp1892
(dp1893
bag177
(g671
g106
tp1894
Rp1895
(dp1896
bag2
(g431
g106
tp1897
Rp1898
(dp1899
bag177
(g139
g106
tp1900
Rp1901
(dp1902
bag2
(g172
g106
tp1903
Rp1904
(dp1905
bag177
(g206
g106
tp1906
Rp1907
(dp1908
bag2
(g236
g106
tp1909
Rp1910
(dp1911
bag177
(g257
g106
tp1912
Rp1913
(dp1914
bag2
(g275
g106
tp1915
Rp1916
(dp1917
bag177
(g290
g106
tp1918
Rp1919
(dp1920
bag2
(g305
g106
tp1921
Rp1922
(dp1923
bag177
(g311
g106
tp1924
Rp1925
(dp1926
bag177
(g320
g106
tp1927
Rp1928
(dp1929
ba(lp1930
g177
(g13
g106
tp1931
Rp1932
(dp1933
batp1934
a.