(lp0
((lp1
csympy.core.relational
StrictGreaterThan
p2
(csympy.core.add
Add
p3
(csympy.core.numbers
Integer
p4
(I12
tp5
Rp6
(dp7
bcsympy.core.power
Pow
p8
(csympy.core.symbol
Symbol
p9
(S'x'
p10
tp11
Rp12
(dp13
S'_assumptions'
p14
ccopy_reg
_reconstructor
p15
(csympy.core.assumptions
StdFactKB
p16
c__builtin__
dict
p17
(dp18
S'real'
p19
NsS'irrational'
p20
NsS'antihermitian'
p21
NsS'nonpositive'
p22
NsS'negative'
p23
NsS'hermitian'
p24
NsS'bounded'
p25
NsS'integer'
p26
NsS'imaginary'
p27
NsS'odd'
p28
NsS'even'
p29
NsS'commutative'
p30
I01
sS'positive'
p31
NsS'zero'
p32
NsS'nonnegative'
p33
NsS'rational'
p34
Nstp35
Rp36
sbg4
(I2
tp37
Rp38
(dp39
btp40
Rp41
(dp42
bcsympy.core.mul
Mul
p43
(g4
(I-6
tp44
Rp45
(dp46
bg12
tp47
Rp48
(dp49
btp50
Rp51
(dp52
bcsympy.core.numbers
Zero
p53
(tRp54
(dp55
btp56
Rp57
(dp58
bag2
(g3
(g6
g43
(g4
(I6
tp59
Rp60
(dp61
bg12
tp62
Rp63
(dp64
bg41
g43
(csympy.core.numbers
Rational
p65
(I-1
I60
tp66
Rp67
(dp68
bg8
(g12
g60
tp69
Rp70
(dp71
btp72
Rp73
(dp74
bg43
(g65
(I1
I60
tp75
Rp76
(dp77
bg8
(g12
g4
(I5
tp78
Rp79
(dp80
btp81
Rp82
(dp83
btp84
Rp85
(dp86
btp87
Rp88
(dp89
bg54
tp90
Rp91
(dp92
bacsympy.core.relational
LessThan
p93
(g85
g54
tp94
Rp95
(dp96
bag2
(g51
g54
tp97
Rp98
(dp99
bag2
(g3
(g6
g63
g41
tp100
Rp101
(dp102
bg54
tp103
Rp104
(dp105
bag93
(g3
(g4
(I-12
tp106
Rp107
(dp108
bg63
g43
(csympy.core.numbers
NegativeOne
p109
(tRp110
(dp111
bg41
tp112
Rp113
(dp114
btp115
Rp116
(dp117
bg54
tp118
Rp119
(dp120
bag2
(g3
(g43
(g110
g8
(g12
g4
(I3
tp121
Rp122
(dp123
btp124
Rp125
(dp126
btp127
Rp128
(dp129
bg43
(g60
g41
tp130
Rp131
(dp132
btp133
Rp134
(dp135
bg54
tp136
Rp137
(dp138
bacsympy.core.relational
Unequality
p139
(g12
g54
tp140
Rp141
(dp142
bag2
(g43
(g110
g12
tp143
Rp144
(dp145
bg54
tp146
Rp147
(dp148
bag2
(g43
(g4
(I-2
tp149
Rp150
(dp151
bg82
tp152
Rp153
(dp154
bg54
tp155
Rp156
(dp157
ba(lp158
g2
(g3
(g4
(I-120
tp159
Rp160
(dp161
bg125
g43
(g107
g41
tp162
Rp163
(dp164
bg43
(g4
(I60
tp165
Rp166
(dp167
bg12
tp168
Rp169
(dp170
btp171
Rp172
(dp173
bg54
tp174
Rp175
(dp176
batp177
a((lp178
g93
(g51
g54
tp179
Rp180
(dp181
bag93
(g88
g54
tp182
Rp183
(dp184
bag93
(g85
g54
tp185
Rp186
(dp187
bag2
(g51
g54
tp188
Rp189
(dp190
bag2
(g101
g54
tp191
Rp192
(dp193
bag93
(g116
g54
tp194
Rp195
(dp196
bag2
(g134
g54
tp197
Rp198
(dp199
bag139
(g12
g54
tp200
Rp201
(dp202
bag2
(g144
g54
tp203
Rp204
(dp205
bag2
(g153
g54
tp206
Rp207
(dp208
ba(lp209
g2
(g172
g54
tp210
Rp211
(dp212
batp213
a((lp214
g93
(g3
(g110
g144
tp215
Rp216
(dp217
bg54
tp218
Rp219
(dp220
bag2
(g3
(g128
g73
g85
g131
tp221
Rp222
(dp223
bg54
tp224
Rp225
(dp226
bag2
(g51
g54
tp227
Rp228
(dp229
bag2
(g88
g54
tp230
Rp231
(dp232
bag93
(g85
g54
tp233
Rp234
(dp235
bag2
(g51
g54
tp236
Rp237
(dp238
bag2
(g101
g54
tp239
Rp240
(dp241
bag93
(g116
g54
tp242
Rp243
(dp244
bag2
(g134
g54
tp245
Rp246
(dp247
bag139
(g12
g54
tp248
Rp249
(dp250
bag2
(g144
g54
tp251
Rp252
(dp253
bag2
(g153
g54
tp254
Rp255
(dp256
ba(lp257
g2
(g172
g54
tp258
Rp259
(dp260
batp261
a((lp262
g93
(g216
g54
tp263
Rp264
(dp265
bag93
(g222
g54
tp266
Rp267
(dp268
bag93
(g51
g54
tp269
Rp270
(dp271
bag2
(g88
g54
tp272
Rp273
(dp274
bag93
(g85
g54
tp275
Rp276
(dp277
bag2
(g51
g54
tp278
Rp279
(dp280
bag2
(g101
g54
tp281
Rp282
(dp283
bag93
(g116
g54
tp284
Rp285
(dp286
bag2
(g134
g54
tp287
Rp288
(dp289
bag139
(g12
g54
tp290
Rp291
(dp292
bag2
(g144
g54
tp293
Rp294
(dp295
bag2
(g153
g54
tp296
Rp297
(dp298
ba(lp299
g2
(g172
g54
tp300
Rp301
(dp302
batp303
a((lp304
g93
(g222
g54
tp305
Rp306
(dp307
bag2
(g216
g54
tp308
Rp309
(dp310
bag2
(g88
g54
tp311
Rp312
(dp313
bag93
(g85
g54
tp314
Rp315
(dp316
bag2
(g51
g54
tp317
Rp318
(dp319
bag2
(g101
g54
tp320
Rp321
(dp322
bag93
(g116
g54
tp323
Rp324
(dp325
bag2
(g134
g54
tp326
Rp327
(dp328
bag139
(g12
g54
tp329
Rp330
(dp331
bag2
(g144
g54
tp332
Rp333
(dp334
bag2
(g153
g54
tp335
Rp336
(dp337
ba(lp338
g2
(g172
g54
tp339
Rp340
(dp341
batp342
a((lp343
g93
(g216
g54
tp344
Rp345
(dp346
bag93
(g116
g54
tp347
Rp348
(dp349
bag2
(g88
g54
tp350
Rp351
(dp352
bag93
(g85
g54
tp353
Rp354
(dp355
bag2
(g51
g54
tp356
Rp357
(dp358
bag2
(g101
g54
tp359
Rp360
(dp361
bag93
(g116
g54
tp362
Rp363
(dp364
bag2
(g134
g54
tp365
Rp366
(dp367
bag139
(g12
g54
tp368
Rp369
(dp370
bag2
(g144
g54
tp371
Rp372
(dp373
bag2
(g153
g54
tp374
Rp375
(dp376
ba(lp377
g2
(g172
g54
tp378
Rp379
(dp380
batp381
a((lp382
g93
(g116
g54
tp383
Rp384
(dp385
bag2
(g88
g54
tp386
Rp387
(dp388
bag93
(g85
g54
tp389
Rp390
(dp391
bag2
(g51
g54
tp392
Rp393
(dp394
bag2
(g101
g54
tp395
Rp396
(dp397
bag93
(g116
g54
tp398
Rp399
(dp400
bag2
(g134
g54
tp401
Rp402
(dp403
bag139
(g12
g54
tp404
Rp405
(dp406
bag2
(g144
g54
tp407
Rp408
(dp409
bag2
(g153
g54
tp410
Rp411
(dp412
ba(lp413
g2
(g172
g54
tp414
Rp415
(dp416
batp417
a((lp418
g2
(g222
g54
tp419
Rp420
(dp421
bag2
(g88
g54
tp422
Rp423
(dp424
bag93
(g85
g54
tp425
Rp426
(dp427
bag2
(g51
g54
tp428
Rp429
(dp430
bag2
(g101
g54
tp431
Rp432
(dp433
bag93
(g116
g54
tp434
Rp435
(dp436
bag2
(g134
g54
tp437
Rp438
(dp439
bag139
(g12
g54
tp440
Rp441
(dp442
bag2
(g144
g54
tp443
Rp444
(dp445
bag2
(g153
g54
tp446
Rp447
(dp448
ba(lp449
g2
(g172
g54
tp450
Rp451
(dp452
batp453
a((lp454
g93
(g172
g54
tp455
Rp456
(dp457
bag2
(g222
g54
tp458
Rp459
(dp460
bag2
(g88
g54
tp461
Rp462
(dp463
bag93
(g85
g54
tp464
Rp465
(dp466
bag2
(g51
g54
tp467
Rp468
(dp469
bag2
(g101
g54
tp470
Rp471
(dp472
bag93
(g116
g54
tp473
Rp474
(dp475
bag2
(g134
g54
tp476
Rp477
(dp478
bag139
(g12
g54
tp479
Rp480
(dp481
bag2
(g144
g54
tp482
Rp483
(dp484
bag2
(g153
g54
tp485
Rp486
(dp487
ba(lp488
g2
(g172
g54
tp489
Rp490
(dp491
batp492
a((lp493
g93
(g116
g54
tp494
Rp495
(dp496
bag2
(g222
g54
tp497
Rp498
(dp499
bag2
(g88
g54
tp500
Rp501
(dp502
bag93
(g85
g54
tp503
Rp504
(dp505
bag2
(g51
g54
tp506
Rp507
(dp508
bag2
(g101
g54
tp509
Rp510
(dp511
bag93
(g116
g54
tp512
Rp513
(dp514
bag2
(g134
g54
tp515
Rp516
(dp517
bag139
(g12
g54
tp518
Rp519
(dp520
bag2
(g144
g54
tp521
Rp522
(dp523
bag2
(g153
g54
tp524
Rp525
(dp526
ba(lp527
g2
(g172
g54
tp528
Rp529
(dp530
batp531
a.