(lp0
((lp1
csympy.core.relational
LessThan
p2
(csympy.core.add
Add
p3
(csympy.core.numbers
Rational
p4
(I-1
I2
tp5
Rp6
(dp7
bcsympy.core.mul
Mul
p8
(g6
csympy.core.symbol
Symbol
p9
(S'x'
p10
tp11
Rp12
(dp13
S'_assumptions'
p14
ccopy_reg
_reconstructor
p15
(csympy.core.assumptions
StdFactKB
p16
c__builtin__
dict
p17
(dp18
S'real'
p19
NsS'irrational'
p20
NsS'antihermitian'
p21
NsS'nonpositive'
p22
NsS'negative'
p23
NsS'hermitian'
p24
NsS'bounded'
p25
NsS'integer'
p26
NsS'imaginary'
p27
NsS'odd'
p28
NsS'even'
p29
NsS'commutative'
p30
I01
sS'positive'
p31
NsS'zero'
p32
NsS'nonnegative'
p33
NsS'rational'
p34
Nstp35
Rp36
sbtp37
Rp38
(dp39
bg8
(g4
(I1
I4
tp40
Rp41
(dp42
bcsympy.core.power
Pow
p43
(g12
csympy.core.numbers
Integer
p44
(I2
tp45
Rp46
(dp47
btp48
Rp49
(dp50
btp51
Rp52
(dp53
bg8
(g41
g43
(g12
g44
(I3
tp54
Rp55
(dp56
btp57
Rp58
(dp59
btp60
Rp61
(dp62
btp63
Rp64
(dp65
bcsympy.core.numbers
Zero
p66
(tRp67
(dp68
btp69
Rp70
(dp71
bag2
(g3
(g52
g8
(g41
g12
tp72
Rp73
(dp74
btp75
Rp76
(dp77
bg67
tp78
Rp79
(dp80
bag2
(g3
(csympy.core.numbers
Half
p81
(tRp82
(dp83
bg8
(g4
(I-1
I4
tp84
Rp85
(dp86
bg49
tp87
Rp88
(dp89
bg8
(g85
g58
tp90
Rp91
(dp92
bg8
(g82
g12
tp93
Rp94
(dp95
btp96
Rp97
(dp98
bg67
tp99
Rp100
(dp101
bag2
(g3
(g44
(I5
tp102
Rp103
(dp104
bg8
(g44
(I9
tp105
Rp106
(dp107
bg12
tp108
Rp109
(dp110
bg8
(csympy.core.numbers
NegativeOne
p111
(tRp112
(dp113
bg43
(g12
g44
(I4
tp114
Rp115
(dp116
btp117
Rp118
(dp119
btp120
Rp121
(dp122
bg8
(g44
(I6
tp123
Rp124
(dp125
bg49
tp126
Rp127
(dp128
bg8
(g4
(I3
I4
tp129
Rp130
(dp131
bg58
tp132
Rp133
(dp134
btp135
Rp136
(dp137
bg67
tp138
Rp139
(dp140
bag2
(g3
(g88
g8
(g85
g12
tp141
Rp142
(dp143
btp144
Rp145
(dp146
bg67
tp147
Rp148
(dp149
bag2
(g3
(g112
g8
(g112
g12
tp150
Rp151
(dp152
btp153
Rp154
(dp155
bg67
tp156
Rp157
(dp158
bag2
(g3
(g4
(I-5
I4
tp159
Rp160
(dp161
bg12
tp162
Rp163
(dp164
bg67
tp165
Rp166
(dp167
bag2
(g151
g67
tp168
Rp169
(dp170
bacsympy.core.relational
StrictGreaterThan
p171
(g3
(csympy.core.numbers
One
p172
(tRp173
(dp174
bg12
tp175
Rp176
(dp177
bg67
tp178
Rp179
(dp180
bag171
(g3
(g4
(I7
I2
tp181
Rp182
(dp183
bg8
(g4
(I1
I48
tp184
Rp185
(dp186
bg43
(g12
g103
tp187
Rp188
(dp189
btp190
Rp191
(dp192
bg91
g8
(g185
g118
tp193
Rp194
(dp195
bg8
(g124
g12
tp196
Rp197
(dp198
bg8
(g4
(I11
I4
tp199
Rp200
(dp201
bg49
tp202
Rp203
(dp204
btp205
Rp206
(dp207
bg67
tp208
Rp209
(dp210
ba(lp211
g171
(g3
(g4
(I-7
I2
tp212
Rp213
(dp214
bg8
(g4
(I-11
I4
tp215
Rp216
(dp217
bg49
tp218
Rp219
(dp220
bg8
(g4
(I-1
I48
tp221
Rp222
(dp223
bg188
tp224
Rp225
(dp226
bg8
(g222
g118
tp227
Rp228
(dp229
bg61
g8
(g44
(I-6
tp230
Rp231
(dp232
bg12
tp233
Rp234
(dp235
btp236
Rp237
(dp238
bg67
tp239
Rp240
(dp241
batp242
a((lp243
g2
(g76
g67
tp244
Rp245
(dp246
bag2
(g3
(g4
(I11
I2
tp247
Rp248
(dp249
bg8
(g248
g49
tp250
Rp251
(dp252
bg8
(g4
(I19
I2
tp253
Rp254
(dp255
bg12
tp256
Rp257
(dp258
bg8
(g4
(I1
I8
tp259
Rp260
(dp261
bg188
tp262
Rp263
(dp264
bg8
(g4
(I-7
I8
tp265
Rp266
(dp267
bg118
tp268
Rp269
(dp270
bg61
tp271
Rp272
(dp273
bg67
tp274
Rp275
(dp276
bag171
(g97
g67
tp277
Rp278
(dp279
bag171
(g97
g67
tp280
Rp281
(dp282
bag2
(g145
g67
tp283
Rp284
(dp285
bag2
(g154
g67
tp286
Rp287
(dp288
bag2
(g163
g67
tp289
Rp290
(dp291
bag2
(g151
g67
tp292
Rp293
(dp294
bag171
(g176
g67
tp295
Rp296
(dp297
bag171
(g206
g67
tp298
Rp299
(dp300
ba(lp301
g171
(g237
g67
tp302
Rp303
(dp304
batp305
a((lp306
g2
(g154
g67
tp307
Rp308
(dp309
bag2
(g64
g67
tp310
Rp311
(dp312
bag171
(g76
g67
tp313
Rp314
(dp315
bag171
(g97
g67
tp316
Rp317
(dp318
bag2
(g145
g67
tp319
Rp320
(dp321
bag2
(g154
g67
tp322
Rp323
(dp324
bag2
(g163
g67
tp325
Rp326
(dp327
bag2
(g151
g67
tp328
Rp329
(dp330
bag171
(g176
g67
tp331
Rp332
(dp333
bag171
(g206
g67
tp334
Rp335
(dp336
ba(lp337
g171
(g237
g67
tp338
Rp339
(dp340
batp341
a((lp342
g171
(g12
g67
tp343
Rp344
(dp345
bag2
(g64
g67
tp346
Rp347
(dp348
bag171
(g76
g67
tp349
Rp350
(dp351
bag171
(g97
g67
tp352
Rp353
(dp354
bag2
(g145
g67
tp355
Rp356
(dp357
bag2
(g154
g67
tp358
Rp359
(dp360
bag2
(g163
g67
tp361
Rp362
(dp363
bag2
(g151
g67
tp364
Rp365
(dp366
bag171
(g176
g67
tp367
Rp368
(dp369
bag171
(g206
g67
tp370
Rp371
(dp372
ba(lp373
g171
(g237
g67
tp374
Rp375
(dp376
batp377
a((lp378
g171
(g176
g67
tp379
Rp380
(dp381
bag171
(g12
g67
tp382
Rp383
(dp384
bag2
(g64
g67
tp385
Rp386
(dp387
bag171
(g76
g67
tp388
Rp389
(dp390
bag171
(g97
g67
tp391
Rp392
(dp393
bag2
(g145
g67
tp394
Rp395
(dp396
bag2
(g154
g67
tp397
Rp398
(dp399
bag2
(g163
g67
tp400
Rp401
(dp402
bag2
(g151
g67
tp403
Rp404
(dp405
bag171
(g176
g67
tp406
Rp407
(dp408
bag171
(g206
g67
tp409
Rp410
(dp411
ba(lp412
g171
(g237
g67
tp413
Rp414
(dp415
batp416
a((lp417
g2
(g176
g67
tp418
Rp419
(dp420
bag2
(g12
g67
tp421
Rp422
(dp423
bag2
(g64
g67
tp424
Rp425
(dp426
bag171
(g76
g67
tp427
Rp428
(dp429
bag171
(g97
g67
tp430
Rp431
(dp432
bag2
(g145
g67
tp433
Rp434
(dp435
bag2
(g154
g67
tp436
Rp437
(dp438
bag2
(g163
g67
tp439
Rp440
(dp441
bag2
(g151
g67
tp442
Rp443
(dp444
bag171
(g176
g67
tp445
Rp446
(dp447
bag171
(g206
g67
tp448
Rp449
(dp450
ba(lp451
g171
(g237
g67
tp452
Rp453
(dp454
batp455
a((lp456
g2
(g12
g67
tp457
Rp458
(dp459
bag171
(g3
(g124
g8
(g4
(I-1
I3628800
tp460
Rp461
(dp462
bg43
(g12
g44
(I10
tp463
Rp464
(dp465
btp466
Rp467
(dp468
btp469
Rp470
(dp471
bg8
(g4
(I-1
I720
tp472
Rp473
(dp474
bg43
(g12
g124
tp475
Rp476
(dp477
btp478
Rp479
(dp480
bg8
(g4
(I1
I24
tp481
Rp482
(dp483
bg118
tp484
Rp485
(dp486
bg8
(g44
(I-4
tp487
Rp488
(dp489
bg49
tp490
Rp491
(dp492
bg8
(g112
g58
tp493
Rp494
(dp495
bg8
(g4
(I1
I479001600
tp496
Rp497
(dp498
bg43
(g12
g44
(I12
tp499
Rp500
(dp501
btp502
Rp503
(dp504
btp505
Rp506
(dp507
bg8
(g4
(I1
I40320
tp508
Rp509
(dp510
bg43
(g12
g44
(I8
tp511
Rp512
(dp513
btp514
Rp515
(dp516
btp517
Rp518
(dp519
bg8
(g4
(I5
I2
tp520
Rp521
(dp522
bg12
tp523
Rp524
(dp525
btp526
Rp527
(dp528
bg67
tp529
Rp530
(dp531
bag2
(g64
g67
tp532
Rp533
(dp534
bag171
(g76
g67
tp535
Rp536
(dp537
bag171
(g97
g67
tp538
Rp539
(dp540
bag2
(g145
g67
tp541
Rp542
(dp543
bag2
(g154
g67
tp544
Rp545
(dp546
bag2
(g163
g67
tp547
Rp548
(dp549
bag2
(g151
g67
tp550
Rp551
(dp552
bag171
(g176
g67
tp553
Rp554
(dp555
bag171
(g206
g67
tp556
Rp557
(dp558
ba(lp559
g171
(g237
g67
tp560
Rp561
(dp562
batp563
a((lp564
g2
(g12
g67
tp565
Rp566
(dp567
bag171
(g3
(g124
g485
g491
g494
g524
tp568
Rp569
(dp570
bg67
tp571
Rp572
(dp573
bag2
(g64
g67
tp574
Rp575
(dp576
bag171
(g76
g67
tp577
Rp578
(dp579
bag171
(g97
g67
tp580
Rp581
(dp582
bag2
(g145
g67
tp583
Rp584
(dp585
bag2
(g154
g67
tp586
Rp587
(dp588
bag2
(g163
g67
tp589
Rp590
(dp591
bag2
(g151
g67
tp592
Rp593
(dp594
bag171
(g176
g67
tp595
Rp596
(dp597
bag171
(g206
g67
tp598
Rp599
(dp600
ba(lp601
g171
(g237
g67
tp602
Rp603
(dp604
batp605
a((lp606
g171
(g12
g67
tp607
Rp608
(dp609
bag2
(g64
g67
tp610
Rp611
(dp612
bag171
(g76
g67
tp613
Rp614
(dp615
bag171
(g97
g67
tp616
Rp617
(dp618
bag2
(g145
g67
tp619
Rp620
(dp621
bag2
(g154
g67
tp622
Rp623
(dp624
bag2
(g163
g67
tp625
Rp626
(dp627
bag2
(g151
g67
tp628
Rp629
(dp630
bag171
(g176
g67
tp631
Rp632
(dp633
bag171
(g206
g67
tp634
Rp635
(dp636
ba(lp637
g171
(g237
g67
tp638
Rp639
(dp640
batp641
a((lp642
g171
(g12
g67
tp643
Rp644
(dp645
bag171
(g12
g67
tp646
Rp647
(dp648
bag2
(g64
g67
tp649
Rp650
(dp651
bag171
(g76
g67
tp652
Rp653
(dp654
bag171
(g97
g67
tp655
Rp656
(dp657
bag2
(g145
g67
tp658
Rp659
(dp660
bag2
(g154
g67
tp661
Rp662
(dp663
bag2
(g163
g67
tp664
Rp665
(dp666
bag2
(g151
g67
tp667
Rp668
(dp669
bag171
(g176
g67
tp670
Rp671
(dp672
bag171
(g206
g67
tp673
Rp674
(dp675
ba(lp676
g171
(g237
g67
tp677
Rp678
(dp679
batp680
a((lp681
g2
(g154
g67
tp682
Rp683
(dp684
bag171
(g12
g67
tp685
Rp686
(dp687
bag2
(g64
g67
tp688
Rp689
(dp690
bag171
(g76
g67
tp691
Rp692
(dp693
bag171
(g97
g67
tp694
Rp695
(dp696
bag2
(g145
g67
tp697
Rp698
(dp699
bag2
(g154
g67
tp700
Rp701
(dp702
bag2
(g163
g67
tp703
Rp704
(dp705
bag2
(g151
g67
tp706
Rp707
(dp708
bag171
(g176
g67
tp709
Rp710
(dp711
bag171
(g206
g67
tp712
Rp713
(dp714
ba(lp715
g171
(g237
g67
tp716
Rp717
(dp718
batp719
a((lp720
g171
(g3
(g124
g470
g479
g8
(g260
g118
tp721
Rp722
(dp723
bg491
g8
(g4
(I-11
I12
tp724
Rp725
(dp726
bg58
tp727
Rp728
(dp729
bg506
g518
g524
tp730
Rp731
(dp732
bg67
tp733
Rp734
(dp735
bag171
(g12
g67
tp736
Rp737
(dp738
bag2
(g64
g67
tp739
Rp740
(dp741
bag171
(g76
g67
tp742
Rp743
(dp744
bag171
(g97
g67
tp745
Rp746
(dp747
bag2
(g145
g67
tp748
Rp749
(dp750
bag2
(g154
g67
tp751
Rp752
(dp753
bag2
(g163
g67
tp754
Rp755
(dp756
bag2
(g151
g67
tp757
Rp758
(dp759
bag171
(g176
g67
tp760
Rp761
(dp762
bag171
(g206
g67
tp763
Rp764
(dp765
ba(lp766
g171
(g237
g67
tp767
Rp768
(dp769
batp770
a((lp771
g171
(g3
(g124
g722
g491
g728
g524
tp772
Rp773
(dp774
bg67
tp775
Rp776
(dp777
bag171
(g12
g67
tp778
Rp779
(dp780
bag2
(g64
g67
tp781
Rp782
(dp783
bag171
(g76
g67
tp784
Rp785
(dp786
bag171
(g97
g67
tp787
Rp788
(dp789
bag2
(g145
g67
tp790
Rp791
(dp792
bag2
(g154
g67
tp793
Rp794
(dp795
bag2
(g163
g67
tp796
Rp797
(dp798
bag2
(g151
g67
tp799
Rp800
(dp801
bag171
(g176
g67
tp802
Rp803
(dp804
bag171
(g206
g67
tp805
Rp806
(dp807
ba(lp808
g171
(g237
g67
tp809
Rp810
(dp811
batp812
a((lp813
g171
(g773
g67
tp814
Rp815
(dp816
bag171
(g12
g67
tp817
Rp818
(dp819
bag2
(g64
g67
tp820
Rp821
(dp822
bag171
(g76
g67
tp823
Rp824
(dp825
bag171
(g97
g67
tp826
Rp827
(dp828
bag2
(g145
g67
tp829
Rp830
(dp831
bag2
(g154
g67
tp832
Rp833
(dp834
bag2
(g163
g67
tp835
Rp836
(dp837
bag2
(g151
g67
tp838
Rp839
(dp840
bag171
(g176
g67
tp841
Rp842
(dp843
bag171
(g206
g67
tp844
Rp845
(dp846
ba(lp847
g171
(g237
g67
tp848
Rp849
(dp850
batp851
a((lp852
g171
(g731
g67
tp853
Rp854
(dp855
bag171
(g773
g67
tp856
Rp857
(dp858
bag171
(g12
g67
tp859
Rp860
(dp861
bag2
(g64
g67
tp862
Rp863
(dp864
bag171
(g76
g67
tp865
Rp866
(dp867
bag171
(g97
g67
tp868
Rp869
(dp870
bag2
(g145
g67
tp871
Rp872
(dp873
bag2
(g154
g67
tp874
Rp875
(dp876
bag2
(g163
g67
tp877
Rp878
(dp879
bag2
(g151
g67
tp880
Rp881
(dp882
bag171
(g176
g67
tp883
Rp884
(dp885
bag171
(g206
g67
tp886
Rp887
(dp888
ba(lp889
g171
(g237
g67
tp890
Rp891
(dp892
batp893
a((lp894
g2
(g76
g67
tp895
Rp896
(dp897
bag171
(g731
g67
tp898
Rp899
(dp900
bag171
(g773
g67
tp901
Rp902
(dp903
bag171
(g12
g67
tp904
Rp905
(dp906
bag2
(g64
g67
tp907
Rp908
(dp909
bag171
(g76
g67
tp910
Rp911
(dp912
bag171
(g97
g67
tp913
Rp914
(dp915
bag2
(g145
g67
tp916
Rp917
(dp918
bag2
(g154
g67
tp919
Rp920
(dp921
bag2
(g163
g67
tp922
Rp923
(dp924
bag2
(g151
g67
tp925
Rp926
(dp927
bag171
(g176
g67
tp928
Rp929
(dp930
bag171
(g206
g67
tp931
Rp932
(dp933
ba(lp934
g171
(g237
g67
tp935
Rp936
(dp937
batp938
a((lp939
g2
(g154
g67
tp940
Rp941
(dp942
bag171
(g731
g67
tp943
Rp944
(dp945
bag171
(g773
g67
tp946
Rp947
(dp948
bag171
(g12
g67
tp949
Rp950
(dp951
bag2
(g64
g67
tp952
Rp953
(dp954
bag171
(g76
g67
tp955
Rp956
(dp957
bag171
(g97
g67
tp958
Rp959
(dp960
bag2
(g145
g67
tp961
Rp962
(dp963
bag2
(g154
g67
tp964
Rp965
(dp966
bag2
(g163
g67
tp967
Rp968
(dp969
bag2
(g151
g67
tp970
Rp971
(dp972
bag171
(g176
g67
tp973
Rp974
(dp975
bag171
(g206
g67
tp976
Rp977
(dp978
ba(lp979
g171
(g237
g67
tp980
Rp981
(dp982
batp983
a((lp984
g2
(g3
(g231
g8
(g4
(I1
I720
tp985
Rp986
(dp987
bg476
tp988
Rp989
(dp990
bg8
(g115
g49
tp991
Rp992
(dp993
bg8
(g4
(I11
I12
tp994
Rp995
(dp996
bg58
tp997
Rp998
(dp999
bg8
(g4
(I-1
I479001600
tp1000
Rp1001
(dp1002
bg503
tp1003
Rp1004
(dp1005
bg8
(g4
(I-1
I8
tp1006
Rp1007
(dp1008
bg118
tp1009
Rp1010
(dp1011
bg8
(g4
(I-5
I2
tp1012
Rp1013
(dp1014
bg12
tp1015
Rp1016
(dp1017
bg8
(g4
(I1
I3628800
tp1018
Rp1019
(dp1020
bg467
tp1021
Rp1022
(dp1023
bg8
(g4
(I-1
I40320
tp1024
Rp1025
(dp1026
bg515
tp1027
Rp1028
(dp1029
btp1030
Rp1031
(dp1032
bg67
tp1033
Rp1034
(dp1035
bag171
(g731
g67
tp1036
Rp1037
(dp1038
bag171
(g773
g67
tp1039
Rp1040
(dp1041
bag171
(g12
g67
tp1042
Rp1043
(dp1044
bag2
(g64
g67
tp1045
Rp1046
(dp1047
bag171
(g76
g67
tp1048
Rp1049
(dp1050
bag171
(g97
g67
tp1051
Rp1052
(dp1053
bag2
(g145
g67
tp1054
Rp1055
(dp1056
bag2
(g154
g67
tp1057
Rp1058
(dp1059
bag2
(g163
g67
tp1060
Rp1061
(dp1062
bag2
(g151
g67
tp1063
Rp1064
(dp1065
bag171
(g176
g67
tp1066
Rp1067
(dp1068
bag171
(g206
g67
tp1069
Rp1070
(dp1071
ba(lp1072
g171
(g237
g67
tp1073
Rp1074
(dp1075
batp1076
a((lp1077
g2
(g3
(g231
g992
g998
g1010
g1016
tp1078
Rp1079
(dp1080
bg67
tp1081
Rp1082
(dp1083
bag171
(g731
g67
tp1084
Rp1085
(dp1086
bag171
(g773
g67
tp1087
Rp1088
(dp1089
bag171
(g12
g67
tp1090
Rp1091
(dp1092
bag2
(g64
g67
tp1093
Rp1094
(dp1095
bag171
(g76
g67
tp1096
Rp1097
(dp1098
bag171
(g97
g67
tp1099
Rp1100
(dp1101
bag2
(g145
g67
tp1102
Rp1103
(dp1104
bag2
(g154
g67
tp1105
Rp1106
(dp1107
bag2
(g163
g67
tp1108
Rp1109
(dp1110
bag2
(g151
g67
tp1111
Rp1112
(dp1113
bag171
(g176
g67
tp1114
Rp1115
(dp1116
bag171
(g206
g67
tp1117
Rp1118
(dp1119
ba(lp1120
g171
(g237
g67
tp1121
Rp1122
(dp1123
batp1124
a((lp1125
g2
(g1079
g67
tp1126
Rp1127
(dp1128
bag171
(g731
g67
tp1129
Rp1130
(dp1131
bag171
(g773
g67
tp1132
Rp1133
(dp1134
bag171
(g12
g67
tp1135
Rp1136
(dp1137
bag2
(g64
g67
tp1138
Rp1139
(dp1140
bag171
(g76
g67
tp1141
Rp1142
(dp1143
bag171
(g97
g67
tp1144
Rp1145
(dp1146
bag2
(g145
g67
tp1147
Rp1148
(dp1149
bag2
(g154
g67
tp1150
Rp1151
(dp1152
bag2
(g163
g67
tp1153
Rp1154
(dp1155
bag2
(g151
g67
tp1156
Rp1157
(dp1158
bag171
(g176
g67
tp1159
Rp1160
(dp1161
bag171
(g206
g67
tp1162
Rp1163
(dp1164
ba(lp1165
g171
(g237
g67
tp1166
Rp1167
(dp1168
batp1169
a((lp1170
g2
(g1031
g67
tp1171
Rp1172
(dp1173
bag2
(g1079
g67
tp1174
Rp1175
(dp1176
bag171
(g731
g67
tp1177
Rp1178
(dp1179
bag171
(g773
g67
tp1180
Rp1181
(dp1182
bag171
(g12
g67
tp1183
Rp1184
(dp1185
bag2
(g64
g67
tp1186
Rp1187
(dp1188
bag171
(g76
g67
tp1189
Rp1190
(dp1191
bag171
(g97
g67
tp1192
Rp1193
(dp1194
bag2
(g145
g67
tp1195
Rp1196
(dp1197
bag2
(g154
g67
tp1198
Rp1199
(dp1200
bag2
(g163
g67
tp1201
Rp1202
(dp1203
bag2
(g151
g67
tp1204
Rp1205
(dp1206
bag171
(g176
g67
tp1207
Rp1208
(dp1209
bag171
(g206
g67
tp1210
Rp1211
(dp1212
ba(lp1213
g171
(g237
g67
tp1214
Rp1215
(dp1216
batp1217
a((lp1218
g2
(g145
g67
tp1219
Rp1220
(dp1221
bag2
(g1031
g67
tp1222
Rp1223
(dp1224
bag2
(g1079
g67
tp1225
Rp1226
(dp1227
bag171
(g731
g67
tp1228
Rp1229
(dp1230
bag171
(g773
g67
tp1231
Rp1232
(dp1233
bag171
(g12
g67
tp1234
Rp1235
(dp1236
bag2
(g64
g67
tp1237
Rp1238
(dp1239
bag171
(g76
g67
tp1240
Rp1241
(dp1242
bag171
(g97
g67
tp1243
Rp1244
(dp1245
bag2
(g145
g67
tp1246
Rp1247
(dp1248
bag2
(g154
g67
tp1249
Rp1250
(dp1251
bag2
(g163
g67
tp1252
Rp1253
(dp1254
bag2
(g151
g67
tp1255
Rp1256
(dp1257
bag171
(g176
g67
tp1258
Rp1259
(dp1260
bag171
(g206
g67
tp1261
Rp1262
(dp1263
ba(lp1264
g171
(g237
g67
tp1265
Rp1266
(dp1267
batp1268
a((lp1269
g2
(g97
g67
tp1270
Rp1271
(dp1272
bag2
(g1031
g67
tp1273
Rp1274
(dp1275
bag2
(g1079
g67
tp1276
Rp1277
(dp1278
bag171
(g731
g67
tp1279
Rp1280
(dp1281
bag171
(g773
g67
tp1282
Rp1283
(dp1284
bag171
(g12
g67
tp1285
Rp1286
(dp1287
bag2
(g64
g67
tp1288
Rp1289
(dp1290
bag171
(g76
g67
tp1291
Rp1292
(dp1293
bag171
(g97
g67
tp1294
Rp1295
(dp1296
bag2
(g145
g67
tp1297
Rp1298
(dp1299
bag2
(g154
g67
tp1300
Rp1301
(dp1302
bag2
(g163
g67
tp1303
Rp1304
(dp1305
bag2
(g151
g67
tp1306
Rp1307
(dp1308
bag171
(g176
g67
tp1309
Rp1310
(dp1311
bag171
(g206
g67
tp1312
Rp1313
(dp1314
ba(lp1315
g171
(g237
g67
tp1316
Rp1317
(dp1318
batp1319
a((lp1320
g2
(g64
g67
tp1321
Rp1322
(dp1323
bag2
(g1031
g67
tp1324
Rp1325
(dp1326
bag2
(g1079
g67
tp1327
Rp1328
(dp1329
bag171
(g731
g67
tp1330
Rp1331
(dp1332
bag171
(g773
g67
tp1333
Rp1334
(dp1335
bag171
(g12
g67
tp1336
Rp1337
(dp1338
bag2
(g64
g67
tp1339
Rp1340
(dp1341
bag171
(g76
g67
tp1342
Rp1343
(dp1344
bag171
(g97
g67
tp1345
Rp1346
(dp1347
bag2
(g145
g67
tp1348
Rp1349
(dp1350
bag2
(g154
g67
tp1351
Rp1352
(dp1353
bag2
(g163
g67
tp1354
Rp1355
(dp1356
bag2
(g151
g67
tp1357
Rp1358
(dp1359
bag171
(g176
g67
tp1360
Rp1361
(dp1362
bag171
(g206
g67
tp1363
Rp1364
(dp1365
ba(lp1366
g171
(g237
g67
tp1367
Rp1368
(dp1369
batp1370
a((lp1371
g2
(g3
(g248
g8
(g4
(I1
I12
tp1372
Rp1373
(dp1374
bg188
tp1375
Rp1376
(dp1377
bg257
g8
(g725
g118
tp1378
Rp1379
(dp1380
bg8
(g4
(I23
I4
tp1381
Rp1382
(dp1383
bg49
tp1384
Rp1385
(dp1386
bg8
(g82
g58
tp1387
Rp1388
(dp1389
btp1390
Rp1391
(dp1392
bg67
tp1393
Rp1394
(dp1395
bag171
(g97
g67
tp1396
Rp1397
(dp1398
bag2
(g1031
g67
tp1399
Rp1400
(dp1401
bag2
(g1079
g67
tp1402
Rp1403
(dp1404
bag171
(g731
g67
tp1405
Rp1406
(dp1407
bag171
(g773
g67
tp1408
Rp1409
(dp1410
bag171
(g12
g67
tp1411
Rp1412
(dp1413
bag2
(g64
g67
tp1414
Rp1415
(dp1416
bag171
(g76
g67
tp1417
Rp1418
(dp1419
bag171
(g97
g67
tp1420
Rp1421
(dp1422
bag2
(g145
g67
tp1423
Rp1424
(dp1425
bag2
(g154
g67
tp1426
Rp1427
(dp1428
bag2
(g163
g67
tp1429
Rp1430
(dp1431
bag2
(g151
g67
tp1432
Rp1433
(dp1434
bag171
(g176
g67
tp1435
Rp1436
(dp1437
bag171
(g206
g67
tp1438
Rp1439
(dp1440
ba(lp1441
g171
(g237
g67
tp1442
Rp1443
(dp1444
batp1445
a((lp1446
g2
(g97
g67
tp1447
Rp1448
(dp1449
bag2
(g237
g67
tp1450
Rp1451
(dp1452
bag171
(g206
g67
tp1453
Rp1454
(dp1455
bag171
(g176
g67
tp1456
Rp1457
(dp1458
bag2
(g151
g67
tp1459
Rp1460
(dp1461
bag2
(g163
g67
tp1462
Rp1463
(dp1464
bag2
(g154
g67
tp1465
Rp1466
(dp1467
bag2
(g145
g67
tp1468
Rp1469
(dp1470
bag171
(g97
g67
tp1471
Rp1472
(dp1473
bag171
(g76
g67
tp1474
Rp1475
(dp1476
bag2
(g64
g67
tp1477
Rp1478
(dp1479
bag171
(g12
g67
tp1480
Rp1481
(dp1482
bag171
(g773
g67
tp1483
Rp1484
(dp1485
ba(lp1486
g2
(g731
g67
tp1487
Rp1488
(dp1489
batp1490
a((lp1491
g2
(g64
g67
tp1492
Rp1493
(dp1494
bag2
(g237
g67
tp1495
Rp1496
(dp1497
bag171
(g206
g67
tp1498
Rp1499
(dp1500
bag171
(g176
g67
tp1501
Rp1502
(dp1503
bag2
(g151
g67
tp1504
Rp1505
(dp1506
bag2
(g163
g67
tp1507
Rp1508
(dp1509
bag2
(g154
g67
tp1510
Rp1511
(dp1512
bag2
(g145
g67
tp1513
Rp1514
(dp1515
bag171
(g97
g67
tp1516
Rp1517
(dp1518
bag171
(g76
g67
tp1519
Rp1520
(dp1521
bag2
(g64
g67
tp1522
Rp1523
(dp1524
bag171
(g12
g67
tp1525
Rp1526
(dp1527
bag171
(g773
g67
tp1528
Rp1529
(dp1530
ba(lp1531
g2
(g731
g67
tp1532
Rp1533
(dp1534
batp1535
a((lp1536
g2
(g1391
g67
tp1537
Rp1538
(dp1539
bag171
(g97
g67
tp1540
Rp1541
(dp1542
bag2
(g237
g67
tp1543
Rp1544
(dp1545
bag171
(g206
g67
tp1546
Rp1547
(dp1548
bag171
(g176
g67
tp1549
Rp1550
(dp1551
bag2
(g151
g67
tp1552
Rp1553
(dp1554
bag2
(g163
g67
tp1555
Rp1556
(dp1557
bag2
(g154
g67
tp1558
Rp1559
(dp1560
bag2
(g145
g67
tp1561
Rp1562
(dp1563
bag171
(g97
g67
tp1564
Rp1565
(dp1566
bag171
(g76
g67
tp1567
Rp1568
(dp1569
bag2
(g64
g67
tp1570
Rp1571
(dp1572
bag171
(g12
g67
tp1573
Rp1574
(dp1575
bag171
(g773
g67
tp1576
Rp1577
(dp1578
ba(lp1579
g2
(g731
g67
tp1580
Rp1581
(dp1582
batp1583
a((lp1584
g2
(g64
g67
tp1585
Rp1586
(dp1587
bag2
(g3
(g213
g219
g225
g228
g8
(g4
(I-13
I2
tp1588
Rp1589
(dp1590
bg12
tp1591
Rp1592
(dp1593
bg61
tp1594
Rp1595
(dp1596
bg67
tp1597
Rp1598
(dp1599
bag171
(g3
(g182
g191
g8
(g4
(I13
I2
tp1600
Rp1601
(dp1602
bg12
tp1603
Rp1604
(dp1605
bg91
g194
g203
tp1606
Rp1607
(dp1608
bg67
tp1609
Rp1610
(dp1611
bag2
(g154
g67
tp1612
Rp1613
(dp1614
bag171
(g176
g67
tp1615
Rp1616
(dp1617
bag2
(g163
g67
tp1618
Rp1619
(dp1620
bag2
(g151
g67
tp1621
Rp1622
(dp1623
bag2
(g3
(g231
g58
g992
g8
(g4
(I-1
I24
tp1624
Rp1625
(dp1626
bg118
tp1627
Rp1628
(dp1629
bg1016
tp1630
Rp1631
(dp1632
bg67
tp1633
Rp1634
(dp1635
bag2
(g3
(g231
g989
g58
g992
g1628
g1004
g1016
g1022
g1028
tp1636
Rp1637
(dp1638
bg67
tp1639
Rp1640
(dp1641
bag2
(g1079
g67
tp1642
Rp1643
(dp1644
ba(lp1645
g171
(g1031
g67
tp1646
Rp1647
(dp1648
batp1649
a((lp1650
g2
(g97
g67
tp1651
Rp1652
(dp1653
bag2
(g1595
g67
tp1654
Rp1655
(dp1656
bag171
(g1607
g67
tp1657
Rp1658
(dp1659
bag2
(g154
g67
tp1660
Rp1661
(dp1662
bag171
(g176
g67
tp1663
Rp1664
(dp1665
bag2
(g163
g67
tp1666
Rp1667
(dp1668
bag2
(g151
g67
tp1669
Rp1670
(dp1671
bag2
(g1631
g67
tp1672
Rp1673
(dp1674
bag2
(g1637
g67
tp1675
Rp1676
(dp1677
bag2
(g1079
g67
tp1678
Rp1679
(dp1680
ba(lp1681
g171
(g1031
g67
tp1682
Rp1683
(dp1684
batp1685
a((lp1686
g2
(g64
g67
tp1687
Rp1688
(dp1689
bag2
(g97
g67
tp1690
Rp1691
(dp1692
bag2
(g3
(g103
g8
(g4
(I-3
I2
tp1693
Rp1694
(dp1695
bg118
tp1696
Rp1697
(dp1698
bg494
g8
(g500
g12
tp1699
Rp1700
(dp1701
bg8
(g4
(I15
I2
tp1702
Rp1703
(dp1704
bg49
tp1705
Rp1706
(dp1707
btp1708
Rp1709
(dp1710
bg67
tp1711
Rp1712
(dp1713
bag2
(g1595
g67
tp1714
Rp1715
(dp1716
bag171
(g1607
g67
tp1717
Rp1718
(dp1719
bag2
(g154
g67
tp1720
Rp1721
(dp1722
bag171
(g176
g67
tp1723
Rp1724
(dp1725
bag2
(g163
g67
tp1726
Rp1727
(dp1728
bag2
(g151
g67
tp1729
Rp1730
(dp1731
bag2
(g1631
g67
tp1732
Rp1733
(dp1734
bag2
(g1637
g67
tp1735
Rp1736
(dp1737
bag2
(g1079
g67
tp1738
Rp1739
(dp1740
ba(lp1741
g171
(g1031
g67
tp1742
Rp1743
(dp1744
batp1745
a((lp1746
g2
(g97
g67
tp1747
Rp1748
(dp1749
bag171
(g64
g67
tp1750
Rp1751
(dp1752
bag2
(g1595
g67
tp1753
Rp1754
(dp1755
bag171
(g1607
g67
tp1756
Rp1757
(dp1758
bag2
(g154
g67
tp1759
Rp1760
(dp1761
bag171
(g176
g67
tp1762
Rp1763
(dp1764
bag2
(g163
g67
tp1765
Rp1766
(dp1767
bag2
(g151
g67
tp1768
Rp1769
(dp1770
bag2
(g1631
g67
tp1771
Rp1772
(dp1773
bag2
(g1637
g67
tp1774
Rp1775
(dp1776
bag2
(g1079
g67
tp1777
Rp1778
(dp1779
ba(lp1780
g171
(g1031
g67
tp1781
Rp1782
(dp1783
batp1784
a((lp1785
g171
(g97
g67
tp1786
Rp1787
(dp1788
bag2
(g1595
g67
tp1789
Rp1790
(dp1791
bag171
(g1607
g67
tp1792
Rp1793
(dp1794
bag2
(g154
g67
tp1795
Rp1796
(dp1797
bag171
(g176
g67
tp1798
Rp1799
(dp1800
bag2
(g163
g67
tp1801
Rp1802
(dp1803
bag2
(g151
g67
tp1804
Rp1805
(dp1806
bag2
(g1631
g67
tp1807
Rp1808
(dp1809
bag2
(g1637
g67
tp1810
Rp1811
(dp1812
bag2
(g1079
g67
tp1813
Rp1814
(dp1815
ba(lp1816
g171
(g1031
g67
tp1817
Rp1818
(dp1819
batp1820
a((lp1821
g171
(g97
g67
tp1822
Rp1823
(dp1824
bag2
(g1595
g67
tp1825
Rp1826
(dp1827
bag171
(g1607
g67
tp1828
Rp1829
(dp1830
bag2
(g154
g67
tp1831
Rp1832
(dp1833
bag171
(g176
g67
tp1834
Rp1835
(dp1836
bag2
(g163
g67
tp1837
Rp1838
(dp1839
bag2
(g151
g67
tp1840
Rp1841
(dp1842
bag2
(g1631
g67
tp1843
Rp1844
(dp1845
bag2
(g1637
g67
tp1846
Rp1847
(dp1848
bag2
(g1079
g67
tp1849
Rp1850
(dp1851
ba(lp1852
g171
(g1031
g67
tp1853
Rp1854
(dp1855
batp1856
a((lp1857
g2
(g64
g67
tp1858
Rp1859
(dp1860
bag171
(g97
g67
tp1861
Rp1862
(dp1863
bag2
(g1595
g67
tp1864
Rp1865
(dp1866
bag171
(g1607
g67
tp1867
Rp1868
(dp1869
bag2
(g154
g67
tp1870
Rp1871
(dp1872
bag171
(g176
g67
tp1873
Rp1874
(dp1875
bag2
(g163
g67
tp1876
Rp1877
(dp1878
bag2
(g151
g67
tp1879
Rp1880
(dp1881
bag2
(g1631
g67
tp1882
Rp1883
(dp1884
bag2
(g1637
g67
tp1885
Rp1886
(dp1887
bag2
(g1079
g67
tp1888
Rp1889
(dp1890
ba(lp1891
g171
(g1031
g67
tp1892
Rp1893
(dp1894
batp1895
a((lp1896
g2
(g3
(g248
g8
(g4
(I-11
I8
tp1897
Rp1898
(dp1899
bg118
tp1900
Rp1901
(dp1902
bg8
(g44
(I7
tp1903
Rp1904
(dp1905
bg49
tp1906
Rp1907
(dp1908
bg8
(g1694
g58
tp1909
Rp1910
(dp1911
bg8
(g4
(I25
I2
tp1912
Rp1913
(dp1914
bg12
tp1915
Rp1916
(dp1917
bg263
tp1918
Rp1919
(dp1920
bg67
tp1921
Rp1922
(dp1923
bag171
(g97
g67
tp1924
Rp1925
(dp1926
bag171
(g97
g67
tp1927
Rp1928
(dp1929
bag2
(g1595
g67
tp1930
Rp1931
(dp1932
bag171
(g1607
g67
tp1933
Rp1934
(dp1935
bag2
(g154
g67
tp1936
Rp1937
(dp1938
bag171
(g176
g67
tp1939
Rp1940
(dp1941
bag2
(g163
g67
tp1942
Rp1943
(dp1944
bag2
(g151
g67
tp1945
Rp1946
(dp1947
bag2
(g1631
g67
tp1948
Rp1949
(dp1950
bag2
(g1637
g67
tp1951
Rp1952
(dp1953
bag2
(g1079
g67
tp1954
Rp1955
(dp1956
ba(lp1957
g171
(g1031
g67
tp1958
Rp1959
(dp1960
batp1961
a.