(lp0
((lp1
csympy.core.relational
LessThan
p2
(csympy.core.add
Add
p3
(csympy.core.numbers
Integer
p4
(I-4
tp5
Rp6
(dp7
bcsympy.core.mul
Mul
p8
(g4
(I-2
tp9
Rp10
(dp11
bcsympy.core.symbol
Symbol
p12
(S'x'
p13
tp14
Rp15
(dp16
S'_assumptions'
p17
ccopy_reg
_reconstructor
p18
(csympy.core.assumptions
StdFactKB
p19
c__builtin__
dict
p20
(dp21
S'real'
p22
NsS'irrational'
p23
NsS'antihermitian'
p24
NsS'nonpositive'
p25
NsS'unbounded'
p26
NsS'negative'
p27
NsS'hermitian'
p28
NsS'bounded'
p29
NsS'integer'
p30
NsS'imaginary'
p31
NsS'odd'
p32
NsS'even'
p33
NsS'commutative'
p34
I01
sS'positive'
p35
NsS'zero'
p36
NsS'nonnegative'
p37
NsS'rational'
p38
Nstp39
Rp40
sbtp41
Rp42
(dp43
btp44
Rp45
(dp46
bcsympy.core.numbers
Zero
p47
(tRp48
(dp49
btp50
Rp51
(dp52
bag2
(g3
(g4
(I4
tp53
Rp54
(dp55
bg8
(g4
(I2
tp56
Rp57
(dp58
bg15
tp59
Rp60
(dp61
btp62
Rp63
(dp64
bg48
tp65
Rp66
(dp67
bacsympy.core.relational
StrictGreaterThan
p68
(g3
(csympy.core.numbers
Rational
p69
(I-1
I5
tp70
Rp71
(dp72
bg8
(g69
(I-1
I10
tp73
Rp74
(dp75
bg15
tp76
Rp77
(dp78
btp79
Rp80
(dp81
bg48
tp82
Rp83
(dp84
bacsympy.core.relational
Equality
p85
(g3
(csympy.core.numbers
NegativeOne
p86
(tRp87
(dp88
bcsympy.core.power
Pow
p89
(g15
g57
tp90
Rp91
(dp92
bg15
tp93
Rp94
(dp95
bg48
tp96
Rp97
(dp98
bag85
(g3
(g87
g91
g8
(g87
g15
tp99
Rp100
(dp101
btp102
Rp103
(dp104
bg48
tp105
Rp106
(dp107
bag85
(g3
(g10
g91
tp108
Rp109
(dp110
bg48
tp111
Rp112
(dp113
bag68
(g15
g48
tp114
Rp115
(dp116
bag68
(g15
g48
tp117
Rp118
(dp119
bag68
(g15
g48
tp120
Rp121
(dp122
bag68
(g15
g48
tp123
Rp124
(dp125
ba(lp126
g2
(g3
(csympy.core.numbers
One
p127
(tRp128
(dp129
bg100
tp130
Rp131
(dp132
bg48
tp133
Rp134
(dp135
batp136
a((lp137
g2
(g45
g48
tp138
Rp139
(dp140
bag68
(g63
g48
tp141
Rp142
(dp143
bag68
(g63
g48
tp144
Rp145
(dp146
bag85
(g94
g48
tp147
Rp148
(dp149
bag85
(g103
g48
tp150
Rp151
(dp152
bag85
(g109
g48
tp153
Rp154
(dp155
bag68
(g15
g48
tp156
Rp157
(dp158
bag68
(g15
g48
tp159
Rp160
(dp161
bag68
(g15
g48
tp162
Rp163
(dp164
bag68
(g15
g48
tp165
Rp166
(dp167
ba(lp168
g2
(g131
g48
tp169
Rp170
(dp171
batp172
a((lp173
g2
(g100
g48
tp174
Rp175
(dp176
bag2
(g45
g48
tp177
Rp178
(dp179
bag68
(g63
g48
tp180
Rp181
(dp182
bag85
(g94
g48
tp183
Rp184
(dp185
bag85
(g103
g48
tp186
Rp187
(dp188
bag85
(g109
g48
tp189
Rp190
(dp191
bag68
(g15
g48
tp192
Rp193
(dp194
bag68
(g15
g48
tp195
Rp196
(dp197
bag68
(g15
g48
tp198
Rp199
(dp200
bag68
(g15
g48
tp201
Rp202
(dp203
ba(lp204
g2
(g131
g48
tp205
Rp206
(dp207
batp208
a((lp209
g2
(g3
(g69
(I1
I5
tp210
Rp211
(dp212
bg8
(g69
(I1
I10
tp213
Rp214
(dp215
bg15
tp216
Rp217
(dp218
btp219
Rp220
(dp221
bg48
tp222
Rp223
(dp224
bag2
(g3
(g8
(g54
g15
tp225
Rp226
(dp227
bg8
(g57
g91
tp228
Rp229
(dp230
btp231
Rp232
(dp233
bg48
tp234
Rp235
(dp236
bag68
(g80
g48
tp237
Rp238
(dp239
bag68
(g63
g48
tp240
Rp241
(dp242
bag85
(g94
g48
tp243
Rp244
(dp245
bag85
(g103
g48
tp246
Rp247
(dp248
bag85
(g109
g48
tp249
Rp250
(dp251
bag68
(g15
g48
tp252
Rp253
(dp254
bag68
(g15
g48
tp255
Rp256
(dp257
bag68
(g15
g48
tp258
Rp259
(dp260
bag68
(g15
g48
tp261
Rp262
(dp263
ba(lp264
g2
(g131
g48
tp265
Rp266
(dp267
batp268
a((lp269
g2
(g232
g48
tp270
Rp271
(dp272
bag68
(g220
g48
tp273
Rp274
(dp275
bag68
(g63
g48
tp276
Rp277
(dp278
bag85
(g94
g48
tp279
Rp280
(dp281
bag85
(g103
g48
tp282
Rp283
(dp284
bag85
(g109
g48
tp285
Rp286
(dp287
bag68
(g15
g48
tp288
Rp289
(dp290
bag68
(g15
g48
tp291
Rp292
(dp293
bag68
(g15
g48
tp294
Rp295
(dp296
bag68
(g15
g48
tp297
Rp298
(dp299
ba(lp300
g2
(g131
g48
tp301
Rp302
(dp303
batp304
a((lp305
g68
(g91
g48
tp306
Rp307
(dp308
bag68
(g232
g48
tp309
Rp310
(dp311
bag68
(g63
g48
tp312
Rp313
(dp314
bag85
(g94
g48
tp315
Rp316
(dp317
bag85
(g103
g48
tp318
Rp319
(dp320
bag85
(g109
g48
tp321
Rp322
(dp323
bag68
(g15
g48
tp324
Rp325
(dp326
bag68
(g15
g48
tp327
Rp328
(dp329
bag68
(g15
g48
tp330
Rp331
(dp332
bag68
(g15
g48
tp333
Rp334
(dp335
ba(lp336
g2
(g131
g48
tp337
Rp338
(dp339
batp340
a((lp341
g2
(g80
g48
tp342
Rp343
(dp344
bag68
(g232
g48
tp345
Rp346
(dp347
bag68
(g63
g48
tp348
Rp349
(dp350
bag85
(g94
g48
tp351
Rp352
(dp353
bag85
(g103
g48
tp354
Rp355
(dp356
bag85
(g109
g48
tp357
Rp358
(dp359
bag68
(g15
g48
tp360
Rp361
(dp362
bag68
(g15
g48
tp363
Rp364
(dp365
bag68
(g15
g48
tp366
Rp367
(dp368
bag68
(g15
g48
tp369
Rp370
(dp371
ba(lp372
g2
(g131
g48
tp373
Rp374
(dp375
batp376
a((lp377
g68
(g220
g48
tp378
Rp379
(dp380
bag68
(g3
(g71
g8
(g69
(I39
I10
tp381
Rp382
(dp383
bg15
tp384
Rp385
(dp386
bg8
(g69
(I11
I5
tp387
Rp388
(dp389
bg91
tp390
Rp391
(dp392
bg8
(g214
g89
(g15
g4
(I3
tp393
Rp394
(dp395
btp396
Rp397
(dp398
btp399
Rp400
(dp401
btp402
Rp403
(dp404
bg48
tp405
Rp406
(dp407
bag68
(g232
g48
tp408
Rp409
(dp410
bag68
(g63
g48
tp411
Rp412
(dp413
bag85
(g94
g48
tp414
Rp415
(dp416
bag85
(g103
g48
tp417
Rp418
(dp419
bag85
(g109
g48
tp420
Rp421
(dp422
bag68
(g15
g48
tp423
Rp424
(dp425
bag68
(g15
g48
tp426
Rp427
(dp428
bag68
(g15
g48
tp429
Rp430
(dp431
bag68
(g15
g48
tp432
Rp433
(dp434
ba(lp435
g2
(g131
g48
tp436
Rp437
(dp438
batp439
a((lp440
g2
(g220
g48
tp441
Rp442
(dp443
bag2
(g403
g48
tp444
Rp445
(dp446
bag68
(g232
g48
tp447
Rp448
(dp449
bag68
(g63
g48
tp450
Rp451
(dp452
bag85
(g94
g48
tp453
Rp454
(dp455
bag85
(g103
g48
tp456
Rp457
(dp458
bag85
(g109
g48
tp459
Rp460
(dp461
bag68
(g15
g48
tp462
Rp463
(dp464
bag68
(g15
g48
tp465
Rp466
(dp467
bag68
(g15
g48
tp468
Rp469
(dp470
bag68
(g15
g48
tp471
Rp472
(dp473
ba(lp474
g2
(g131
g48
tp475
Rp476
(dp477
batp478
a((lp479
g2
(g80
g48
tp480
Rp481
(dp482
bag68
(g232
g48
tp483
Rp484
(dp485
bag68
(g63
g48
tp486
Rp487
(dp488
bag85
(g94
g48
tp489
Rp490
(dp491
bag85
(g103
g48
tp492
Rp493
(dp494
bag85
(g109
g48
tp495
Rp496
(dp497
bag68
(g15
g48
tp498
Rp499
(dp500
bag68
(g15
g48
tp501
Rp502
(dp503
bag68
(g15
g48
tp504
Rp505
(dp506
bag68
(g15
g48
tp507
Rp508
(dp509
ba(lp510
g2
(g131
g48
tp511
Rp512
(dp513
batp514
a((lp515
g68
(g403
g48
tp516
Rp517
(dp518
bag2
(g80
g48
tp519
Rp520
(dp521
bag68
(g232
g48
tp522
Rp523
(dp524
bag68
(g63
g48
tp525
Rp526
(dp527
bag85
(g94
g48
tp528
Rp529
(dp530
bag85
(g103
g48
tp531
Rp532
(dp533
bag85
(g109
g48
tp534
Rp535
(dp536
bag68
(g15
g48
tp537
Rp538
(dp539
bag68
(g15
g48
tp540
Rp541
(dp542
bag68
(g15
g48
tp543
Rp544
(dp545
bag68
(g15
g48
tp546
Rp547
(dp548
ba(lp549
g2
(g131
g48
tp550
Rp551
(dp552
batp553
a((lp554
g2
(g109
g48
tp555
Rp556
(dp557
bag68
(g403
g48
tp558
Rp559
(dp560
bag2
(g80
g48
tp561
Rp562
(dp563
bag68
(g232
g48
tp564
Rp565
(dp566
bag68
(g63
g48
tp567
Rp568
(dp569
bag85
(g94
g48
tp570
Rp571
(dp572
bag85
(g103
g48
tp573
Rp574
(dp575
bag85
(g109
g48
tp576
Rp577
(dp578
bag68
(g15
g48
tp579
Rp580
(dp581
bag68
(g15
g48
tp582
Rp583
(dp584
bag68
(g15
g48
tp585
Rp586
(dp587
bag68
(g15
g48
tp588
Rp589
(dp590
ba(lp591
g2
(g131
g48
tp592
Rp593
(dp594
batp595
a((lp596
g2
(g3
(g57
g8
(g87
g91
tp597
Rp598
(dp599
btp600
Rp601
(dp602
bg48
tp603
Rp604
(dp605
bag68
(g403
g48
tp606
Rp607
(dp608
bag2
(g80
g48
tp609
Rp610
(dp611
bag68
(g232
g48
tp612
Rp613
(dp614
bag68
(g63
g48
tp615
Rp616
(dp617
bag85
(g94
g48
tp618
Rp619
(dp620
bag85
(g103
g48
tp621
Rp622
(dp623
bag85
(g109
g48
tp624
Rp625
(dp626
bag68
(g15
g48
tp627
Rp628
(dp629
bag68
(g15
g48
tp630
Rp631
(dp632
bag68
(g15
g48
tp633
Rp634
(dp635
bag68
(g15
g48
tp636
Rp637
(dp638
ba(lp639
g2
(g131
g48
tp640
Rp641
(dp642
batp643
a((lp644
g2
(g80
g48
tp645
Rp646
(dp647
bag68
(g403
g48
tp648
Rp649
(dp650
bag2
(g80
g48
tp651
Rp652
(dp653
bag68
(g232
g48
tp654
Rp655
(dp656
bag68
(g63
g48
tp657
Rp658
(dp659
bag85
(g94
g48
tp660
Rp661
(dp662
bag85
(g103
g48
tp663
Rp664
(dp665
bag85
(g109
g48
tp666
Rp667
(dp668
bag68
(g15
g48
tp669
Rp670
(dp671
bag68
(g15
g48
tp672
Rp673
(dp674
bag68
(g15
g48
tp675
Rp676
(dp677
bag68
(g15
g48
tp678
Rp679
(dp680
ba(lp681
g2
(g131
g48
tp682
Rp683
(dp684
batp685
a.