(lp0
((lp1
csympy.core.relational
Equality
p2
(csympy.core.power
Pow
p3
(csympy.core.symbol
Symbol
p4
(S'x'
p5
tp6
Rp7
(dp8
S'_assumptions'
p9
ccopy_reg
_reconstructor
p10
(csympy.core.assumptions
StdFactKB
p11
c__builtin__
dict
p12
(dp13
S'real'
p14
NsS'irrational'
p15
NsS'antihermitian'
p16
NsS'nonpositive'
p17
NsS'negative'
p18
NsS'hermitian'
p19
NsS'bounded'
p20
NsS'integer'
p21
NsS'imaginary'
p22
NsS'odd'
p23
NsS'even'
p24
NsS'commutative'
p25
I01
sS'positive'
p26
NsS'zero'
p27
NsS'nonnegative'
p28
NsS'rational'
p29
Nstp30
Rp31
sbcsympy.core.numbers
Integer
p32
(I8
tp33
Rp34
(dp35
btp36
Rp37
(dp38
bcsympy.core.numbers
Zero
p39
(tRp40
(dp41
btp42
Rp43
(dp44
bacsympy.core.relational
Unequality
p45
(g3
(g7
g32
(I6
tp46
Rp47
(dp48
btp49
Rp50
(dp51
bg40
tp52
Rp53
(dp54
bag45
(g3
(g7
g32
(I4
tp55
Rp56
(dp57
btp58
Rp59
(dp60
bg40
tp61
Rp62
(dp63
bag45
(g3
(g7
g32
(I2
tp64
Rp65
(dp66
btp67
Rp68
(dp69
bg40
tp70
Rp71
(dp72
bag45
(g7
g40
tp73
Rp74
(dp75
bacsympy.core.relational
StrictGreaterThan
p76
(csympy.core.mul
Mul
p77
(g32
(I-3
tp78
Rp79
(dp80
bg68
tp81
Rp82
(dp83
bg40
tp84
Rp85
(dp86
bacsympy.core.relational
LessThan
p87
(g77
(csympy.core.numbers
NegativeOne
p88
(tRp89
(dp90
bg68
tp91
Rp92
(dp93
bg40
tp94
Rp95
(dp96
bag76
(g7
g40
tp97
Rp98
(dp99
bag87
(g77
(g89
g7
tp100
Rp101
(dp102
bg40
tp103
Rp104
(dp105
bag87
(csympy.core.add
Add
p106
(g89
g7
tp107
Rp108
(dp109
bg40
tp110
Rp111
(dp112
bag76
(g106
(csympy.core.numbers
Rational
p113
(I31415927
I10000000
tp114
Rp115
(dp116
bg101
tp117
Rp118
(dp119
bg40
tp120
Rp121
(dp122
bag76
(g106
(g113
(I-15707963
I5000000
tp123
Rp124
(dp125
bg7
tp126
Rp127
(dp128
bg40
tp129
Rp130
(dp131
bag87
(g101
g40
tp132
Rp133
(dp134
ba(lp135
g87
(g7
g40
tp136
Rp137
(dp138
batp139
a((lp140
g2
(g50
g40
tp141
Rp142
(dp143
bag45
(g59
g40
tp144
Rp145
(dp146
bag45
(g68
g40
tp147
Rp148
(dp149
bag45
(g7
g40
tp150
Rp151
(dp152
bag76
(g82
g40
tp153
Rp154
(dp155
bag87
(g92
g40
tp156
Rp157
(dp158
bag76
(g7
g40
tp159
Rp160
(dp161
bag87
(g101
g40
tp162
Rp163
(dp164
bag87
(g108
g40
tp165
Rp166
(dp167
bag76
(g118
g40
tp168
Rp169
(dp170
bag76
(g127
g40
tp171
Rp172
(dp173
bag87
(g101
g40
tp174
Rp175
(dp176
ba(lp177
g87
(g7
g40
tp178
Rp179
(dp180
batp181
a((lp182
g2
(g59
g40
tp183
Rp184
(dp185
bag45
(g68
g40
tp186
Rp187
(dp188
bag45
(g7
g40
tp189
Rp190
(dp191
bag76
(g82
g40
tp192
Rp193
(dp194
bag87
(g92
g40
tp195
Rp196
(dp197
bag76
(g7
g40
tp198
Rp199
(dp200
bag87
(g101
g40
tp201
Rp202
(dp203
bag87
(g108
g40
tp204
Rp205
(dp206
bag76
(g118
g40
tp207
Rp208
(dp209
bag76
(g127
g40
tp210
Rp211
(dp212
bag87
(g101
g40
tp213
Rp214
(dp215
ba(lp216
g87
(g7
g40
tp217
Rp218
(dp219
batp220
a((lp221
g2
(g68
g40
tp222
Rp223
(dp224
bag45
(g7
g40
tp225
Rp226
(dp227
bag76
(g82
g40
tp228
Rp229
(dp230
bag87
(g92
g40
tp231
Rp232
(dp233
bag76
(g7
g40
tp234
Rp235
(dp236
bag87
(g101
g40
tp237
Rp238
(dp239
bag87
(g108
g40
tp240
Rp241
(dp242
bag76
(g118
g40
tp243
Rp244
(dp245
bag76
(g127
g40
tp246
Rp247
(dp248
bag87
(g101
g40
tp249
Rp250
(dp251
ba(lp252
g87
(g7
g40
tp253
Rp254
(dp255
batp256
a((lp257
g87
(g92
g40
tp258
Rp259
(dp260
bag76
(g7
g40
tp261
Rp262
(dp263
bag76
(g82
g40
tp264
Rp265
(dp266
bag87
(g92
g40
tp267
Rp268
(dp269
bag76
(g7
g40
tp270
Rp271
(dp272
bag87
(g101
g40
tp273
Rp274
(dp275
bag87
(g108
g40
tp276
Rp277
(dp278
bag76
(g118
g40
tp279
Rp280
(dp281
bag76
(g127
g40
tp282
Rp283
(dp284
bag87
(g101
g40
tp285
Rp286
(dp287
ba(lp288
g87
(g7
g40
tp289
Rp290
(dp291
batp292
a((lp293
g87
(g92
g40
tp294
Rp295
(dp296
bag45
(g59
g40
tp297
Rp298
(dp299
bag45
(g68
g40
tp300
Rp301
(dp302
bag45
(g7
g40
tp303
Rp304
(dp305
bag76
(g82
g40
tp306
Rp307
(dp308
bag87
(g92
g40
tp309
Rp310
(dp311
bag76
(g7
g40
tp312
Rp313
(dp314
bag87
(g101
g40
tp315
Rp316
(dp317
bag87
(g108
g40
tp318
Rp319
(dp320
bag76
(g118
g40
tp321
Rp322
(dp323
bag76
(g127
g40
tp324
Rp325
(dp326
bag87
(g101
g40
tp327
Rp328
(dp329
ba(lp330
g87
(g7
g40
tp331
Rp332
(dp333
batp334
a((lp335
g87
(g92
g40
tp336
Rp337
(dp338
bag45
(g7
g40
tp339
Rp340
(dp341
bag76
(g82
g40
tp342
Rp343
(dp344
bag87
(g92
g40
tp345
Rp346
(dp347
bag76
(g7
g40
tp348
Rp349
(dp350
bag87
(g101
g40
tp351
Rp352
(dp353
bag87
(g108
g40
tp354
Rp355
(dp356
bag76
(g118
g40
tp357
Rp358
(dp359
bag76
(g127
g40
tp360
Rp361
(dp362
bag87
(g101
g40
tp363
Rp364
(dp365
ba(lp366
g87
(g7
g40
tp367
Rp368
(dp369
batp370
a((lp371
g87
(g92
g40
tp372
Rp373
(dp374
bag76
(g7
g40
tp375
Rp376
(dp377
bag45
(g7
g40
tp378
Rp379
(dp380
bag76
(g82
g40
tp381
Rp382
(dp383
bag87
(g92
g40
tp384
Rp385
(dp386
bag76
(g7
g40
tp387
Rp388
(dp389
bag87
(g101
g40
tp390
Rp391
(dp392
bag87
(g108
g40
tp393
Rp394
(dp395
bag76
(g118
g40
tp396
Rp397
(dp398
bag76
(g127
g40
tp399
Rp400
(dp401
bag87
(g101
g40
tp402
Rp403
(dp404
ba(lp405
g87
(g7
g40
tp406
Rp407
(dp408
batp409
a((lp410
g87
(g101
g40
tp411
Rp412
(dp413
bag45
(g7
g40
tp414
Rp415
(dp416
bag76
(g82
g40
tp417
Rp418
(dp419
bag87
(g92
g40
tp420
Rp421
(dp422
bag76
(g7
g40
tp423
Rp424
(dp425
bag87
(g101
g40
tp426
Rp427
(dp428
bag87
(g108
g40
tp429
Rp430
(dp431
bag76
(g118
g40
tp432
Rp433
(dp434
bag76
(g127
g40
tp435
Rp436
(dp437
bag87
(g101
g40
tp438
Rp439
(dp440
ba(lp441
g87
(g7
g40
tp442
Rp443
(dp444
batp445
a((lp446
g87
(g92
g40
tp447
Rp448
(dp449
bag76
(g68
g40
tp450
Rp451
(dp452
bag45
(g7
g40
tp453
Rp454
(dp455
bag76
(g82
g40
tp456
Rp457
(dp458
bag87
(g92
g40
tp459
Rp460
(dp461
bag76
(g7
g40
tp462
Rp463
(dp464
bag87
(g101
g40
tp465
Rp466
(dp467
bag87
(g108
g40
tp468
Rp469
(dp470
bag76
(g118
g40
tp471
Rp472
(dp473
bag76
(g127
g40
tp474
Rp475
(dp476
bag87
(g101
g40
tp477
Rp478
(dp479
ba(lp480
g87
(g7
g40
tp481
Rp482
(dp483
batp484
a((lp485
g87
(g92
g40
tp486
Rp487
(dp488
bag87
(g77
(g32
(I3
tp489
Rp490
(dp491
bg68
tp492
Rp493
(dp494
bg40
tp495
Rp496
(dp497
bag76
(g68
g40
tp498
Rp499
(dp500
bag76
(g82
g40
tp501
Rp502
(dp503
bag87
(g92
g40
tp504
Rp505
(dp506
bag76
(g7
g40
tp507
Rp508
(dp509
bag87
(g101
g40
tp510
Rp511
(dp512
bag87
(g108
g40
tp513
Rp514
(dp515
bag76
(g118
g40
tp516
Rp517
(dp518
bag76
(g127
g40
tp519
Rp520
(dp521
bag87
(g101
g40
tp522
Rp523
(dp524
ba(lp525
g87
(g7
g40
tp526
Rp527
(dp528
batp529
a((lp530
g87
(g92
g40
tp531
Rp532
(dp533
bag76
(g77
(g113
(I-1
I2
tp534
Rp535
(dp536
bg7
tp537
Rp538
(dp539
bg40
tp540
Rp541
(dp542
bag76
(g7
g40
tp543
Rp544
(dp545
bag76
(g82
g40
tp546
Rp547
(dp548
bag87
(g92
g40
tp549
Rp550
(dp551
bag76
(g7
g40
tp552
Rp553
(dp554
bag87
(g101
g40
tp555
Rp556
(dp557
bag87
(g108
g40
tp558
Rp559
(dp560
bag76
(g118
g40
tp561
Rp562
(dp563
bag76
(g127
g40
tp564
Rp565
(dp566
bag87
(g101
g40
tp567
Rp568
(dp569
ba(lp570
g87
(g7
g40
tp571
Rp572
(dp573
batp574
a((lp575
g87
(g101
g40
tp576
Rp577
(dp578
bag87
(g92
g40
tp579
Rp580
(dp581
bag76
(g7
g40
tp582
Rp583
(dp584
bag76
(g82
g40
tp585
Rp586
(dp587
bag87
(g92
g40
tp588
Rp589
(dp590
bag76
(g7
g40
tp591
Rp592
(dp593
bag87
(g101
g40
tp594
Rp595
(dp596
bag87
(g108
g40
tp597
Rp598
(dp599
bag76
(g118
g40
tp600
Rp601
(dp602
bag76
(g127
g40
tp603
Rp604
(dp605
bag87
(g101
g40
tp606
Rp607
(dp608
ba(lp609
g87
(g7
g40
tp610
Rp611
(dp612
batp613
a((lp614
g87
(g7
g40
tp615
Rp616
(dp617
bag45
(g7
g40
tp618
Rp619
(dp620
bag87
(g92
g40
tp621
Rp622
(dp623
bag76
(g82
g40
tp624
Rp625
(dp626
bag87
(g92
g40
tp627
Rp628
(dp629
bag76
(g7
g40
tp630
Rp631
(dp632
bag87
(g101
g40
tp633
Rp634
(dp635
bag87
(g108
g40
tp636
Rp637
(dp638
bag76
(g118
g40
tp639
Rp640
(dp641
bag76
(g127
g40
tp642
Rp643
(dp644
bag87
(g101
g40
tp645
Rp646
(dp647
ba(lp648
g87
(g7
g40
tp649
Rp650
(dp651
batp652
a((lp653
g87
(g101
g40
tp654
Rp655
(dp656
bag45
(g7
g40
tp657
Rp658
(dp659
bag87
(g92
g40
tp660
Rp661
(dp662
bag76
(g82
g40
tp663
Rp664
(dp665
bag87
(g92
g40
tp666
Rp667
(dp668
bag76
(g7
g40
tp669
Rp670
(dp671
bag87
(g101
g40
tp672
Rp673
(dp674
bag87
(g108
g40
tp675
Rp676
(dp677
bag76
(g118
g40
tp678
Rp679
(dp680
bag76
(g127
g40
tp681
Rp682
(dp683
bag87
(g101
g40
tp684
Rp685
(dp686
ba(lp687
g87
(g7
g40
tp688
Rp689
(dp690
batp691
a((lp692
g87
(g92
g40
tp693
Rp694
(dp695
bag45
(g7
g40
tp696
Rp697
(dp698
bag87
(g92
g40
tp699
Rp700
(dp701
bag76
(g82
g40
tp702
Rp703
(dp704
bag87
(g92
g40
tp705
Rp706
(dp707
bag76
(g7
g40
tp708
Rp709
(dp710
bag87
(g101
g40
tp711
Rp712
(dp713
bag87
(g108
g40
tp714
Rp715
(dp716
bag76
(g118
g40
tp717
Rp718
(dp719
bag76
(g127
g40
tp720
Rp721
(dp722
bag87
(g101
g40
tp723
Rp724
(dp725
ba(lp726
g87
(g7
g40
tp727
Rp728
(dp729
batp730
a((lp731
g76
(g68
g40
tp732
Rp733
(dp734
bag76
(g106
(g77
(g65
g7
tp735
Rp736
(dp737
bg493
tp738
Rp739
(dp740
bg40
tp741
Rp742
(dp743
bag45
(g7
g40
tp744
Rp745
(dp746
bag87
(g92
g40
tp747
Rp748
(dp749
bag76
(g82
g40
tp750
Rp751
(dp752
bag87
(g92
g40
tp753
Rp754
(dp755
bag76
(g7
g40
tp756
Rp757
(dp758
bag87
(g101
g40
tp759
Rp760
(dp761
bag87
(g108
g40
tp762
Rp763
(dp764
bag76
(g118
g40
tp765
Rp766
(dp767
bag76
(g127
g40
tp768
Rp769
(dp770
bag87
(g101
g40
tp771
Rp772
(dp773
ba(lp774
g87
(g7
g40
tp775
Rp776
(dp777
batp778
a((lp779
g87
(g68
g40
tp780
Rp781
(dp782
bag87
(g739
g40
tp783
Rp784
(dp785
bag45
(g7
g40
tp786
Rp787
(dp788
bag87
(g92
g40
tp789
Rp790
(dp791
bag76
(g82
g40
tp792
Rp793
(dp794
bag87
(g92
g40
tp795
Rp796
(dp797
bag76
(g7
g40
tp798
Rp799
(dp800
bag87
(g101
g40
tp801
Rp802
(dp803
bag87
(g108
g40
tp804
Rp805
(dp806
bag76
(g118
g40
tp807
Rp808
(dp809
bag76
(g127
g40
tp810
Rp811
(dp812
bag87
(g101
g40
tp813
Rp814
(dp815
ba(lp816
g87
(g7
g40
tp817
Rp818
(dp819
batp820
a((lp821
g87
(g739
g40
tp822
Rp823
(dp824
bag2
(g7
g40
tp825
Rp826
(dp827
bag87
(g92
g40
tp828
Rp829
(dp830
bag76
(g82
g40
tp831
Rp832
(dp833
bag87
(g92
g40
tp834
Rp835
(dp836
bag76
(g7
g40
tp837
Rp838
(dp839
bag87
(g101
g40
tp840
Rp841
(dp842
bag87
(g108
g40
tp843
Rp844
(dp845
bag76
(g118
g40
tp846
Rp847
(dp848
bag76
(g127
g40
tp849
Rp850
(dp851
bag87
(g101
g40
tp852
Rp853
(dp854
ba(lp855
g87
(g7
g40
tp856
Rp857
(dp858
batp859
a((lp860
g87
(g92
g40
tp861
Rp862
(dp863
bag87
(g92
g40
tp864
Rp865
(dp866
bag76
(g82
g40
tp867
Rp868
(dp869
bag87
(g92
g40
tp870
Rp871
(dp872
bag76
(g7
g40
tp873
Rp874
(dp875
bag87
(g101
g40
tp876
Rp877
(dp878
bag87
(g108
g40
tp879
Rp880
(dp881
bag76
(g118
g40
tp882
Rp883
(dp884
bag76
(g127
g40
tp885
Rp886
(dp887
bag87
(g101
g40
tp888
Rp889
(dp890
ba(lp891
g87
(g7
g40
tp892
Rp893
(dp894
batp895
a((lp896
g87
(g493
g40
tp897
Rp898
(dp899
bag76
(g68
g40
tp900
Rp901
(dp902
bag76
(g739
g40
tp903
Rp904
(dp905
bag87
(g92
g40
tp906
Rp907
(dp908
bag76
(g82
g40
tp909
Rp910
(dp911
bag87
(g92
g40
tp912
Rp913
(dp914
bag76
(g7
g40
tp915
Rp916
(dp917
bag87
(g101
g40
tp918
Rp919
(dp920
bag87
(g108
g40
tp921
Rp922
(dp923
bag76
(g118
g40
tp924
Rp925
(dp926
bag76
(g127
g40
tp927
Rp928
(dp929
bag87
(g101
g40
tp930
Rp931
(dp932
ba(lp933
g87
(g7
g40
tp934
Rp935
(dp936
batp937
a((lp938
g87
(g68
g40
tp939
Rp940
(dp941
bag87
(g739
g40
tp942
Rp943
(dp944
bag87
(g92
g40
tp945
Rp946
(dp947
bag76
(g82
g40
tp948
Rp949
(dp950
bag87
(g92
g40
tp951
Rp952
(dp953
bag76
(g7
g40
tp954
Rp955
(dp956
bag87
(g101
g40
tp957
Rp958
(dp959
bag87
(g108
g40
tp960
Rp961
(dp962
bag76
(g118
g40
tp963
Rp964
(dp965
bag76
(g127
g40
tp966
Rp967
(dp968
bag87
(g101
g40
tp969
Rp970
(dp971
ba(lp972
g87
(g7
g40
tp973
Rp974
(dp975
batp976
a((lp977
g87
(g77
(g32
(I-4
tp978
Rp979
(dp980
bg68
tp981
Rp982
(dp983
bg40
tp984
Rp985
(dp986
bag76
(g68
g40
tp987
Rp988
(dp989
bag76
(g739
g40
tp990
Rp991
(dp992
bag87
(g92
g40
tp993
Rp994
(dp995
bag76
(g82
g40
tp996
Rp997
(dp998
bag87
(g92
g40
tp999
Rp1000
(dp1001
bag76
(g7
g40
tp1002
Rp1003
(dp1004
bag87
(g101
g40
tp1005
Rp1006
(dp1007
bag87
(g108
g40
tp1008
Rp1009
(dp1010
bag76
(g118
g40
tp1011
Rp1012
(dp1013
bag76
(g127
g40
tp1014
Rp1015
(dp1016
bag87
(g101
g40
tp1017
Rp1018
(dp1019
ba(lp1020
g87
(g7
g40
tp1021
Rp1022
(dp1023
batp1024
a((lp1025
g76
(g538
g40
tp1026
Rp1027
(dp1028
bag76
(g739
g40
tp1029
Rp1030
(dp1031
bag76
(g7
g40
tp1032
Rp1033
(dp1034
bag87
(g92
g40
tp1035
Rp1036
(dp1037
bag76
(g82
g40
tp1038
Rp1039
(dp1040
bag87
(g92
g40
tp1041
Rp1042
(dp1043
bag76
(g7
g40
tp1044
Rp1045
(dp1046
bag87
(g101
g40
tp1047
Rp1048
(dp1049
bag87
(g108
g40
tp1050
Rp1051
(dp1052
bag76
(g118
g40
tp1053
Rp1054
(dp1055
bag76
(g127
g40
tp1056
Rp1057
(dp1058
bag87
(g101
g40
tp1059
Rp1060
(dp1061
ba(lp1062
g87
(g7
g40
tp1063
Rp1064
(dp1065
batp1066
a((lp1067
g87
(g538
g40
tp1068
Rp1069
(dp1070
bag87
(g739
g40
tp1071
Rp1072
(dp1073
bag76
(g7
g40
tp1074
Rp1075
(dp1076
bag87
(g92
g40
tp1077
Rp1078
(dp1079
bag76
(g82
g40
tp1080
Rp1081
(dp1082
bag87
(g92
g40
tp1083
Rp1084
(dp1085
bag76
(g7
g40
tp1086
Rp1087
(dp1088
bag87
(g101
g40
tp1089
Rp1090
(dp1091
bag87
(g108
g40
tp1092
Rp1093
(dp1094
bag76
(g118
g40
tp1095
Rp1096
(dp1097
bag76
(g127
g40
tp1098
Rp1099
(dp1100
bag87
(g101
g40
tp1101
Rp1102
(dp1103
ba(lp1104
g87
(g7
g40
tp1105
Rp1106
(dp1107
batp1108
a((lp1109
g87
(g739
g40
tp1110
Rp1111
(dp1112
bag87
(g7
g40
tp1113
Rp1114
(dp1115
bag87
(g92
g40
tp1116
Rp1117
(dp1118
bag76
(g82
g40
tp1119
Rp1120
(dp1121
bag87
(g92
g40
tp1122
Rp1123
(dp1124
bag76
(g7
g40
tp1125
Rp1126
(dp1127
bag87
(g101
g40
tp1128
Rp1129
(dp1130
bag87
(g108
g40
tp1131
Rp1132
(dp1133
bag76
(g118
g40
tp1134
Rp1135
(dp1136
bag76
(g127
g40
tp1137
Rp1138
(dp1139
bag87
(g101
g40
tp1140
Rp1141
(dp1142
ba(lp1143
g87
(g7
g40
tp1144
Rp1145
(dp1146
batp1147
a((lp1148
g87
(g101
g40
tp1149
Rp1150
(dp1151
bag76
(g739
g40
tp1152
Rp1153
(dp1154
bag76
(g7
g40
tp1155
Rp1156
(dp1157
bag87
(g92
g40
tp1158
Rp1159
(dp1160
bag76
(g82
g40
tp1161
Rp1162
(dp1163
bag87
(g92
g40
tp1164
Rp1165
(dp1166
bag76
(g7
g40
tp1167
Rp1168
(dp1169
bag87
(g101
g40
tp1170
Rp1171
(dp1172
bag87
(g108
g40
tp1173
Rp1174
(dp1175
bag76
(g118
g40
tp1176
Rp1177
(dp1178
bag76
(g127
g40
tp1179
Rp1180
(dp1181
bag87
(g101
g40
tp1182
Rp1183
(dp1184
ba(lp1185
g87
(g7
g40
tp1186
Rp1187
(dp1188
batp1189
a((lp1190
g76
(g739
g40
tp1191
Rp1192
(dp1193
bag87
(g92
g40
tp1194
Rp1195
(dp1196
bag76
(g82
g40
tp1197
Rp1198
(dp1199
bag87
(g92
g40
tp1200
Rp1201
(dp1202
bag76
(g7
g40
tp1203
Rp1204
(dp1205
bag87
(g101
g40
tp1206
Rp1207
(dp1208
bag87
(g108
g40
tp1209
Rp1210
(dp1211
bag76
(g118
g40
tp1212
Rp1213
(dp1214
bag76
(g127
g40
tp1215
Rp1216
(dp1217
bag87
(g101
g40
tp1218
Rp1219
(dp1220
ba(lp1221
g87
(g7
g40
tp1222
Rp1223
(dp1224
batp1225
a((lp1226
g87
(g92
g40
tp1227
Rp1228
(dp1229
bag76
(g739
g40
tp1230
Rp1231
(dp1232
bag87
(g92
g40
tp1233
Rp1234
(dp1235
bag76
(g82
g40
tp1236
Rp1237
(dp1238
bag87
(g92
g40
tp1239
Rp1240
(dp1241
bag76
(g7
g40
tp1242
Rp1243
(dp1244
bag87
(g101
g40
tp1245
Rp1246
(dp1247
bag87
(g108
g40
tp1248
Rp1249
(dp1250
bag76
(g118
g40
tp1251
Rp1252
(dp1253
bag76
(g127
g40
tp1254
Rp1255
(dp1256
bag87
(g101
g40
tp1257
Rp1258
(dp1259
ba(lp1260
g87
(g7
g40
tp1261
Rp1262
(dp1263
batp1264
a((lp1265
g76
(g739
g40
tp1266
Rp1267
(dp1268
bag76
(g7
g40
tp1269
Rp1270
(dp1271
bag76
(g739
g40
tp1272
Rp1273
(dp1274
bag87
(g92
g40
tp1275
Rp1276
(dp1277
bag76
(g82
g40
tp1278
Rp1279
(dp1280
bag87
(g92
g40
tp1281
Rp1282
(dp1283
bag76
(g7
g40
tp1284
Rp1285
(dp1286
bag87
(g101
g40
tp1287
Rp1288
(dp1289
bag87
(g108
g40
tp1290
Rp1291
(dp1292
bag76
(g118
g40
tp1293
Rp1294
(dp1295
bag76
(g127
g40
tp1296
Rp1297
(dp1298
bag87
(g101
g40
tp1299
Rp1300
(dp1301
ba(lp1302
g87
(g7
g40
tp1303
Rp1304
(dp1305
batp1306
a((lp1307
g87
(g77
(g65
g3
(g7
g490
tp1308
Rp1309
(dp1310
btp1311
Rp1312
(dp1313
bg40
tp1314
Rp1315
(dp1316
bag76
(g739
g40
tp1317
Rp1318
(dp1319
bag87
(g92
g40
tp1320
Rp1321
(dp1322
bag76
(g82
g40
tp1323
Rp1324
(dp1325
bag87
(g92
g40
tp1326
Rp1327
(dp1328
bag76
(g7
g40
tp1329
Rp1330
(dp1331
bag87
(g101
g40
tp1332
Rp1333
(dp1334
bag87
(g108
g40
tp1335
Rp1336
(dp1337
bag76
(g118
g40
tp1338
Rp1339
(dp1340
bag76
(g127
g40
tp1341
Rp1342
(dp1343
bag87
(g101
g40
tp1344
Rp1345
(dp1346
ba(lp1347
g87
(g7
g40
tp1348
Rp1349
(dp1350
batp1351
a((lp1352
g87
(g77
(g32
(I-2
tp1353
Rp1354
(dp1355
bg1309
tp1356
Rp1357
(dp1358
bg40
tp1359
Rp1360
(dp1361
bag76
(g739
g40
tp1362
Rp1363
(dp1364
bag87
(g92
g40
tp1365
Rp1366
(dp1367
bag76
(g82
g40
tp1368
Rp1369
(dp1370
bag87
(g92
g40
tp1371
Rp1372
(dp1373
bag76
(g7
g40
tp1374
Rp1375
(dp1376
bag87
(g101
g40
tp1377
Rp1378
(dp1379
bag87
(g108
g40
tp1380
Rp1381
(dp1382
bag76
(g118
g40
tp1383
Rp1384
(dp1385
bag76
(g127
g40
tp1386
Rp1387
(dp1388
bag87
(g101
g40
tp1389
Rp1390
(dp1391
ba(lp1392
g87
(g7
g40
tp1393
Rp1394
(dp1395
batp1396
a((lp1397
g87
(g101
g40
tp1398
Rp1399
(dp1400
bag76
(g739
g40
tp1401
Rp1402
(dp1403
bag87
(g92
g40
tp1404
Rp1405
(dp1406
bag76
(g82
g40
tp1407
Rp1408
(dp1409
bag87
(g92
g40
tp1410
Rp1411
(dp1412
bag76
(g7
g40
tp1413
Rp1414
(dp1415
bag87
(g101
g40
tp1416
Rp1417
(dp1418
bag87
(g108
g40
tp1419
Rp1420
(dp1421
bag76
(g118
g40
tp1422
Rp1423
(dp1424
bag76
(g127
g40
tp1425
Rp1426
(dp1427
bag87
(g101
g40
tp1428
Rp1429
(dp1430
ba(lp1431
g87
(g7
g40
tp1432
Rp1433
(dp1434
batp1435
a((lp1436
g76
(g106
(g77
(g47
g59
tp1437
Rp1438
(dp1439
bg77
(g979
g1309
tp1440
Rp1441
(dp1442
btp1443
Rp1444
(dp1445
bg40
tp1446
Rp1447
(dp1448
bag76
(g7
g40
tp1449
Rp1450
(dp1451
bag76
(g739
g40
tp1452
Rp1453
(dp1454
bag87
(g92
g40
tp1455
Rp1456
(dp1457
bag76
(g82
g40
tp1458
Rp1459
(dp1460
bag87
(g92
g40
tp1461
Rp1462
(dp1463
bag76
(g7
g40
tp1464
Rp1465
(dp1466
bag87
(g101
g40
tp1467
Rp1468
(dp1469
bag87
(g108
g40
tp1470
Rp1471
(dp1472
bag76
(g118
g40
tp1473
Rp1474
(dp1475
bag76
(g127
g40
tp1476
Rp1477
(dp1478
bag87
(g101
g40
tp1479
Rp1480
(dp1481
ba(lp1482
g87
(g7
g40
tp1483
Rp1484
(dp1485
batp1486
a((lp1487
g87
(g538
g40
tp1488
Rp1489
(dp1490
bag76
(g7
g40
tp1491
Rp1492
(dp1493
bag76
(g739
g40
tp1494
Rp1495
(dp1496
bag87
(g92
g40
tp1497
Rp1498
(dp1499
bag76
(g82
g40
tp1500
Rp1501
(dp1502
bag87
(g92
g40
tp1503
Rp1504
(dp1505
bag76
(g7
g40
tp1506
Rp1507
(dp1508
bag87
(g101
g40
tp1509
Rp1510
(dp1511
bag87
(g108
g40
tp1512
Rp1513
(dp1514
bag76
(g118
g40
tp1515
Rp1516
(dp1517
bag76
(g127
g40
tp1518
Rp1519
(dp1520
bag87
(g101
g40
tp1521
Rp1522
(dp1523
ba(lp1524
g87
(g7
g40
tp1525
Rp1526
(dp1527
batp1528
a.