(lp0
((lp1
csympy.core.relational
LessThan
p2
(csympy.core.mul
Mul
p3
(csympy.core.numbers
NegativeOne
p4
(tRp5
(dp6
bcsympy.core.symbol
Symbol
p7
(S'x'
p8
tp9
Rp10
(dp11
S'_assumptions'
p12
ccopy_reg
_reconstructor
p13
(csympy.core.assumptions
StdFactKB
p14
c__builtin__
dict
p15
(dp16
S'real'
p17
NsS'irrational'
p18
NsS'antihermitian'
p19
NsS'nonpositive'
p20
NsS'negative'
p21
NsS'hermitian'
p22
NsS'bounded'
p23
NsS'integer'
p24
NsS'imaginary'
p25
NsS'odd'
p26
NsS'even'
p27
NsS'commutative'
p28
I01
sS'positive'
p29
NsS'zero'
p30
NsS'nonnegative'
p31
NsS'rational'
p32
Nstp33
Rp34
sbtp35
Rp36
(dp37
bcsympy.core.numbers
Zero
p38
(tRp39
(dp40
btp41
Rp42
(dp43
bag2
(g10
g39
tp44
Rp45
(dp46
bacsympy.core.relational
StrictGreaterThan
p47
(csympy.core.add
Add
p48
(g3
(g5
csympy.core.power
Pow
p49
(g10
csympy.core.numbers
Integer
p50
(I2
tp51
Rp52
(dp53
btp54
Rp55
(dp56
btp57
Rp58
(dp59
bg10
tp60
Rp61
(dp62
bg39
tp63
Rp64
(dp65
bag2
(g58
g39
tp66
Rp67
(dp68
bag47
(g48
(g3
(g50
(I-2
tp69
Rp70
(dp71
bg49
(g10
g50
(I6
tp72
Rp73
(dp74
btp75
Rp76
(dp77
btp78
Rp79
(dp80
bg49
(g10
g50
(I7
tp81
Rp82
(dp83
btp84
Rp85
(dp86
bg49
(g10
g50
(I5
tp87
Rp88
(dp89
btp90
Rp91
(dp92
bg58
tp93
Rp94
(dp95
bg39
tp96
Rp97
(dp98
bag2
(g36
g39
tp99
Rp100
(dp101
bag47
(g48
(g55
g3
(g5
g49
(g10
g50
(I3
tp102
Rp103
(dp104
btp105
Rp106
(dp107
btp108
Rp109
(dp110
btp111
Rp112
(dp113
bg39
tp114
Rp115
(dp116
bag2
(g48
(g5
g106
g58
tp117
Rp118
(dp119
bg39
tp120
Rp121
(dp122
bag2
(g48
(g5
g55
g109
tp123
Rp124
(dp125
bg39
tp126
Rp127
(dp128
bag47
(g48
(csympy.core.numbers
Rational
p129
(I-15707963
I5000000
tp130
Rp131
(dp132
bg10
tp133
Rp134
(dp135
bg39
tp136
Rp137
(dp138
ba(lp139
g2
(g48
(g129
(I31415927
I10000000
tp140
Rp141
(dp142
bg36
tp143
Rp144
(dp145
bg39
tp146
Rp147
(dp148
batp149
a.