(lp0
((lp1
csympy.core.relational
LessThan
p2
(csympy.core.add
Add
p3
(csympy.core.numbers
Integer
p4
(I4
tp5
Rp6
(dp7
bcsympy.core.mul
Mul
p8
(g4
(I2
tp9
Rp10
(dp11
bcsympy.core.symbol
Symbol
p12
(S'x'
p13
tp14
Rp15
(dp16
S'_assumptions'
p17
ccopy_reg
_reconstructor
p18
(csympy.core.assumptions
StdFactKB
p19
c__builtin__
dict
p20
(dp21
S'real'
p22
NsS'irrational'
p23
NsS'antihermitian'
p24
NsS'nonpositive'
p25
NsS'unbounded'
p26
NsS'negative'
p27
NsS'hermitian'
p28
NsS'bounded'
p29
NsS'integer'
p30
NsS'imaginary'
p31
NsS'odd'
p32
NsS'even'
p33
NsS'commutative'
p34
I01
sS'positive'
p35
NsS'zero'
p36
NsS'nonnegative'
p37
NsS'rational'
p38
Nstp39
Rp40
sbtp41
Rp42
(dp43
btp44
Rp45
(dp46
bcsympy.core.numbers
Zero
p47
(tRp48
(dp49
btp50
Rp51
(dp52
bacsympy.core.relational
Equality
p53
(g3
(csympy.core.numbers
NegativeOne
p54
(tRp55
(dp56
bcsympy.core.power
Pow
p57
(g15
g10
tp58
Rp59
(dp60
bg15
tp61
Rp62
(dp63
bg48
tp64
Rp65
(dp66
bag53
(g3
(g55
g59
g8
(g55
g15
tp67
Rp68
(dp69
btp70
Rp71
(dp72
bg48
tp73
Rp74
(dp75
bag53
(g3
(g4
(I-2
tp76
Rp77
(dp78
bg59
tp79
Rp80
(dp81
bg48
tp82
Rp83
(dp84
bacsympy.core.relational
StrictGreaterThan
p85
(g3
(csympy.core.numbers
Rational
p86
(I-15707963
I5000000
tp87
Rp88
(dp89
bg15
tp90
Rp91
(dp92
bg48
tp93
Rp94
(dp95
bag85
(g3
(g86
(I31415927
I10000000
tp96
Rp97
(dp98
bg68
tp99
Rp100
(dp101
bg48
tp102
Rp103
(dp104
bag2
(g68
g48
tp105
Rp106
(dp107
bag2
(g68
g48
tp108
Rp109
(dp110
bag2
(g68
g48
tp111
Rp112
(dp113
bag85
(g15
g48
tp114
Rp115
(dp116
ba(lp117
g2
(g3
(csympy.core.numbers
One
p118
(tRp119
(dp120
bg68
tp121
Rp122
(dp123
bg48
tp124
Rp125
(dp126
batp127
a((lp128
g2
(g3
(g4
(I-4
tp129
Rp130
(dp131
bg8
(g77
g15
tp132
Rp133
(dp134
btp135
Rp136
(dp137
bg48
tp138
Rp139
(dp140
bag53
(g62
g48
tp141
Rp142
(dp143
bag53
(g71
g48
tp144
Rp145
(dp146
bag53
(g80
g48
tp147
Rp148
(dp149
bag85
(g91
g48
tp150
Rp151
(dp152
bag85
(g100
g48
tp153
Rp154
(dp155
bag2
(g68
g48
tp156
Rp157
(dp158
bag2
(g68
g48
tp159
Rp160
(dp161
bag2
(g68
g48
tp162
Rp163
(dp164
bag85
(g15
g48
tp165
Rp166
(dp167
ba(lp168
g2
(g122
g48
tp169
Rp170
(dp171
batp172
a((lp173
g2
(g3
(g86
(I1
I5
tp174
Rp175
(dp176
bg8
(g86
(I1
I10
tp177
Rp178
(dp179
bg15
tp180
Rp181
(dp182
btp183
Rp184
(dp185
bg48
tp186
Rp187
(dp188
bag2
(g136
g48
tp189
Rp190
(dp191
bag2
(g45
g48
tp192
Rp193
(dp194
bag53
(g62
g48
tp195
Rp196
(dp197
bag53
(g71
g48
tp198
Rp199
(dp200
bag53
(g80
g48
tp201
Rp202
(dp203
bag85
(g91
g48
tp204
Rp205
(dp206
bag85
(g100
g48
tp207
Rp208
(dp209
bag2
(g68
g48
tp210
Rp211
(dp212
bag2
(g68
g48
tp213
Rp214
(dp215
bag2
(g68
g48
tp216
Rp217
(dp218
bag85
(g15
g48
tp219
Rp220
(dp221
ba(lp222
g2
(g122
g48
tp223
Rp224
(dp225
batp226
a((lp227
g2
(g45
g48
tp228
Rp229
(dp230
bag85
(g136
g48
tp231
Rp232
(dp233
bag53
(g62
g48
tp234
Rp235
(dp236
bag53
(g71
g48
tp237
Rp238
(dp239
bag53
(g80
g48
tp240
Rp241
(dp242
bag85
(g91
g48
tp243
Rp244
(dp245
bag85
(g100
g48
tp246
Rp247
(dp248
bag2
(g68
g48
tp249
Rp250
(dp251
bag2
(g68
g48
tp252
Rp253
(dp254
bag2
(g68
g48
tp255
Rp256
(dp257
bag85
(g15
g48
tp258
Rp259
(dp260
ba(lp261
g2
(g122
g48
tp262
Rp263
(dp264
batp265
a((lp266
g85
(g45
g48
tp267
Rp268
(dp269
bag53
(g62
g48
tp270
Rp271
(dp272
bag53
(g71
g48
tp273
Rp274
(dp275
bag53
(g80
g48
tp276
Rp277
(dp278
bag85
(g91
g48
tp279
Rp280
(dp281
bag85
(g100
g48
tp282
Rp283
(dp284
bag2
(g68
g48
tp285
Rp286
(dp287
bag2
(g68
g48
tp288
Rp289
(dp290
bag2
(g68
g48
tp291
Rp292
(dp293
bag85
(g15
g48
tp294
Rp295
(dp296
ba(lp297
g2
(g122
g48
tp298
Rp299
(dp300
batp301
a((lp302
g85
(g45
g48
tp303
Rp304
(dp305
bag53
(g62
g48
tp306
Rp307
(dp308
bag53
(g71
g48
tp309
Rp310
(dp311
bag53
(g80
g48
tp312
Rp313
(dp314
bag85
(g91
g48
tp315
Rp316
(dp317
bag85
(g100
g48
tp318
Rp319
(dp320
bag2
(g68
g48
tp321
Rp322
(dp323
bag2
(g68
g48
tp324
Rp325
(dp326
bag2
(g68
g48
tp327
Rp328
(dp329
bag85
(g15
g48
tp330
Rp331
(dp332
ba(lp333
g2
(g122
g48
tp334
Rp335
(dp336
batp337
a((lp338
g2
(g136
g48
tp339
Rp340
(dp341
bag85
(g45
g48
tp342
Rp343
(dp344
bag53
(g62
g48
tp345
Rp346
(dp347
bag53
(g71
g48
tp348
Rp349
(dp350
bag53
(g80
g48
tp351
Rp352
(dp353
bag85
(g91
g48
tp354
Rp355
(dp356
bag85
(g100
g48
tp357
Rp358
(dp359
bag2
(g68
g48
tp360
Rp361
(dp362
bag2
(g68
g48
tp363
Rp364
(dp365
bag2
(g68
g48
tp366
Rp367
(dp368
bag85
(g15
g48
tp369
Rp370
(dp371
ba(lp372
g2
(g122
g48
tp373
Rp374
(dp375
batp376
a((lp377
g2
(g136
g48
tp378
Rp379
(dp380
bag85
(g45
g48
tp381
Rp382
(dp383
bag85
(g45
g48
tp384
Rp385
(dp386
bag53
(g62
g48
tp387
Rp388
(dp389
bag53
(g71
g48
tp390
Rp391
(dp392
bag53
(g80
g48
tp393
Rp394
(dp395
bag85
(g91
g48
tp396
Rp397
(dp398
bag85
(g100
g48
tp399
Rp400
(dp401
bag2
(g68
g48
tp402
Rp403
(dp404
bag2
(g68
g48
tp405
Rp406
(dp407
bag2
(g68
g48
tp408
Rp409
(dp410
bag85
(g15
g48
tp411
Rp412
(dp413
ba(lp414
g2
(g122
g48
tp415
Rp416
(dp417
batp418
a((lp419
g2
(g68
g48
tp420
Rp421
(dp422
bag2
(g136
g48
tp423
Rp424
(dp425
bag85
(g45
g48
tp426
Rp427
(dp428
bag53
(g62
g48
tp429
Rp430
(dp431
bag53
(g71
g48
tp432
Rp433
(dp434
bag53
(g80
g48
tp435
Rp436
(dp437
bag85
(g91
g48
tp438
Rp439
(dp440
bag85
(g100
g48
tp441
Rp442
(dp443
bag2
(g68
g48
tp444
Rp445
(dp446
bag2
(g68
g48
tp447
Rp448
(dp449
bag2
(g68
g48
tp450
Rp451
(dp452
bag85
(g15
g48
tp453
Rp454
(dp455
ba(lp456
g2
(g122
g48
tp457
Rp458
(dp459
batp460
a((lp461
g2
(g3
(g119
g8
(g55
g59
tp462
Rp463
(dp464
btp465
Rp466
(dp467
bg48
tp468
Rp469
(dp470
bag85
(g45
g48
tp471
Rp472
(dp473
bag53
(g62
g48
tp474
Rp475
(dp476
bag53
(g71
g48
tp477
Rp478
(dp479
bag53
(g80
g48
tp480
Rp481
(dp482
bag85
(g91
g48
tp483
Rp484
(dp485
bag85
(g100
g48
tp486
Rp487
(dp488
bag2
(g68
g48
tp489
Rp490
(dp491
bag2
(g68
g48
tp492
Rp493
(dp494
bag2
(g68
g48
tp495
Rp496
(dp497
bag85
(g15
g48
tp498
Rp499
(dp500
ba(lp501
g2
(g122
g48
tp502
Rp503
(dp504
batp505
a((lp506
g2
(g3
(g86
(I-1
I5
tp507
Rp508
(dp509
bg8
(g86
(I-1
I10
tp510
Rp511
(dp512
bg15
tp513
Rp514
(dp515
btp516
Rp517
(dp518
bg48
tp519
Rp520
(dp521
bag85
(g45
g48
tp522
Rp523
(dp524
bag53
(g62
g48
tp525
Rp526
(dp527
bag53
(g71
g48
tp528
Rp529
(dp530
bag53
(g80
g48
tp531
Rp532
(dp533
bag85
(g91
g48
tp534
Rp535
(dp536
bag85
(g100
g48
tp537
Rp538
(dp539
bag2
(g68
g48
tp540
Rp541
(dp542
bag2
(g68
g48
tp543
Rp544
(dp545
bag2
(g68
g48
tp546
Rp547
(dp548
bag85
(g15
g48
tp549
Rp550
(dp551
ba(lp552
g2
(g122
g48
tp553
Rp554
(dp555
batp556
a((lp557
g2
(g184
g48
tp558
Rp559
(dp560
bag85
(g45
g48
tp561
Rp562
(dp563
bag53
(g62
g48
tp564
Rp565
(dp566
bag53
(g71
g48
tp567
Rp568
(dp569
bag53
(g80
g48
tp570
Rp571
(dp572
bag85
(g91
g48
tp573
Rp574
(dp575
bag85
(g100
g48
tp576
Rp577
(dp578
bag2
(g68
g48
tp579
Rp580
(dp581
bag2
(g68
g48
tp582
Rp583
(dp584
bag2
(g68
g48
tp585
Rp586
(dp587
bag85
(g15
g48
tp588
Rp589
(dp590
ba(lp591
g2
(g122
g48
tp592
Rp593
(dp594
batp595
a((lp596
g2
(g3
(g8
(g77
g59
tp597
Rp598
(dp599
bg8
(g130
g15
tp600
Rp601
(dp602
btp603
Rp604
(dp605
bg48
tp606
Rp607
(dp608
bag85
(g45
g48
tp609
Rp610
(dp611
bag53
(g62
g48
tp612
Rp613
(dp614
bag53
(g71
g48
tp615
Rp616
(dp617
bag53
(g80
g48
tp618
Rp619
(dp620
bag85
(g91
g48
tp621
Rp622
(dp623
bag85
(g100
g48
tp624
Rp625
(dp626
bag2
(g68
g48
tp627
Rp628
(dp629
bag2
(g68
g48
tp630
Rp631
(dp632
bag2
(g68
g48
tp633
Rp634
(dp635
bag85
(g15
g48
tp636
Rp637
(dp638
ba(lp639
g2
(g122
g48
tp640
Rp641
(dp642
batp643
a((lp644
g2
(g604
g48
tp645
Rp646
(dp647
bag85
(g45
g48
tp648
Rp649
(dp650
bag53
(g62
g48
tp651
Rp652
(dp653
bag53
(g71
g48
tp654
Rp655
(dp656
bag53
(g80
g48
tp657
Rp658
(dp659
bag85
(g91
g48
tp660
Rp661
(dp662
bag85
(g100
g48
tp663
Rp664
(dp665
bag2
(g68
g48
tp666
Rp667
(dp668
bag2
(g68
g48
tp669
Rp670
(dp671
bag2
(g68
g48
tp672
Rp673
(dp674
bag85
(g15
g48
tp675
Rp676
(dp677
ba(lp678
g2
(g122
g48
tp679
Rp680
(dp681
batp682
a((lp683
g2
(g517
g48
tp684
Rp685
(dp686
bag2
(g604
g48
tp687
Rp688
(dp689
bag85
(g45
g48
tp690
Rp691
(dp692
bag53
(g62
g48
tp693
Rp694
(dp695
bag53
(g71
g48
tp696
Rp697
(dp698
bag53
(g80
g48
tp699
Rp700
(dp701
bag85
(g91
g48
tp702
Rp703
(dp704
bag85
(g100
g48
tp705
Rp706
(dp707
bag2
(g68
g48
tp708
Rp709
(dp710
bag2
(g68
g48
tp711
Rp712
(dp713
bag2
(g68
g48
tp714
Rp715
(dp716
bag85
(g15
g48
tp717
Rp718
(dp719
ba(lp720
g2
(g122
g48
tp721
Rp722
(dp723
batp724
a((lp725
g85
(g59
g48
tp726
Rp727
(dp728
bag2
(g604
g48
tp729
Rp730
(dp731
bag85
(g45
g48
tp732
Rp733
(dp734
bag53
(g62
g48
tp735
Rp736
(dp737
bag53
(g71
g48
tp738
Rp739
(dp740
bag53
(g80
g48
tp741
Rp742
(dp743
bag85
(g91
g48
tp744
Rp745
(dp746
bag85
(g100
g48
tp747
Rp748
(dp749
bag2
(g68
g48
tp750
Rp751
(dp752
bag2
(g68
g48
tp753
Rp754
(dp755
bag2
(g68
g48
tp756
Rp757
(dp758
bag85
(g15
g48
tp759
Rp760
(dp761
ba(lp762
g2
(g122
g48
tp763
Rp764
(dp765
batp766
a.