(lp0
((lp1
csympy.core.relational
LessThan
p2
(csympy.core.add
Add
p3
(csympy.core.mul
Mul
p4
(csympy.core.numbers
Rational
p5
(I-1
I6
tp6
Rp7
(dp8
bcsympy.core.power
Pow
p9
(csympy.core.symbol
Symbol
p10
(S'x'
p11
tp12
Rp13
(dp14
S'_assumptions'
p15
ccopy_reg
_reconstructor
p16
(csympy.core.assumptions
StdFactKB
p17
c__builtin__
dict
p18
(dp19
S'real'
p20
NsS'irrational'
p21
NsS'antihermitian'
p22
NsS'nonpositive'
p23
NsS'negative'
p24
NsS'hermitian'
p25
NsS'bounded'
p26
NsS'integer'
p27
NsS'imaginary'
p28
NsS'odd'
p29
NsS'even'
p30
NsS'commutative'
p31
I01
sS'positive'
p32
NsS'zero'
p33
NsS'nonnegative'
p34
NsS'rational'
p35
Nstp36
Rp37
sbcsympy.core.numbers
Integer
p38
(I4
tp39
Rp40
(dp41
btp42
Rp43
(dp44
btp45
Rp46
(dp47
bg4
(g5
(I-1
I2
tp48
Rp49
(dp50
bg9
(g13
g38
(I2
tp51
Rp52
(dp53
btp54
Rp55
(dp56
btp57
Rp58
(dp59
btp60
Rp61
(dp62
bcsympy.core.numbers
Zero
p63
(tRp64
(dp65
btp66
Rp67
(dp68
bacsympy.core.relational
StrictGreaterThan
p69
(g3
(csympy.core.numbers
One
p70
(tRp71
(dp72
bg4
(g5
(I1
I6
tp73
Rp74
(dp75
bg55
tp76
Rp77
(dp78
btp79
Rp80
(dp81
bg64
tp82
Rp83
(dp84
bag2
(g3
(g4
(g5
(I1
I3
tp85
Rp86
(dp87
bg9
(g13
g38
(I3
tp88
Rp89
(dp90
btp91
Rp92
(dp93
btp94
Rp95
(dp96
bg4
(csympy.core.numbers
NegativeOne
p97
(tRp98
(dp99
bg13
tp100
Rp101
(dp102
btp103
Rp104
(dp105
bg64
tp106
Rp107
(dp108
bag69
(g3
(g5
(I7
I8
tp109
Rp110
(dp111
bg101
tp112
Rp113
(dp114
bg64
tp115
Rp116
(dp117
bag69
(g13
g64
tp118
Rp119
(dp120
bag69
(g3
(g89
g58
tp121
Rp122
(dp123
bg64
tp124
Rp125
(dp126
bag2
(g3
(g38
(I-3
tp127
Rp128
(dp129
bg4
(csympy.core.numbers
Half
p130
(tRp131
(dp132
bg55
tp133
Rp134
(dp135
btp136
Rp137
(dp138
bg64
tp139
Rp140
(dp141
bag2
(g3
(g38
(I-16
tp142
Rp143
(dp144
bg4
(g38
(I-10
tp145
Rp146
(dp147
bg43
tp148
Rp149
(dp150
bg9
(g13
g38
(I6
tp151
Rp152
(dp153
btp154
Rp155
(dp156
bg4
(g38
(I24
tp157
Rp158
(dp159
bg55
tp160
Rp161
(dp162
btp163
Rp164
(dp165
bg64
tp166
Rp167
(dp168
bag69
(g3
(g38
(I48
tp169
Rp170
(dp171
bg4
(g38
(I40
tp172
Rp173
(dp174
bg43
tp175
Rp176
(dp177
bg4
(g38
(I-6
tp178
Rp179
(dp180
bg155
tp181
Rp182
(dp183
bg4
(g5
(I1
I8
tp184
Rp185
(dp186
bg9
(g13
g38
(I8
tp187
Rp188
(dp189
btp190
Rp191
(dp192
btp193
Rp194
(dp195
bg4
(g38
(I-80
tp196
Rp197
(dp198
bg55
tp199
Rp200
(dp201
btp202
Rp203
(dp204
bg64
tp205
Rp206
(dp207
bag2
(g3
(g38
(I-48
tp208
Rp209
(dp210
bg4
(g38
(I-40
tp211
Rp212
(dp213
bg43
tp214
Rp215
(dp216
bg4
(g152
g155
tp217
Rp218
(dp219
bg4
(g5
(I-1
I8
tp220
Rp221
(dp222
bg191
tp223
Rp224
(dp225
bg4
(g38
(I80
tp226
Rp227
(dp228
bg55
tp229
Rp230
(dp231
btp232
Rp233
(dp234
bg64
tp235
Rp236
(dp237
ba(lp238
g2
(g55
g64
tp239
Rp240
(dp241
batp242
a((lp243
g2
(g61
g64
tp244
Rp245
(dp246
bag2
(g3
(g98
g4
(g7
g55
tp247
Rp248
(dp249
btp250
Rp251
(dp252
bg64
tp253
Rp254
(dp255
bag2
(g104
g64
tp256
Rp257
(dp258
bag69
(g113
g64
tp259
Rp260
(dp261
bag69
(g13
g64
tp262
Rp263
(dp264
bag69
(g122
g64
tp265
Rp266
(dp267
bag2
(g137
g64
tp268
Rp269
(dp270
bag2
(g164
g64
tp271
Rp272
(dp273
bag69
(g203
g64
tp274
Rp275
(dp276
bag2
(g233
g64
tp277
Rp278
(dp279
ba(lp280
g2
(g55
g64
tp281
Rp282
(dp283
batp284
a((lp285
g2
(g251
g64
tp286
Rp287
(dp288
bag2
(g61
g64
tp289
Rp290
(dp291
bag2
(g251
g64
tp292
Rp293
(dp294
bag2
(g104
g64
tp295
Rp296
(dp297
bag69
(g113
g64
tp298
Rp299
(dp300
bag69
(g13
g64
tp301
Rp302
(dp303
bag69
(g122
g64
tp304
Rp305
(dp306
bag2
(g137
g64
tp307
Rp308
(dp309
bag2
(g164
g64
tp310
Rp311
(dp312
bag69
(g203
g64
tp313
Rp314
(dp315
bag2
(g233
g64
tp316
Rp317
(dp318
ba(lp319
g2
(g55
g64
tp320
Rp321
(dp322
batp323
a((lp324
g2
(g3
(g38
(I-2
tp325
Rp326
(dp327
bg55
tp328
Rp329
(dp330
bg64
tp331
Rp332
(dp333
bag2
(g61
g64
tp334
Rp335
(dp336
bag2
(g251
g64
tp337
Rp338
(dp339
bag2
(g104
g64
tp340
Rp341
(dp342
bag69
(g113
g64
tp343
Rp344
(dp345
bag69
(g13
g64
tp346
Rp347
(dp348
bag69
(g122
g64
tp349
Rp350
(dp351
bag2
(g137
g64
tp352
Rp353
(dp354
bag2
(g164
g64
tp355
Rp356
(dp357
bag69
(g203
g64
tp358
Rp359
(dp360
bag2
(g233
g64
tp361
Rp362
(dp363
ba(lp364
g2
(g55
g64
tp365
Rp366
(dp367
batp368
a((lp369
g2
(g4
(g5
(I-2
I3
tp370
Rp371
(dp372
bg43
tp373
Rp374
(dp375
bg64
tp376
Rp377
(dp378
bag69
(g3
(g52
g4
(g98
g55
tp379
Rp380
(dp381
btp382
Rp383
(dp384
bg64
tp385
Rp386
(dp387
bag2
(g61
g64
tp388
Rp389
(dp390
bag2
(g251
g64
tp391
Rp392
(dp393
bag2
(g104
g64
tp394
Rp395
(dp396
bag69
(g113
g64
tp397
Rp398
(dp399
bag69
(g13
g64
tp400
Rp401
(dp402
bag69
(g122
g64
tp403
Rp404
(dp405
bag2
(g137
g64
tp406
Rp407
(dp408
bag2
(g164
g64
tp409
Rp410
(dp411
bag69
(g203
g64
tp412
Rp413
(dp414
bag2
(g233
g64
tp415
Rp416
(dp417
ba(lp418
g2
(g55
g64
tp419
Rp420
(dp421
batp422
a((lp423
g2
(g329
g64
tp424
Rp425
(dp426
bag2
(g61
g64
tp427
Rp428
(dp429
bag2
(g251
g64
tp430
Rp431
(dp432
bag2
(g104
g64
tp433
Rp434
(dp435
bag69
(g113
g64
tp436
Rp437
(dp438
bag69
(g13
g64
tp439
Rp440
(dp441
bag69
(g122
g64
tp442
Rp443
(dp444
bag2
(g137
g64
tp445
Rp446
(dp447
bag2
(g164
g64
tp448
Rp449
(dp450
bag69
(g203
g64
tp451
Rp452
(dp453
bag2
(g233
g64
tp454
Rp455
(dp456
ba(lp457
g2
(g55
g64
tp458
Rp459
(dp460
batp461
a((lp462
g2
(g374
g64
tp463
Rp464
(dp465
bag2
(g329
g64
tp466
Rp467
(dp468
bag2
(g61
g64
tp469
Rp470
(dp471
bag2
(g251
g64
tp472
Rp473
(dp474
bag2
(g104
g64
tp475
Rp476
(dp477
bag69
(g113
g64
tp478
Rp479
(dp480
bag69
(g13
g64
tp481
Rp482
(dp483
bag69
(g122
g64
tp484
Rp485
(dp486
bag2
(g137
g64
tp487
Rp488
(dp489
bag2
(g164
g64
tp490
Rp491
(dp492
bag69
(g203
g64
tp493
Rp494
(dp495
bag2
(g233
g64
tp496
Rp497
(dp498
ba(lp499
g2
(g55
g64
tp500
Rp501
(dp502
batp503
a((lp504
g2
(g251
g64
tp505
Rp506
(dp507
bag2
(g374
g64
tp508
Rp509
(dp510
bag2
(g329
g64
tp511
Rp512
(dp513
bag2
(g61
g64
tp514
Rp515
(dp516
bag2
(g251
g64
tp517
Rp518
(dp519
bag2
(g104
g64
tp520
Rp521
(dp522
bag69
(g113
g64
tp523
Rp524
(dp525
bag69
(g13
g64
tp526
Rp527
(dp528
bag69
(g122
g64
tp529
Rp530
(dp531
bag2
(g137
g64
tp532
Rp533
(dp534
bag2
(g164
g64
tp535
Rp536
(dp537
bag69
(g203
g64
tp538
Rp539
(dp540
bag2
(g233
g64
tp541
Rp542
(dp543
ba(lp544
g2
(g55
g64
tp545
Rp546
(dp547
batp548
a((lp549
g2
(g374
g64
tp550
Rp551
(dp552
bag69
(g80
g64
tp553
Rp554
(dp555
bag2
(g374
g64
tp556
Rp557
(dp558
bag2
(g329
g64
tp559
Rp560
(dp561
bag2
(g61
g64
tp562
Rp563
(dp564
bag2
(g251
g64
tp565
Rp566
(dp567
bag2
(g104
g64
tp568
Rp569
(dp570
bag69
(g113
g64
tp571
Rp572
(dp573
bag69
(g13
g64
tp574
Rp575
(dp576
bag69
(g122
g64
tp577
Rp578
(dp579
bag2
(g137
g64
tp580
Rp581
(dp582
bag2
(g164
g64
tp583
Rp584
(dp585
bag69
(g203
g64
tp586
Rp587
(dp588
bag2
(g233
g64
tp589
Rp590
(dp591
ba(lp592
g2
(g55
g64
tp593
Rp594
(dp595
batp596
a((lp597
g2
(g251
g64
tp598
Rp599
(dp600
bag2
(g374
g64
tp601
Rp602
(dp603
bag2
(g329
g64
tp604
Rp605
(dp606
bag2
(g61
g64
tp607
Rp608
(dp609
bag2
(g251
g64
tp610
Rp611
(dp612
bag2
(g104
g64
tp613
Rp614
(dp615
bag69
(g113
g64
tp616
Rp617
(dp618
bag69
(g13
g64
tp619
Rp620
(dp621
bag69
(g122
g64
tp622
Rp623
(dp624
bag2
(g137
g64
tp625
Rp626
(dp627
bag2
(g164
g64
tp628
Rp629
(dp630
bag69
(g203
g64
tp631
Rp632
(dp633
bag2
(g233
g64
tp634
Rp635
(dp636
ba(lp637
g2
(g55
g64
tp638
Rp639
(dp640
batp641
a((lp642
g2
(g374
g64
tp643
Rp644
(dp645
bag2
(g374
g64
tp646
Rp647
(dp648
bag2
(g329
g64
tp649
Rp650
(dp651
bag2
(g61
g64
tp652
Rp653
(dp654
bag2
(g251
g64
tp655
Rp656
(dp657
bag2
(g104
g64
tp658
Rp659
(dp660
bag69
(g113
g64
tp661
Rp662
(dp663
bag69
(g13
g64
tp664
Rp665
(dp666
bag69
(g122
g64
tp667
Rp668
(dp669
bag2
(g137
g64
tp670
Rp671
(dp672
bag2
(g164
g64
tp673
Rp674
(dp675
bag69
(g203
g64
tp676
Rp677
(dp678
bag2
(g233
g64
tp679
Rp680
(dp681
ba(lp682
g2
(g55
g64
tp683
Rp684
(dp685
batp686
a((lp687
g2
(g3
(g4
(g7
g92
tp688
Rp689
(dp690
bg101
tp691
Rp692
(dp693
bg64
tp694
Rp695
(dp696
bag2
(g55
g64
tp697
Rp698
(dp699
bag2
(g374
g64
tp700
Rp701
(dp702
bag2
(g329
g64
tp703
Rp704
(dp705
bag2
(g61
g64
tp706
Rp707
(dp708
bag2
(g251
g64
tp709
Rp710
(dp711
bag2
(g104
g64
tp712
Rp713
(dp714
bag69
(g113
g64
tp715
Rp716
(dp717
bag69
(g13
g64
tp718
Rp719
(dp720
bag69
(g122
g64
tp721
Rp722
(dp723
bag2
(g137
g64
tp724
Rp725
(dp726
bag2
(g164
g64
tp727
Rp728
(dp729
bag69
(g203
g64
tp730
Rp731
(dp732
bag2
(g233
g64
tp733
Rp734
(dp735
ba(lp736
g2
(g55
g64
tp737
Rp738
(dp739
batp740
a((lp741
g69
(g55
g64
tp742
Rp743
(dp744
bag2
(g374
g64
tp745
Rp746
(dp747
bag2
(g329
g64
tp748
Rp749
(dp750
bag2
(g61
g64
tp751
Rp752
(dp753
bag2
(g251
g64
tp754
Rp755
(dp756
bag2
(g104
g64
tp757
Rp758
(dp759
bag69
(g113
g64
tp760
Rp761
(dp762
bag69
(g13
g64
tp763
Rp764
(dp765
bag69
(g122
g64
tp766
Rp767
(dp768
bag2
(g137
g64
tp769
Rp770
(dp771
bag2
(g164
g64
tp772
Rp773
(dp774
bag69
(g203
g64
tp775
Rp776
(dp777
bag2
(g233
g64
tp778
Rp779
(dp780
ba(lp781
g2
(g55
g64
tp782
Rp783
(dp784
batp785
a((lp786
g2
(g692
g64
tp787
Rp788
(dp789
bag2
(g3
(g98
g55
tp790
Rp791
(dp792
bg64
tp793
Rp794
(dp795
bag2
(g374
g64
tp796
Rp797
(dp798
bag2
(g329
g64
tp799
Rp800
(dp801
bag2
(g61
g64
tp802
Rp803
(dp804
bag2
(g251
g64
tp805
Rp806
(dp807
bag2
(g104
g64
tp808
Rp809
(dp810
bag69
(g113
g64
tp811
Rp812
(dp813
bag69
(g13
g64
tp814
Rp815
(dp816
bag69
(g122
g64
tp817
Rp818
(dp819
bag2
(g137
g64
tp820
Rp821
(dp822
bag2
(g164
g64
tp823
Rp824
(dp825
bag69
(g203
g64
tp826
Rp827
(dp828
bag2
(g233
g64
tp829
Rp830
(dp831
ba(lp832
g2
(g55
g64
tp833
Rp834
(dp835
batp836
a((lp837
g2
(g692
g64
tp838
Rp839
(dp840
bag69
(g80
g64
tp841
Rp842
(dp843
bag2
(g374
g64
tp844
Rp845
(dp846
bag2
(g329
g64
tp847
Rp848
(dp849
bag2
(g61
g64
tp850
Rp851
(dp852
bag2
(g251
g64
tp853
Rp854
(dp855
bag2
(g104
g64
tp856
Rp857
(dp858
bag69
(g113
g64
tp859
Rp860
(dp861
bag69
(g13
g64
tp862
Rp863
(dp864
bag69
(g122
g64
tp865
Rp866
(dp867
bag2
(g137
g64
tp868
Rp869
(dp870
bag2
(g164
g64
tp871
Rp872
(dp873
bag69
(g203
g64
tp874
Rp875
(dp876
bag2
(g233
g64
tp877
Rp878
(dp879
ba(lp880
g2
(g55
g64
tp881
Rp882
(dp883
batp884
a((lp885
g2
(g692
g64
tp886
Rp887
(dp888
bag69
(g80
g64
tp889
Rp890
(dp891
bag69
(g4
(g5
(I1
I12
tp892
Rp893
(dp894
bg43
tp895
Rp896
(dp897
bg64
tp898
Rp899
(dp900
bag2
(g374
g64
tp901
Rp902
(dp903
bag2
(g329
g64
tp904
Rp905
(dp906
bag2
(g61
g64
tp907
Rp908
(dp909
bag2
(g251
g64
tp910
Rp911
(dp912
bag2
(g104
g64
tp913
Rp914
(dp915
bag69
(g113
g64
tp916
Rp917
(dp918
bag69
(g13
g64
tp919
Rp920
(dp921
bag69
(g122
g64
tp922
Rp923
(dp924
bag2
(g137
g64
tp925
Rp926
(dp927
bag2
(g164
g64
tp928
Rp929
(dp930
bag69
(g203
g64
tp931
Rp932
(dp933
bag2
(g233
g64
tp934
Rp935
(dp936
ba(lp937
g2
(g55
g64
tp938
Rp939
(dp940
batp941
a((lp942
g2
(g692
g64
tp943
Rp944
(dp945
bag2
(g374
g64
tp946
Rp947
(dp948
bag2
(g329
g64
tp949
Rp950
(dp951
bag2
(g61
g64
tp952
Rp953
(dp954
bag2
(g251
g64
tp955
Rp956
(dp957
bag2
(g104
g64
tp958
Rp959
(dp960
bag69
(g113
g64
tp961
Rp962
(dp963
bag69
(g13
g64
tp964
Rp965
(dp966
bag69
(g122
g64
tp967
Rp968
(dp969
bag2
(g137
g64
tp970
Rp971
(dp972
bag2
(g164
g64
tp973
Rp974
(dp975
bag69
(g203
g64
tp976
Rp977
(dp978
bag2
(g233
g64
tp979
Rp980
(dp981
ba(lp982
g2
(g55
g64
tp983
Rp984
(dp985
batp986
a((lp987
g2
(g3
(g98
g4
(g86
g55
tp988
Rp989
(dp990
btp991
Rp992
(dp993
bg64
tp994
Rp995
(dp996
bag2
(g692
g64
tp997
Rp998
(dp999
bag2
(g374
g64
tp1000
Rp1001
(dp1002
bag2
(g329
g64
tp1003
Rp1004
(dp1005
bag2
(g61
g64
tp1006
Rp1007
(dp1008
bag2
(g251
g64
tp1009
Rp1010
(dp1011
bag2
(g104
g64
tp1012
Rp1013
(dp1014
bag69
(g113
g64
tp1015
Rp1016
(dp1017
bag69
(g13
g64
tp1018
Rp1019
(dp1020
bag69
(g122
g64
tp1021
Rp1022
(dp1023
bag2
(g137
g64
tp1024
Rp1025
(dp1026
bag2
(g164
g64
tp1027
Rp1028
(dp1029
bag69
(g203
g64
tp1030
Rp1031
(dp1032
bag2
(g233
g64
tp1033
Rp1034
(dp1035
ba(lp1036
g2
(g55
g64
tp1037
Rp1038
(dp1039
batp1040
a((lp1041
g2
(g992
g64
tp1042
Rp1043
(dp1044
bag2
(g692
g64
tp1045
Rp1046
(dp1047
bag2
(g374
g64
tp1048
Rp1049
(dp1050
bag2
(g329
g64
tp1051
Rp1052
(dp1053
bag2
(g61
g64
tp1054
Rp1055
(dp1056
bag2
(g251
g64
tp1057
Rp1058
(dp1059
bag2
(g104
g64
tp1060
Rp1061
(dp1062
bag69
(g113
g64
tp1063
Rp1064
(dp1065
bag69
(g13
g64
tp1066
Rp1067
(dp1068
bag69
(g122
g64
tp1069
Rp1070
(dp1071
bag2
(g137
g64
tp1072
Rp1073
(dp1074
bag2
(g164
g64
tp1075
Rp1076
(dp1077
bag69
(g203
g64
tp1078
Rp1079
(dp1080
bag2
(g233
g64
tp1081
Rp1082
(dp1083
ba(lp1084
g2
(g55
g64
tp1085
Rp1086
(dp1087
batp1088
a((lp1089
g2
(g251
g64
tp1090
Rp1091
(dp1092
bag2
(g992
g64
tp1093
Rp1094
(dp1095
bag2
(g692
g64
tp1096
Rp1097
(dp1098
bag2
(g374
g64
tp1099
Rp1100
(dp1101
bag2
(g329
g64
tp1102
Rp1103
(dp1104
bag2
(g61
g64
tp1105
Rp1106
(dp1107
bag2
(g251
g64
tp1108
Rp1109
(dp1110
bag2
(g104
g64
tp1111
Rp1112
(dp1113
bag69
(g113
g64
tp1114
Rp1115
(dp1116
bag69
(g13
g64
tp1117
Rp1118
(dp1119
bag69
(g122
g64
tp1120
Rp1121
(dp1122
bag2
(g137
g64
tp1123
Rp1124
(dp1125
bag2
(g164
g64
tp1126
Rp1127
(dp1128
bag69
(g203
g64
tp1129
Rp1130
(dp1131
bag2
(g233
g64
tp1132
Rp1133
(dp1134
ba(lp1135
g2
(g55
g64
tp1136
Rp1137
(dp1138
batp1139
a((lp1140
g2
(g3
(g38
(I-128
tp1141
Rp1142
(dp1143
bg4
(g98
g191
tp1144
Rp1145
(dp1146
bg4
(g38
(I-160
tp1147
Rp1148
(dp1149
bg43
tp1150
Rp1151
(dp1152
bg4
(g38
(I256
tp1153
Rp1154
(dp1155
bg55
tp1156
Rp1157
(dp1158
bg4
(g38
(I32
tp1159
Rp1160
(dp1161
bg155
tp1162
Rp1163
(dp1164
btp1165
Rp1166
(dp1167
bg64
tp1168
Rp1169
(dp1170
bag2
(g992
g64
tp1171
Rp1172
(dp1173
bag2
(g692
g64
tp1174
Rp1175
(dp1176
bag2
(g374
g64
tp1177
Rp1178
(dp1179
bag2
(g329
g64
tp1180
Rp1181
(dp1182
bag2
(g61
g64
tp1183
Rp1184
(dp1185
bag2
(g251
g64
tp1186
Rp1187
(dp1188
bag2
(g104
g64
tp1189
Rp1190
(dp1191
bag69
(g113
g64
tp1192
Rp1193
(dp1194
bag69
(g13
g64
tp1195
Rp1196
(dp1197
bag69
(g122
g64
tp1198
Rp1199
(dp1200
bag2
(g137
g64
tp1201
Rp1202
(dp1203
bag2
(g164
g64
tp1204
Rp1205
(dp1206
bag69
(g203
g64
tp1207
Rp1208
(dp1209
bag2
(g233
g64
tp1210
Rp1211
(dp1212
ba(lp1213
g2
(g55
g64
tp1214
Rp1215
(dp1216
batp1217
a((lp1218
g2
(g3
(g38
(I128
tp1219
Rp1220
(dp1221
bg191
g4
(g38
(I160
tp1222
Rp1223
(dp1224
bg43
tp1225
Rp1226
(dp1227
bg4
(g38
(I-32
tp1228
Rp1229
(dp1230
bg155
tp1231
Rp1232
(dp1233
bg4
(g38
(I-256
tp1234
Rp1235
(dp1236
bg55
tp1237
Rp1238
(dp1239
btp1240
Rp1241
(dp1242
bg64
tp1243
Rp1244
(dp1245
bag2
(g992
g64
tp1246
Rp1247
(dp1248
bag2
(g692
g64
tp1249
Rp1250
(dp1251
bag2
(g374
g64
tp1252
Rp1253
(dp1254
bag2
(g329
g64
tp1255
Rp1256
(dp1257
bag2
(g61
g64
tp1258
Rp1259
(dp1260
bag2
(g251
g64
tp1261
Rp1262
(dp1263
bag2
(g104
g64
tp1264
Rp1265
(dp1266
bag69
(g113
g64
tp1267
Rp1268
(dp1269
bag69
(g13
g64
tp1270
Rp1271
(dp1272
bag69
(g122
g64
tp1273
Rp1274
(dp1275
bag2
(g137
g64
tp1276
Rp1277
(dp1278
bag2
(g164
g64
tp1279
Rp1280
(dp1281
bag69
(g203
g64
tp1282
Rp1283
(dp1284
bag2
(g233
g64
tp1285
Rp1286
(dp1287
ba(lp1288
g2
(g55
g64
tp1289
Rp1290
(dp1291
batp1292
a((lp1293
g2
(g3
(g4
(g5
(I5
I3
tp1294
Rp1295
(dp1296
bg9
(g13
g38
(I10
tp1297
Rp1298
(dp1299
btp1300
Rp1301
(dp1302
btp1303
Rp1304
(dp1305
bg4
(g5
(I-80
I3
tp1306
Rp1307
(dp1308
bg43
tp1309
Rp1310
(dp1311
bg4
(g5
(I128
I3
tp1312
Rp1313
(dp1314
bg155
tp1315
Rp1316
(dp1317
bg4
(g5
(I-55
I3
tp1318
Rp1319
(dp1320
bg191
tp1321
Rp1322
(dp1323
btp1324
Rp1325
(dp1326
bg64
tp1327
Rp1328
(dp1329
bag69
(g1241
g64
tp1330
Rp1331
(dp1332
bag2
(g992
g64
tp1333
Rp1334
(dp1335
bag2
(g692
g64
tp1336
Rp1337
(dp1338
bag2
(g374
g64
tp1339
Rp1340
(dp1341
bag2
(g329
g64
tp1342
Rp1343
(dp1344
bag2
(g61
g64
tp1345
Rp1346
(dp1347
bag2
(g251
g64
tp1348
Rp1349
(dp1350
bag2
(g104
g64
tp1351
Rp1352
(dp1353
bag69
(g113
g64
tp1354
Rp1355
(dp1356
bag69
(g13
g64
tp1357
Rp1358
(dp1359
bag69
(g122
g64
tp1360
Rp1361
(dp1362
bag2
(g137
g64
tp1363
Rp1364
(dp1365
bag2
(g164
g64
tp1366
Rp1367
(dp1368
bag69
(g203
g64
tp1369
Rp1370
(dp1371
bag2
(g233
g64
tp1372
Rp1373
(dp1374
ba(lp1375
g2
(g55
g64
tp1376
Rp1377
(dp1378
batp1379
a((lp1380
g2
(g1166
g64
tp1381
Rp1382
(dp1383
bag2
(g992
g64
tp1384
Rp1385
(dp1386
bag2
(g692
g64
tp1387
Rp1388
(dp1389
bag2
(g374
g64
tp1390
Rp1391
(dp1392
bag2
(g329
g64
tp1393
Rp1394
(dp1395
bag2
(g61
g64
tp1396
Rp1397
(dp1398
bag2
(g251
g64
tp1399
Rp1400
(dp1401
bag2
(g104
g64
tp1402
Rp1403
(dp1404
bag69
(g113
g64
tp1405
Rp1406
(dp1407
bag69
(g13
g64
tp1408
Rp1409
(dp1410
bag69
(g122
g64
tp1411
Rp1412
(dp1413
bag2
(g137
g64
tp1414
Rp1415
(dp1416
bag2
(g164
g64
tp1417
Rp1418
(dp1419
bag69
(g203
g64
tp1420
Rp1421
(dp1422
bag2
(g233
g64
tp1423
Rp1424
(dp1425
ba(lp1426
g2
(g55
g64
tp1427
Rp1428
(dp1429
batp1430
a((lp1431
g2
(g1325
g64
tp1432
Rp1433
(dp1434
bag2
(g1166
g64
tp1435
Rp1436
(dp1437
bag2
(g992
g64
tp1438
Rp1439
(dp1440
bag2
(g692
g64
tp1441
Rp1442
(dp1443
bag2
(g374
g64
tp1444
Rp1445
(dp1446
bag2
(g329
g64
tp1447
Rp1448
(dp1449
bag2
(g61
g64
tp1450
Rp1451
(dp1452
bag2
(g251
g64
tp1453
Rp1454
(dp1455
bag2
(g104
g64
tp1456
Rp1457
(dp1458
bag69
(g113
g64
tp1459
Rp1460
(dp1461
bag69
(g13
g64
tp1462
Rp1463
(dp1464
bag69
(g122
g64
tp1465
Rp1466
(dp1467
bag2
(g137
g64
tp1468
Rp1469
(dp1470
bag2
(g164
g64
tp1471
Rp1472
(dp1473
bag69
(g203
g64
tp1474
Rp1475
(dp1476
bag2
(g233
g64
tp1477
Rp1478
(dp1479
ba(lp1480
g2
(g55
g64
tp1481
Rp1482
(dp1483
batp1484
a((lp1485
g2
(g251
g64
tp1486
Rp1487
(dp1488
bag2
(g1325
g64
tp1489
Rp1490
(dp1491
bag2
(g1166
g64
tp1492
Rp1493
(dp1494
bag2
(g992
g64
tp1495
Rp1496
(dp1497
bag2
(g692
g64
tp1498
Rp1499
(dp1500
bag2
(g374
g64
tp1501
Rp1502
(dp1503
bag2
(g329
g64
tp1504
Rp1505
(dp1506
bag2
(g61
g64
tp1507
Rp1508
(dp1509
bag2
(g251
g64
tp1510
Rp1511
(dp1512
bag2
(g104
g64
tp1513
Rp1514
(dp1515
bag69
(g113
g64
tp1516
Rp1517
(dp1518
bag69
(g13
g64
tp1519
Rp1520
(dp1521
bag69
(g122
g64
tp1522
Rp1523
(dp1524
bag2
(g137
g64
tp1525
Rp1526
(dp1527
bag2
(g164
g64
tp1528
Rp1529
(dp1530
bag69
(g203
g64
tp1531
Rp1532
(dp1533
bag2
(g233
g64
tp1534
Rp1535
(dp1536
ba(lp1537
g2
(g55
g64
tp1538
Rp1539
(dp1540
batp1541
a((lp1542
g2
(g1325
g64
tp1543
Rp1544
(dp1545
bag69
(g80
g64
tp1546
Rp1547
(dp1548
bag2
(g1325
g64
tp1549
Rp1550
(dp1551
bag2
(g1166
g64
tp1552
Rp1553
(dp1554
bag2
(g992
g64
tp1555
Rp1556
(dp1557
bag2
(g692
g64
tp1558
Rp1559
(dp1560
bag2
(g374
g64
tp1561
Rp1562
(dp1563
bag2
(g329
g64
tp1564
Rp1565
(dp1566
bag2
(g61
g64
tp1567
Rp1568
(dp1569
bag2
(g251
g64
tp1570
Rp1571
(dp1572
bag2
(g104
g64
tp1573
Rp1574
(dp1575
bag69
(g113
g64
tp1576
Rp1577
(dp1578
bag69
(g13
g64
tp1579
Rp1580
(dp1581
bag69
(g122
g64
tp1582
Rp1583
(dp1584
bag2
(g137
g64
tp1585
Rp1586
(dp1587
bag2
(g164
g64
tp1588
Rp1589
(dp1590
bag69
(g203
g64
tp1591
Rp1592
(dp1593
bag2
(g233
g64
tp1594
Rp1595
(dp1596
ba(lp1597
g2
(g55
g64
tp1598
Rp1599
(dp1600
batp1601
a((lp1602
g2
(g251
g64
tp1603
Rp1604
(dp1605
bag2
(g1325
g64
tp1606
Rp1607
(dp1608
bag2
(g1166
g64
tp1609
Rp1610
(dp1611
bag2
(g992
g64
tp1612
Rp1613
(dp1614
bag2
(g692
g64
tp1615
Rp1616
(dp1617
bag2
(g374
g64
tp1618
Rp1619
(dp1620
bag2
(g329
g64
tp1621
Rp1622
(dp1623
bag2
(g61
g64
tp1624
Rp1625
(dp1626
bag2
(g251
g64
tp1627
Rp1628
(dp1629
bag2
(g104
g64
tp1630
Rp1631
(dp1632
bag69
(g113
g64
tp1633
Rp1634
(dp1635
bag69
(g13
g64
tp1636
Rp1637
(dp1638
bag69
(g122
g64
tp1639
Rp1640
(dp1641
bag2
(g137
g64
tp1642
Rp1643
(dp1644
bag2
(g164
g64
tp1645
Rp1646
(dp1647
bag69
(g203
g64
tp1648
Rp1649
(dp1650
bag2
(g233
g64
tp1651
Rp1652
(dp1653
ba(lp1654
g2
(g55
g64
tp1655
Rp1656
(dp1657
batp1658
a((lp1659
g2
(g1325
g64
tp1660
Rp1661
(dp1662
bag2
(g1325
g64
tp1663
Rp1664
(dp1665
bag2
(g1166
g64
tp1666
Rp1667
(dp1668
bag2
(g992
g64
tp1669
Rp1670
(dp1671
bag2
(g692
g64
tp1672
Rp1673
(dp1674
bag2
(g374
g64
tp1675
Rp1676
(dp1677
bag2
(g329
g64
tp1678
Rp1679
(dp1680
bag2
(g61
g64
tp1681
Rp1682
(dp1683
bag2
(g251
g64
tp1684
Rp1685
(dp1686
bag2
(g104
g64
tp1687
Rp1688
(dp1689
bag69
(g113
g64
tp1690
Rp1691
(dp1692
bag69
(g13
g64
tp1693
Rp1694
(dp1695
bag69
(g122
g64
tp1696
Rp1697
(dp1698
bag2
(g137
g64
tp1699
Rp1700
(dp1701
bag2
(g164
g64
tp1702
Rp1703
(dp1704
bag69
(g203
g64
tp1705
Rp1706
(dp1707
bag2
(g233
g64
tp1708
Rp1709
(dp1710
ba(lp1711
g2
(g55
g64
tp1712
Rp1713
(dp1714
batp1715
a((lp1716
g69
(g55
g64
tp1717
Rp1718
(dp1719
bag2
(g1325
g64
tp1720
Rp1721
(dp1722
bag2
(g1166
g64
tp1723
Rp1724
(dp1725
bag2
(g992
g64
tp1726
Rp1727
(dp1728
bag2
(g692
g64
tp1729
Rp1730
(dp1731
bag2
(g374
g64
tp1732
Rp1733
(dp1734
bag2
(g329
g64
tp1735
Rp1736
(dp1737
bag2
(g61
g64
tp1738
Rp1739
(dp1740
bag2
(g251
g64
tp1741
Rp1742
(dp1743
bag2
(g104
g64
tp1744
Rp1745
(dp1746
bag69
(g113
g64
tp1747
Rp1748
(dp1749
bag69
(g13
g64
tp1750
Rp1751
(dp1752
bag69
(g122
g64
tp1753
Rp1754
(dp1755
bag2
(g137
g64
tp1756
Rp1757
(dp1758
bag2
(g164
g64
tp1759
Rp1760
(dp1761
bag69
(g203
g64
tp1762
Rp1763
(dp1764
bag2
(g233
g64
tp1765
Rp1766
(dp1767
ba(lp1768
g2
(g55
g64
tp1769
Rp1770
(dp1771
batp1772
a((lp1773
g2
(g3
(g95
g4
(g5
(I3
I20
tp1774
Rp1775
(dp1776
bg9
(g13
g38
(I5
tp1777
Rp1778
(dp1779
btp1780
Rp1781
(dp1782
btp1783
Rp1784
(dp1785
bg101
tp1786
Rp1787
(dp1788
bg64
tp1789
Rp1790
(dp1791
bag69
(g55
g64
tp1792
Rp1793
(dp1794
bag2
(g233
g64
tp1795
Rp1796
(dp1797
bag69
(g203
g64
tp1798
Rp1799
(dp1800
bag2
(g164
g64
tp1801
Rp1802
(dp1803
bag2
(g137
g64
tp1804
Rp1805
(dp1806
bag69
(g122
g64
tp1807
Rp1808
(dp1809
bag69
(g13
g64
tp1810
Rp1811
(dp1812
bag69
(g113
g64
tp1813
Rp1814
(dp1815
bag2
(g104
g64
tp1816
Rp1817
(dp1818
bag2
(g251
g64
tp1819
Rp1820
(dp1821
bag2
(g61
g64
tp1822
Rp1823
(dp1824
bag2
(g329
g64
tp1825
Rp1826
(dp1827
bag2
(g374
g64
tp1828
Rp1829
(dp1830
bag2
(g692
g64
tp1831
Rp1832
(dp1833
bag2
(g992
g64
tp1834
Rp1835
(dp1836
bag2
(g1166
g64
tp1837
Rp1838
(dp1839
ba(lp1840
g69
(g1325
g64
tp1841
Rp1842
(dp1843
batp1844
a((lp1845
g2
(g3
(g689
g101
g4
(g5
(I-3
I40
tp1846
Rp1847
(dp1848
bg1781
tp1849
Rp1850
(dp1851
btp1852
Rp1853
(dp1854
bg64
tp1855
Rp1856
(dp1857
bacsympy.core.relational
Unequality
p1858
(g13
g64
tp1859
Rp1860
(dp1861
bag69
(g55
g64
tp1862
Rp1863
(dp1864
bag2
(g233
g64
tp1865
Rp1866
(dp1867
bag69
(g203
g64
tp1868
Rp1869
(dp1870
bag2
(g164
g64
tp1871
Rp1872
(dp1873
bag2
(g137
g64
tp1874
Rp1875
(dp1876
bag69
(g122
g64
tp1877
Rp1878
(dp1879
bag69
(g13
g64
tp1880
Rp1881
(dp1882
bag69
(g113
g64
tp1883
Rp1884
(dp1885
bag2
(g104
g64
tp1886
Rp1887
(dp1888
bag2
(g251
g64
tp1889
Rp1890
(dp1891
bag2
(g61
g64
tp1892
Rp1893
(dp1894
bag2
(g329
g64
tp1895
Rp1896
(dp1897
bag2
(g374
g64
tp1898
Rp1899
(dp1900
bag2
(g692
g64
tp1901
Rp1902
(dp1903
bag2
(g992
g64
tp1904
Rp1905
(dp1906
bag2
(g1166
g64
tp1907
Rp1908
(dp1909
ba(lp1910
g69
(g1325
g64
tp1911
Rp1912
(dp1913
batp1914
a((lp1915
g2
(g3
(g4
(g74
g92
tp1916
Rp1917
(dp1918
bg4
(g5
(I3
I40
tp1919
Rp1920
(dp1921
bg1781
tp1922
Rp1923
(dp1924
bg13
tp1925
Rp1926
(dp1927
bg64
tp1928
Rp1929
(dp1930
bag1858
(g13
g64
tp1931
Rp1932
(dp1933
bag69
(g55
g64
tp1934
Rp1935
(dp1936
bag2
(g233
g64
tp1937
Rp1938
(dp1939
bag69
(g203
g64
tp1940
Rp1941
(dp1942
bag2
(g164
g64
tp1943
Rp1944
(dp1945
bag2
(g137
g64
tp1946
Rp1947
(dp1948
bag69
(g122
g64
tp1949
Rp1950
(dp1951
bag69
(g13
g64
tp1952
Rp1953
(dp1954
bag69
(g113
g64
tp1955
Rp1956
(dp1957
bag2
(g104
g64
tp1958
Rp1959
(dp1960
bag2
(g251
g64
tp1961
Rp1962
(dp1963
bag2
(g61
g64
tp1964
Rp1965
(dp1966
bag2
(g329
g64
tp1967
Rp1968
(dp1969
bag2
(g374
g64
tp1970
Rp1971
(dp1972
bag2
(g692
g64
tp1973
Rp1974
(dp1975
bag2
(g992
g64
tp1976
Rp1977
(dp1978
bag2
(g1166
g64
tp1979
Rp1980
(dp1981
ba(lp1982
g69
(g1325
g64
tp1983
Rp1984
(dp1985
batp1986
a((lp1987
g2
(g1787
g64
tp1988
Rp1989
(dp1990
bag69
(g55
g64
tp1991
Rp1992
(dp1993
bag2
(g233
g64
tp1994
Rp1995
(dp1996
bag69
(g203
g64
tp1997
Rp1998
(dp1999
bag2
(g164
g64
tp2000
Rp2001
(dp2002
bag2
(g137
g64
tp2003
Rp2004
(dp2005
bag69
(g122
g64
tp2006
Rp2007
(dp2008
bag69
(g13
g64
tp2009
Rp2010
(dp2011
bag69
(g113
g64
tp2012
Rp2013
(dp2014
bag2
(g104
g64
tp2015
Rp2016
(dp2017
bag2
(g251
g64
tp2018
Rp2019
(dp2020
bag2
(g61
g64
tp2021
Rp2022
(dp2023
bag2
(g329
g64
tp2024
Rp2025
(dp2026
bag2
(g374
g64
tp2027
Rp2028
(dp2029
bag2
(g692
g64
tp2030
Rp2031
(dp2032
bag2
(g992
g64
tp2033
Rp2034
(dp2035
bag2
(g1166
g64
tp2036
Rp2037
(dp2038
ba(lp2039
g69
(g1325
g64
tp2040
Rp2041
(dp2042
batp2043
a((lp2044
g2
(g3
(g98
g4
(g1847
g43
tp2045
Rp2046
(dp2047
bg248
tp2048
Rp2049
(dp2050
bg64
tp2051
Rp2052
(dp2053
bag2
(g1787
g64
tp2054
Rp2055
(dp2056
bag69
(g55
g64
tp2057
Rp2058
(dp2059
bag2
(g233
g64
tp2060
Rp2061
(dp2062
bag69
(g203
g64
tp2063
Rp2064
(dp2065
bag2
(g164
g64
tp2066
Rp2067
(dp2068
bag2
(g137
g64
tp2069
Rp2070
(dp2071
bag69
(g122
g64
tp2072
Rp2073
(dp2074
bag69
(g13
g64
tp2075
Rp2076
(dp2077
bag69
(g113
g64
tp2078
Rp2079
(dp2080
bag2
(g104
g64
tp2081
Rp2082
(dp2083
bag2
(g251
g64
tp2084
Rp2085
(dp2086
bag2
(g61
g64
tp2087
Rp2088
(dp2089
bag2
(g329
g64
tp2090
Rp2091
(dp2092
bag2
(g374
g64
tp2093
Rp2094
(dp2095
bag2
(g692
g64
tp2096
Rp2097
(dp2098
bag2
(g992
g64
tp2099
Rp2100
(dp2101
bag2
(g1166
g64
tp2102
Rp2103
(dp2104
ba(lp2105
g69
(g1325
g64
tp2106
Rp2107
(dp2108
batp2109
a((lp2110
g2
(g3
(g71
g77
g4
(g1920
g43
tp2111
Rp2112
(dp2113
btp2114
Rp2115
(dp2116
bg64
tp2117
Rp2118
(dp2119
bag2
(g1787
g64
tp2120
Rp2121
(dp2122
bag69
(g55
g64
tp2123
Rp2124
(dp2125
bag2
(g233
g64
tp2126
Rp2127
(dp2128
bag69
(g203
g64
tp2129
Rp2130
(dp2131
bag2
(g164
g64
tp2132
Rp2133
(dp2134
bag2
(g137
g64
tp2135
Rp2136
(dp2137
bag69
(g122
g64
tp2138
Rp2139
(dp2140
bag69
(g13
g64
tp2141
Rp2142
(dp2143
bag69
(g113
g64
tp2144
Rp2145
(dp2146
bag2
(g104
g64
tp2147
Rp2148
(dp2149
bag2
(g251
g64
tp2150
Rp2151
(dp2152
bag2
(g61
g64
tp2153
Rp2154
(dp2155
bag2
(g329
g64
tp2156
Rp2157
(dp2158
bag2
(g374
g64
tp2159
Rp2160
(dp2161
bag2
(g692
g64
tp2162
Rp2163
(dp2164
bag2
(g992
g64
tp2165
Rp2166
(dp2167
bag2
(g1166
g64
tp2168
Rp2169
(dp2170
ba(lp2171
g69
(g1325
g64
tp2172
Rp2173
(dp2174
batp2175
a((lp2176
g69
(g55
g64
tp2177
Rp2178
(dp2179
bag2
(g1787
g64
tp2180
Rp2181
(dp2182
bag69
(g55
g64
tp2183
Rp2184
(dp2185
bag2
(g233
g64
tp2186
Rp2187
(dp2188
bag69
(g203
g64
tp2189
Rp2190
(dp2191
bag2
(g164
g64
tp2192
Rp2193
(dp2194
bag2
(g137
g64
tp2195
Rp2196
(dp2197
bag69
(g122
g64
tp2198
Rp2199
(dp2200
bag69
(g13
g64
tp2201
Rp2202
(dp2203
bag69
(g113
g64
tp2204
Rp2205
(dp2206
bag2
(g104
g64
tp2207
Rp2208
(dp2209
bag2
(g251
g64
tp2210
Rp2211
(dp2212
bag2
(g61
g64
tp2213
Rp2214
(dp2215
bag2
(g329
g64
tp2216
Rp2217
(dp2218
bag2
(g374
g64
tp2219
Rp2220
(dp2221
bag2
(g692
g64
tp2222
Rp2223
(dp2224
bag2
(g992
g64
tp2225
Rp2226
(dp2227
bag2
(g1166
g64
tp2228
Rp2229
(dp2230
ba(lp2231
g69
(g1325
g64
tp2232
Rp2233
(dp2234
batp2235
a((lp2236
g2
(g3
(g4
(g5
(I7
I120
tp2237
Rp2238
(dp2239
bg43
tp2240
Rp2241
(dp2242
bg4
(g1847
g155
tp2243
Rp2244
(dp2245
bg58
tp2246
Rp2247
(dp2248
bg64
tp2249
Rp2250
(dp2251
bag69
(g2115
g64
tp2252
Rp2253
(dp2254
bag2
(g1787
g64
tp2255
Rp2256
(dp2257
bag69
(g55
g64
tp2258
Rp2259
(dp2260
bag2
(g233
g64
tp2261
Rp2262
(dp2263
bag69
(g203
g64
tp2264
Rp2265
(dp2266
bag2
(g164
g64
tp2267
Rp2268
(dp2269
bag2
(g137
g64
tp2270
Rp2271
(dp2272
bag69
(g122
g64
tp2273
Rp2274
(dp2275
bag69
(g13
g64
tp2276
Rp2277
(dp2278
bag69
(g113
g64
tp2279
Rp2280
(dp2281
bag2
(g104
g64
tp2282
Rp2283
(dp2284
bag2
(g251
g64
tp2285
Rp2286
(dp2287
bag2
(g61
g64
tp2288
Rp2289
(dp2290
bag2
(g329
g64
tp2291
Rp2292
(dp2293
bag2
(g374
g64
tp2294
Rp2295
(dp2296
bag2
(g692
g64
tp2297
Rp2298
(dp2299
bag2
(g992
g64
tp2300
Rp2301
(dp2302
bag2
(g1166
g64
tp2303
Rp2304
(dp2305
ba(lp2306
g69
(g1325
g64
tp2307
Rp2308
(dp2309
batp2310
a((lp2311
g2
(g2049
g64
tp2312
Rp2313
(dp2314
bag2
(g1787
g64
tp2315
Rp2316
(dp2317
bag69
(g55
g64
tp2318
Rp2319
(dp2320
bag2
(g233
g64
tp2321
Rp2322
(dp2323
bag69
(g203
g64
tp2324
Rp2325
(dp2326
bag2
(g164
g64
tp2327
Rp2328
(dp2329
bag2
(g137
g64
tp2330
Rp2331
(dp2332
bag69
(g122
g64
tp2333
Rp2334
(dp2335
bag69
(g13
g64
tp2336
Rp2337
(dp2338
bag69
(g113
g64
tp2339
Rp2340
(dp2341
bag2
(g104
g64
tp2342
Rp2343
(dp2344
bag2
(g251
g64
tp2345
Rp2346
(dp2347
bag2
(g61
g64
tp2348
Rp2349
(dp2350
bag2
(g329
g64
tp2351
Rp2352
(dp2353
bag2
(g374
g64
tp2354
Rp2355
(dp2356
bag2
(g692
g64
tp2357
Rp2358
(dp2359
bag2
(g992
g64
tp2360
Rp2361
(dp2362
bag2
(g1166
g64
tp2363
Rp2364
(dp2365
ba(lp2366
g69
(g1325
g64
tp2367
Rp2368
(dp2369
batp2370
a((lp2371
g2
(g2247
g64
tp2372
Rp2373
(dp2374
bag2
(g2049
g64
tp2375
Rp2376
(dp2377
bag2
(g1787
g64
tp2378
Rp2379
(dp2380
bag69
(g55
g64
tp2381
Rp2382
(dp2383
bag2
(g233
g64
tp2384
Rp2385
(dp2386
bag69
(g203
g64
tp2387
Rp2388
(dp2389
bag2
(g164
g64
tp2390
Rp2391
(dp2392
bag2
(g137
g64
tp2393
Rp2394
(dp2395
bag69
(g122
g64
tp2396
Rp2397
(dp2398
bag69
(g13
g64
tp2399
Rp2400
(dp2401
bag69
(g113
g64
tp2402
Rp2403
(dp2404
bag2
(g104
g64
tp2405
Rp2406
(dp2407
bag2
(g251
g64
tp2408
Rp2409
(dp2410
bag2
(g61
g64
tp2411
Rp2412
(dp2413
bag2
(g329
g64
tp2414
Rp2415
(dp2416
bag2
(g374
g64
tp2417
Rp2418
(dp2419
bag2
(g692
g64
tp2420
Rp2421
(dp2422
bag2
(g992
g64
tp2423
Rp2424
(dp2425
bag2
(g1166
g64
tp2426
Rp2427
(dp2428
ba(lp2429
g69
(g1325
g64
tp2430
Rp2431
(dp2432
batp2433
a((lp2434
g2
(g2049
g64
tp2435
Rp2436
(dp2437
bag2
(g2247
g64
tp2438
Rp2439
(dp2440
bag2
(g2049
g64
tp2441
Rp2442
(dp2443
bag2
(g1787
g64
tp2444
Rp2445
(dp2446
bag69
(g55
g64
tp2447
Rp2448
(dp2449
bag2
(g233
g64
tp2450
Rp2451
(dp2452
bag69
(g203
g64
tp2453
Rp2454
(dp2455
bag2
(g164
g64
tp2456
Rp2457
(dp2458
bag2
(g137
g64
tp2459
Rp2460
(dp2461
bag69
(g122
g64
tp2462
Rp2463
(dp2464
bag69
(g13
g64
tp2465
Rp2466
(dp2467
bag69
(g113
g64
tp2468
Rp2469
(dp2470
bag2
(g104
g64
tp2471
Rp2472
(dp2473
bag2
(g251
g64
tp2474
Rp2475
(dp2476
bag2
(g61
g64
tp2477
Rp2478
(dp2479
bag2
(g329
g64
tp2480
Rp2481
(dp2482
bag2
(g374
g64
tp2483
Rp2484
(dp2485
bag2
(g692
g64
tp2486
Rp2487
(dp2488
bag2
(g992
g64
tp2489
Rp2490
(dp2491
bag2
(g1166
g64
tp2492
Rp2493
(dp2494
ba(lp2495
g69
(g1325
g64
tp2496
Rp2497
(dp2498
batp2499
a((lp2500
g2
(g329
g64
tp2501
Rp2502
(dp2503
bag2
(g2247
g64
tp2504
Rp2505
(dp2506
bag2
(g2049
g64
tp2507
Rp2508
(dp2509
bag2
(g1787
g64
tp2510
Rp2511
(dp2512
bag69
(g55
g64
tp2513
Rp2514
(dp2515
bag2
(g233
g64
tp2516
Rp2517
(dp2518
bag69
(g203
g64
tp2519
Rp2520
(dp2521
bag2
(g164
g64
tp2522
Rp2523
(dp2524
bag2
(g137
g64
tp2525
Rp2526
(dp2527
bag69
(g122
g64
tp2528
Rp2529
(dp2530
bag69
(g13
g64
tp2531
Rp2532
(dp2533
bag69
(g113
g64
tp2534
Rp2535
(dp2536
bag2
(g104
g64
tp2537
Rp2538
(dp2539
bag2
(g251
g64
tp2540
Rp2541
(dp2542
bag2
(g61
g64
tp2543
Rp2544
(dp2545
bag2
(g329
g64
tp2546
Rp2547
(dp2548
bag2
(g374
g64
tp2549
Rp2550
(dp2551
bag2
(g692
g64
tp2552
Rp2553
(dp2554
bag2
(g992
g64
tp2555
Rp2556
(dp2557
bag2
(g1166
g64
tp2558
Rp2559
(dp2560
ba(lp2561
g69
(g1325
g64
tp2562
Rp2563
(dp2564
batp2565
a((lp2566
g2
(g3
(g4
(g5
(I-13
I60
tp2567
Rp2568
(dp2569
bg43
tp2570
Rp2571
(dp2572
bg4
(g5
(I-3
I10
tp2573
Rp2574
(dp2575
bg155
tp2576
Rp2577
(dp2578
btp2579
Rp2580
(dp2581
bg64
tp2582
Rp2583
(dp2584
bag69
(g383
g64
tp2585
Rp2586
(dp2587
bag2
(g2247
g64
tp2588
Rp2589
(dp2590
bag2
(g2049
g64
tp2591
Rp2592
(dp2593
bag2
(g1787
g64
tp2594
Rp2595
(dp2596
bag69
(g55
g64
tp2597
Rp2598
(dp2599
bag2
(g233
g64
tp2600
Rp2601
(dp2602
bag69
(g203
g64
tp2603
Rp2604
(dp2605
bag2
(g164
g64
tp2606
Rp2607
(dp2608
bag2
(g137
g64
tp2609
Rp2610
(dp2611
bag69
(g122
g64
tp2612
Rp2613
(dp2614
bag69
(g13
g64
tp2615
Rp2616
(dp2617
bag69
(g113
g64
tp2618
Rp2619
(dp2620
bag2
(g104
g64
tp2621
Rp2622
(dp2623
bag2
(g251
g64
tp2624
Rp2625
(dp2626
bag2
(g61
g64
tp2627
Rp2628
(dp2629
bag2
(g329
g64
tp2630
Rp2631
(dp2632
bag2
(g374
g64
tp2633
Rp2634
(dp2635
bag2
(g692
g64
tp2636
Rp2637
(dp2638
bag2
(g992
g64
tp2639
Rp2640
(dp2641
bag2
(g1166
g64
tp2642
Rp2643
(dp2644
ba(lp2645
g69
(g1325
g64
tp2646
Rp2647
(dp2648
batp2649
a((lp2650
g2
(g329
g64
tp2651
Rp2652
(dp2653
bag2
(g2247
g64
tp2654
Rp2655
(dp2656
bag2
(g2049
g64
tp2657
Rp2658
(dp2659
bag2
(g1787
g64
tp2660
Rp2661
(dp2662
bag69
(g55
g64
tp2663
Rp2664
(dp2665
bag2
(g233
g64
tp2666
Rp2667
(dp2668
bag69
(g203
g64
tp2669
Rp2670
(dp2671
bag2
(g164
g64
tp2672
Rp2673
(dp2674
bag2
(g137
g64
tp2675
Rp2676
(dp2677
bag69
(g122
g64
tp2678
Rp2679
(dp2680
bag69
(g13
g64
tp2681
Rp2682
(dp2683
bag69
(g113
g64
tp2684
Rp2685
(dp2686
bag2
(g104
g64
tp2687
Rp2688
(dp2689
bag2
(g251
g64
tp2690
Rp2691
(dp2692
bag2
(g61
g64
tp2693
Rp2694
(dp2695
bag2
(g329
g64
tp2696
Rp2697
(dp2698
bag2
(g374
g64
tp2699
Rp2700
(dp2701
bag2
(g692
g64
tp2702
Rp2703
(dp2704
bag2
(g992
g64
tp2705
Rp2706
(dp2707
bag2
(g1166
g64
tp2708
Rp2709
(dp2710
ba(lp2711
g69
(g1325
g64
tp2712
Rp2713
(dp2714
batp2715
a((lp2716
g2
(g2580
g64
tp2717
Rp2718
(dp2719
bag2
(g2247
g64
tp2720
Rp2721
(dp2722
bag2
(g2049
g64
tp2723
Rp2724
(dp2725
bag2
(g1787
g64
tp2726
Rp2727
(dp2728
bag69
(g55
g64
tp2729
Rp2730
(dp2731
bag2
(g233
g64
tp2732
Rp2733
(dp2734
bag69
(g203
g64
tp2735
Rp2736
(dp2737
bag2
(g164
g64
tp2738
Rp2739
(dp2740
bag2
(g137
g64
tp2741
Rp2742
(dp2743
bag69
(g122
g64
tp2744
Rp2745
(dp2746
bag69
(g13
g64
tp2747
Rp2748
(dp2749
bag69
(g113
g64
tp2750
Rp2751
(dp2752
bag2
(g104
g64
tp2753
Rp2754
(dp2755
bag2
(g251
g64
tp2756
Rp2757
(dp2758
bag2
(g61
g64
tp2759
Rp2760
(dp2761
bag2
(g329
g64
tp2762
Rp2763
(dp2764
bag2
(g374
g64
tp2765
Rp2766
(dp2767
bag2
(g692
g64
tp2768
Rp2769
(dp2770
bag2
(g992
g64
tp2771
Rp2772
(dp2773
bag2
(g1166
g64
tp2774
Rp2775
(dp2776
ba(lp2777
g69
(g1325
g64
tp2778
Rp2779
(dp2780
batp2781
a((lp2782
g2
(g2049
g64
tp2783
Rp2784
(dp2785
bag2
(g2580
g64
tp2786
Rp2787
(dp2788
bag2
(g2247
g64
tp2789
Rp2790
(dp2791
bag2
(g2049
g64
tp2792
Rp2793
(dp2794
bag2
(g1787
g64
tp2795
Rp2796
(dp2797
bag69
(g55
g64
tp2798
Rp2799
(dp2800
bag2
(g233
g64
tp2801
Rp2802
(dp2803
bag69
(g203
g64
tp2804
Rp2805
(dp2806
bag2
(g164
g64
tp2807
Rp2808
(dp2809
bag2
(g137
g64
tp2810
Rp2811
(dp2812
bag69
(g122
g64
tp2813
Rp2814
(dp2815
bag69
(g13
g64
tp2816
Rp2817
(dp2818
bag69
(g113
g64
tp2819
Rp2820
(dp2821
bag2
(g104
g64
tp2822
Rp2823
(dp2824
bag2
(g251
g64
tp2825
Rp2826
(dp2827
bag2
(g61
g64
tp2828
Rp2829
(dp2830
bag2
(g329
g64
tp2831
Rp2832
(dp2833
bag2
(g374
g64
tp2834
Rp2835
(dp2836
bag2
(g692
g64
tp2837
Rp2838
(dp2839
bag2
(g992
g64
tp2840
Rp2841
(dp2842
bag2
(g1166
g64
tp2843
Rp2844
(dp2845
ba(lp2846
g69
(g1325
g64
tp2847
Rp2848
(dp2849
batp2850
a((lp2851
g2
(g2580
g64
tp2852
Rp2853
(dp2854
bag69
(g2115
g64
tp2855
Rp2856
(dp2857
bag2
(g2580
g64
tp2858
Rp2859
(dp2860
bag2
(g2247
g64
tp2861
Rp2862
(dp2863
bag2
(g2049
g64
tp2864
Rp2865
(dp2866
bag2
(g1787
g64
tp2867
Rp2868
(dp2869
bag69
(g55
g64
tp2870
Rp2871
(dp2872
bag2
(g233
g64
tp2873
Rp2874
(dp2875
bag69
(g203
g64
tp2876
Rp2877
(dp2878
bag2
(g164
g64
tp2879
Rp2880
(dp2881
bag2
(g137
g64
tp2882
Rp2883
(dp2884
bag69
(g122
g64
tp2885
Rp2886
(dp2887
bag69
(g13
g64
tp2888
Rp2889
(dp2890
bag69
(g113
g64
tp2891
Rp2892
(dp2893
bag2
(g104
g64
tp2894
Rp2895
(dp2896
bag2
(g251
g64
tp2897
Rp2898
(dp2899
bag2
(g61
g64
tp2900
Rp2901
(dp2902
bag2
(g329
g64
tp2903
Rp2904
(dp2905
bag2
(g374
g64
tp2906
Rp2907
(dp2908
bag2
(g692
g64
tp2909
Rp2910
(dp2911
bag2
(g992
g64
tp2912
Rp2913
(dp2914
bag2
(g1166
g64
tp2915
Rp2916
(dp2917
ba(lp2918
g69
(g1325
g64
tp2919
Rp2920
(dp2921
batp2922
a((lp2923
g2
(g2049
g64
tp2924
Rp2925
(dp2926
bag2
(g2580
g64
tp2927
Rp2928
(dp2929
bag2
(g2247
g64
tp2930
Rp2931
(dp2932
bag2
(g2049
g64
tp2933
Rp2934
(dp2935
bag2
(g1787
g64
tp2936
Rp2937
(dp2938
bag69
(g55
g64
tp2939
Rp2940
(dp2941
bag2
(g233
g64
tp2942
Rp2943
(dp2944
bag69
(g203
g64
tp2945
Rp2946
(dp2947
bag2
(g164
g64
tp2948
Rp2949
(dp2950
bag2
(g137
g64
tp2951
Rp2952
(dp2953
bag69
(g122
g64
tp2954
Rp2955
(dp2956
bag69
(g13
g64
tp2957
Rp2958
(dp2959
bag69
(g113
g64
tp2960
Rp2961
(dp2962
bag2
(g104
g64
tp2963
Rp2964
(dp2965
bag2
(g251
g64
tp2966
Rp2967
(dp2968
bag2
(g61
g64
tp2969
Rp2970
(dp2971
bag2
(g329
g64
tp2972
Rp2973
(dp2974
bag2
(g374
g64
tp2975
Rp2976
(dp2977
bag2
(g692
g64
tp2978
Rp2979
(dp2980
bag2
(g992
g64
tp2981
Rp2982
(dp2983
bag2
(g1166
g64
tp2984
Rp2985
(dp2986
ba(lp2987
g69
(g1325
g64
tp2988
Rp2989
(dp2990
batp2991
a((lp2992
g2
(g2580
g64
tp2993
Rp2994
(dp2995
bag2
(g2580
g64
tp2996
Rp2997
(dp2998
bag2
(g2247
g64
tp2999
Rp3000
(dp3001
bag2
(g2049
g64
tp3002
Rp3003
(dp3004
bag2
(g1787
g64
tp3005
Rp3006
(dp3007
bag69
(g55
g64
tp3008
Rp3009
(dp3010
bag2
(g233
g64
tp3011
Rp3012
(dp3013
bag69
(g203
g64
tp3014
Rp3015
(dp3016
bag2
(g164
g64
tp3017
Rp3018
(dp3019
bag2
(g137
g64
tp3020
Rp3021
(dp3022
bag69
(g122
g64
tp3023
Rp3024
(dp3025
bag69
(g13
g64
tp3026
Rp3027
(dp3028
bag69
(g113
g64
tp3029
Rp3030
(dp3031
bag2
(g104
g64
tp3032
Rp3033
(dp3034
bag2
(g251
g64
tp3035
Rp3036
(dp3037
bag2
(g61
g64
tp3038
Rp3039
(dp3040
bag2
(g329
g64
tp3041
Rp3042
(dp3043
bag2
(g374
g64
tp3044
Rp3045
(dp3046
bag2
(g692
g64
tp3047
Rp3048
(dp3049
bag2
(g992
g64
tp3050
Rp3051
(dp3052
bag2
(g1166
g64
tp3053
Rp3054
(dp3055
ba(lp3056
g69
(g1325
g64
tp3057
Rp3058
(dp3059
batp3060
a((lp3061
g2
(g1853
g64
tp3062
Rp3063
(dp3064
bag2
(g55
g64
tp3065
Rp3066
(dp3067
bag2
(g2580
g64
tp3068
Rp3069
(dp3070
bag2
(g2247
g64
tp3071
Rp3072
(dp3073
bag2
(g2049
g64
tp3074
Rp3075
(dp3076
bag2
(g1787
g64
tp3077
Rp3078
(dp3079
bag69
(g55
g64
tp3080
Rp3081
(dp3082
bag2
(g233
g64
tp3083
Rp3084
(dp3085
bag69
(g203
g64
tp3086
Rp3087
(dp3088
bag2
(g164
g64
tp3089
Rp3090
(dp3091
bag2
(g137
g64
tp3092
Rp3093
(dp3094
bag69
(g122
g64
tp3095
Rp3096
(dp3097
bag69
(g13
g64
tp3098
Rp3099
(dp3100
bag69
(g113
g64
tp3101
Rp3102
(dp3103
bag2
(g104
g64
tp3104
Rp3105
(dp3106
bag2
(g251
g64
tp3107
Rp3108
(dp3109
bag2
(g61
g64
tp3110
Rp3111
(dp3112
bag2
(g329
g64
tp3113
Rp3114
(dp3115
bag2
(g374
g64
tp3116
Rp3117
(dp3118
bag2
(g692
g64
tp3119
Rp3120
(dp3121
bag2
(g992
g64
tp3122
Rp3123
(dp3124
bag2
(g1166
g64
tp3125
Rp3126
(dp3127
ba(lp3128
g69
(g1325
g64
tp3129
Rp3130
(dp3131
batp3132
a((lp3133
g69
(g55
g64
tp3134
Rp3135
(dp3136
bag2
(g2580
g64
tp3137
Rp3138
(dp3139
bag2
(g2247
g64
tp3140
Rp3141
(dp3142
bag2
(g2049
g64
tp3143
Rp3144
(dp3145
bag2
(g1787
g64
tp3146
Rp3147
(dp3148
bag69
(g55
g64
tp3149
Rp3150
(dp3151
bag2
(g233
g64
tp3152
Rp3153
(dp3154
bag69
(g203
g64
tp3155
Rp3156
(dp3157
bag2
(g164
g64
tp3158
Rp3159
(dp3160
bag2
(g137
g64
tp3161
Rp3162
(dp3163
bag69
(g122
g64
tp3164
Rp3165
(dp3166
bag69
(g13
g64
tp3167
Rp3168
(dp3169
bag69
(g113
g64
tp3170
Rp3171
(dp3172
bag2
(g104
g64
tp3173
Rp3174
(dp3175
bag2
(g251
g64
tp3176
Rp3177
(dp3178
bag2
(g61
g64
tp3179
Rp3180
(dp3181
bag2
(g329
g64
tp3182
Rp3183
(dp3184
bag2
(g374
g64
tp3185
Rp3186
(dp3187
bag2
(g692
g64
tp3188
Rp3189
(dp3190
bag2
(g992
g64
tp3191
Rp3192
(dp3193
bag2
(g1166
g64
tp3194
Rp3195
(dp3196
ba(lp3197
g69
(g1325
g64
tp3198
Rp3199
(dp3200
batp3201
a((lp3202
g2
(g1853
g64
tp3203
Rp3204
(dp3205
bag2
(g791
g64
tp3206
Rp3207
(dp3208
bag2
(g2580
g64
tp3209
Rp3210
(dp3211
bag2
(g2247
g64
tp3212
Rp3213
(dp3214
bag2
(g2049
g64
tp3215
Rp3216
(dp3217
bag2
(g1787
g64
tp3218
Rp3219
(dp3220
bag69
(g55
g64
tp3221
Rp3222
(dp3223
bag2
(g233
g64
tp3224
Rp3225
(dp3226
bag69
(g203
g64
tp3227
Rp3228
(dp3229
bag2
(g164
g64
tp3230
Rp3231
(dp3232
bag2
(g137
g64
tp3233
Rp3234
(dp3235
bag69
(g122
g64
tp3236
Rp3237
(dp3238
bag69
(g13
g64
tp3239
Rp3240
(dp3241
bag69
(g113
g64
tp3242
Rp3243
(dp3244
bag2
(g104
g64
tp3245
Rp3246
(dp3247
bag2
(g251
g64
tp3248
Rp3249
(dp3250
bag2
(g61
g64
tp3251
Rp3252
(dp3253
bag2
(g329
g64
tp3254
Rp3255
(dp3256
bag2
(g374
g64
tp3257
Rp3258
(dp3259
bag2
(g692
g64
tp3260
Rp3261
(dp3262
bag2
(g992
g64
tp3263
Rp3264
(dp3265
bag2
(g1166
g64
tp3266
Rp3267
(dp3268
ba(lp3269
g69
(g1325
g64
tp3270
Rp3271
(dp3272
batp3273
a((lp3274
g2
(g1853
g64
tp3275
Rp3276
(dp3277
bag69
(g2115
g64
tp3278
Rp3279
(dp3280
bag2
(g2580
g64
tp3281
Rp3282
(dp3283
bag2
(g2247
g64
tp3284
Rp3285
(dp3286
bag2
(g2049
g64
tp3287
Rp3288
(dp3289
bag2
(g1787
g64
tp3290
Rp3291
(dp3292
bag69
(g55
g64
tp3293
Rp3294
(dp3295
bag2
(g233
g64
tp3296
Rp3297
(dp3298
bag69
(g203
g64
tp3299
Rp3300
(dp3301
bag2
(g164
g64
tp3302
Rp3303
(dp3304
bag2
(g137
g64
tp3305
Rp3306
(dp3307
bag69
(g122
g64
tp3308
Rp3309
(dp3310
bag69
(g13
g64
tp3311
Rp3312
(dp3313
bag69
(g113
g64
tp3314
Rp3315
(dp3316
bag2
(g104
g64
tp3317
Rp3318
(dp3319
bag2
(g251
g64
tp3320
Rp3321
(dp3322
bag2
(g61
g64
tp3323
Rp3324
(dp3325
bag2
(g329
g64
tp3326
Rp3327
(dp3328
bag2
(g374
g64
tp3329
Rp3330
(dp3331
bag2
(g692
g64
tp3332
Rp3333
(dp3334
bag2
(g992
g64
tp3335
Rp3336
(dp3337
bag2
(g1166
g64
tp3338
Rp3339
(dp3340
ba(lp3341
g69
(g1325
g64
tp3342
Rp3343
(dp3344
batp3345
a((lp3346
g2
(g3
(g4
(g5
(I-17
I120
tp3347
Rp3348
(dp3349
bg43
tp3350
Rp3351
(dp3352
bg4
(g5
(I3
I80
tp3353
Rp3354
(dp3355
bg155
tp3356
Rp3357
(dp3358
btp3359
Rp3360
(dp3361
bg64
tp3362
Rp3363
(dp3364
bag69
(g2115
g64
tp3365
Rp3366
(dp3367
bag2
(g2580
g64
tp3368
Rp3369
(dp3370
bag2
(g2247
g64
tp3371
Rp3372
(dp3373
bag2
(g2049
g64
tp3374
Rp3375
(dp3376
bag2
(g1787
g64
tp3377
Rp3378
(dp3379
bag69
(g55
g64
tp3380
Rp3381
(dp3382
bag2
(g233
g64
tp3383
Rp3384
(dp3385
bag69
(g203
g64
tp3386
Rp3387
(dp3388
bag2
(g164
g64
tp3389
Rp3390
(dp3391
bag2
(g137
g64
tp3392
Rp3393
(dp3394
bag69
(g122
g64
tp3395
Rp3396
(dp3397
bag69
(g13
g64
tp3398
Rp3399
(dp3400
bag69
(g113
g64
tp3401
Rp3402
(dp3403
bag2
(g104
g64
tp3404
Rp3405
(dp3406
bag2
(g251
g64
tp3407
Rp3408
(dp3409
bag2
(g61
g64
tp3410
Rp3411
(dp3412
bag2
(g329
g64
tp3413
Rp3414
(dp3415
bag2
(g374
g64
tp3416
Rp3417
(dp3418
bag2
(g692
g64
tp3419
Rp3420
(dp3421
bag2
(g992
g64
tp3422
Rp3423
(dp3424
bag2
(g1166
g64
tp3425
Rp3426
(dp3427
ba(lp3428
g69
(g1325
g64
tp3429
Rp3430
(dp3431
batp3432
a((lp3433
g2
(g3360
g64
tp3434
Rp3435
(dp3436
bag2
(g2580
g64
tp3437
Rp3438
(dp3439
bag2
(g2247
g64
tp3440
Rp3441
(dp3442
bag2
(g2049
g64
tp3443
Rp3444
(dp3445
bag2
(g1787
g64
tp3446
Rp3447
(dp3448
bag69
(g55
g64
tp3449
Rp3450
(dp3451
bag2
(g233
g64
tp3452
Rp3453
(dp3454
bag69
(g203
g64
tp3455
Rp3456
(dp3457
bag2
(g164
g64
tp3458
Rp3459
(dp3460
bag2
(g137
g64
tp3461
Rp3462
(dp3463
bag69
(g122
g64
tp3464
Rp3465
(dp3466
bag69
(g13
g64
tp3467
Rp3468
(dp3469
bag69
(g113
g64
tp3470
Rp3471
(dp3472
bag2
(g104
g64
tp3473
Rp3474
(dp3475
bag2
(g251
g64
tp3476
Rp3477
(dp3478
bag2
(g61
g64
tp3479
Rp3480
(dp3481
bag2
(g329
g64
tp3482
Rp3483
(dp3484
bag2
(g374
g64
tp3485
Rp3486
(dp3487
bag2
(g692
g64
tp3488
Rp3489
(dp3490
bag2
(g992
g64
tp3491
Rp3492
(dp3493
bag2
(g1166
g64
tp3494
Rp3495
(dp3496
ba(lp3497
g69
(g1325
g64
tp3498
Rp3499
(dp3500
batp3501
a((lp3502
g2
(g3
(g98
g989
g4
(g1775
g43
tp3503
Rp3504
(dp3505
btp3506
Rp3507
(dp3508
bg64
tp3509
Rp3510
(dp3511
bag2
(g3360
g64
tp3512
Rp3513
(dp3514
bag2
(g2580
g64
tp3515
Rp3516
(dp3517
bag2
(g2247
g64
tp3518
Rp3519
(dp3520
bag2
(g2049
g64
tp3521
Rp3522
(dp3523
bag2
(g1787
g64
tp3524
Rp3525
(dp3526
bag69
(g55
g64
tp3527
Rp3528
(dp3529
bag2
(g233
g64
tp3530
Rp3531
(dp3532
bag69
(g203
g64
tp3533
Rp3534
(dp3535
bag2
(g164
g64
tp3536
Rp3537
(dp3538
bag2
(g137
g64
tp3539
Rp3540
(dp3541
bag69
(g122
g64
tp3542
Rp3543
(dp3544
bag69
(g13
g64
tp3545
Rp3546
(dp3547
bag69
(g113
g64
tp3548
Rp3549
(dp3550
bag2
(g104
g64
tp3551
Rp3552
(dp3553
bag2
(g251
g64
tp3554
Rp3555
(dp3556
bag2
(g61
g64
tp3557
Rp3558
(dp3559
bag2
(g329
g64
tp3560
Rp3561
(dp3562
bag2
(g374
g64
tp3563
Rp3564
(dp3565
bag2
(g692
g64
tp3566
Rp3567
(dp3568
bag2
(g992
g64
tp3569
Rp3570
(dp3571
bag2
(g1166
g64
tp3572
Rp3573
(dp3574
ba(lp3575
g69
(g1325
g64
tp3576
Rp3577
(dp3578
batp3579
a((lp3580
g2
(g3507
g64
tp3581
Rp3582
(dp3583
bag2
(g3360
g64
tp3584
Rp3585
(dp3586
bag2
(g2580
g64
tp3587
Rp3588
(dp3589
bag2
(g2247
g64
tp3590
Rp3591
(dp3592
bag2
(g2049
g64
tp3593
Rp3594
(dp3595
bag2
(g1787
g64
tp3596
Rp3597
(dp3598
bag69
(g55
g64
tp3599
Rp3600
(dp3601
bag2
(g233
g64
tp3602
Rp3603
(dp3604
bag69
(g203
g64
tp3605
Rp3606
(dp3607
bag2
(g164
g64
tp3608
Rp3609
(dp3610
bag2
(g137
g64
tp3611
Rp3612
(dp3613
bag69
(g122
g64
tp3614
Rp3615
(dp3616
bag69
(g13
g64
tp3617
Rp3618
(dp3619
bag69
(g113
g64
tp3620
Rp3621
(dp3622
bag2
(g104
g64
tp3623
Rp3624
(dp3625
bag2
(g251
g64
tp3626
Rp3627
(dp3628
bag2
(g61
g64
tp3629
Rp3630
(dp3631
bag2
(g329
g64
tp3632
Rp3633
(dp3634
bag2
(g374
g64
tp3635
Rp3636
(dp3637
bag2
(g692
g64
tp3638
Rp3639
(dp3640
bag2
(g992
g64
tp3641
Rp3642
(dp3643
bag2
(g1166
g64
tp3644
Rp3645
(dp3646
ba(lp3647
g69
(g1325
g64
tp3648
Rp3649
(dp3650
batp3651
a((lp3652
g2
(g2049
g64
tp3653
Rp3654
(dp3655
bag2
(g3507
g64
tp3656
Rp3657
(dp3658
bag2
(g3360
g64
tp3659
Rp3660
(dp3661
bag2
(g2580
g64
tp3662
Rp3663
(dp3664
bag2
(g2247
g64
tp3665
Rp3666
(dp3667
bag2
(g2049
g64
tp3668
Rp3669
(dp3670
bag2
(g1787
g64
tp3671
Rp3672
(dp3673
bag69
(g55
g64
tp3674
Rp3675
(dp3676
bag2
(g233
g64
tp3677
Rp3678
(dp3679
bag69
(g203
g64
tp3680
Rp3681
(dp3682
bag2
(g164
g64
tp3683
Rp3684
(dp3685
bag2
(g137
g64
tp3686
Rp3687
(dp3688
bag69
(g122
g64
tp3689
Rp3690
(dp3691
bag69
(g13
g64
tp3692
Rp3693
(dp3694
bag69
(g113
g64
tp3695
Rp3696
(dp3697
bag2
(g104
g64
tp3698
Rp3699
(dp3700
bag2
(g251
g64
tp3701
Rp3702
(dp3703
bag2
(g61
g64
tp3704
Rp3705
(dp3706
bag2
(g329
g64
tp3707
Rp3708
(dp3709
bag2
(g374
g64
tp3710
Rp3711
(dp3712
bag2
(g692
g64
tp3713
Rp3714
(dp3715
bag2
(g992
g64
tp3716
Rp3717
(dp3718
bag2
(g1166
g64
tp3719
Rp3720
(dp3721
ba(lp3722
g69
(g1325
g64
tp3723
Rp3724
(dp3725
batp3726
a((lp3727
g2
(g1166
g64
tp3728
Rp3729
(dp3730
bag2
(g3507
g64
tp3731
Rp3732
(dp3733
bag2
(g3360
g64
tp3734
Rp3735
(dp3736
bag2
(g2580
g64
tp3737
Rp3738
(dp3739
bag2
(g2247
g64
tp3740
Rp3741
(dp3742
bag2
(g2049
g64
tp3743
Rp3744
(dp3745
bag2
(g1787
g64
tp3746
Rp3747
(dp3748
bag69
(g55
g64
tp3749
Rp3750
(dp3751
bag2
(g233
g64
tp3752
Rp3753
(dp3754
bag69
(g203
g64
tp3755
Rp3756
(dp3757
bag2
(g164
g64
tp3758
Rp3759
(dp3760
bag2
(g137
g64
tp3761
Rp3762
(dp3763
bag69
(g122
g64
tp3764
Rp3765
(dp3766
bag69
(g13
g64
tp3767
Rp3768
(dp3769
bag69
(g113
g64
tp3770
Rp3771
(dp3772
bag2
(g104
g64
tp3773
Rp3774
(dp3775
bag2
(g251
g64
tp3776
Rp3777
(dp3778
bag2
(g61
g64
tp3779
Rp3780
(dp3781
bag2
(g329
g64
tp3782
Rp3783
(dp3784
bag2
(g374
g64
tp3785
Rp3786
(dp3787
bag2
(g692
g64
tp3788
Rp3789
(dp3790
bag2
(g992
g64
tp3791
Rp3792
(dp3793
bag2
(g1166
g64
tp3794
Rp3795
(dp3796
ba(lp3797
g69
(g1325
g64
tp3798
Rp3799
(dp3800
batp3801
a((lp3802
g2
(g3
(g4
(g5
(I3
I4
tp3803
Rp3804
(dp3805
bg9
(g13
g38
(I12
tp3806
Rp3807
(dp3808
btp3809
Rp3810
(dp3811
btp3812
Rp3813
(dp3814
bg4
(g5
(I-296
I15
tp3815
Rp3816
(dp3817
bg155
tp3818
Rp3819
(dp3820
bg4
(g5
(I-146
I15
tp3821
Rp3822
(dp3823
bg1301
tp3824
Rp3825
(dp3826
bg4
(g5
(I391
I15
tp3827
Rp3828
(dp3829
bg191
tp3830
Rp3831
(dp3832
bg4
(g5
(I32
I15
tp3833
Rp3834
(dp3835
bg43
tp3836
Rp3837
(dp3838
btp3839
Rp3840
(dp3841
bg64
tp3842
Rp3843
(dp3844
bag69
(g1241
g64
tp3845
Rp3846
(dp3847
bag2
(g3507
g64
tp3848
Rp3849
(dp3850
bag2
(g3360
g64
tp3851
Rp3852
(dp3853
bag2
(g2580
g64
tp3854
Rp3855
(dp3856
bag2
(g2247
g64
tp3857
Rp3858
(dp3859
bag2
(g2049
g64
tp3860
Rp3861
(dp3862
bag2
(g1787
g64
tp3863
Rp3864
(dp3865
bag69
(g55
g64
tp3866
Rp3867
(dp3868
bag2
(g233
g64
tp3869
Rp3870
(dp3871
bag69
(g203
g64
tp3872
Rp3873
(dp3874
bag2
(g164
g64
tp3875
Rp3876
(dp3877
bag2
(g137
g64
tp3878
Rp3879
(dp3880
bag69
(g122
g64
tp3881
Rp3882
(dp3883
bag69
(g13
g64
tp3884
Rp3885
(dp3886
bag69
(g113
g64
tp3887
Rp3888
(dp3889
bag2
(g104
g64
tp3890
Rp3891
(dp3892
bag2
(g251
g64
tp3893
Rp3894
(dp3895
bag2
(g61
g64
tp3896
Rp3897
(dp3898
bag2
(g329
g64
tp3899
Rp3900
(dp3901
bag2
(g374
g64
tp3902
Rp3903
(dp3904
bag2
(g692
g64
tp3905
Rp3906
(dp3907
bag2
(g992
g64
tp3908
Rp3909
(dp3910
bag2
(g1166
g64
tp3911
Rp3912
(dp3913
ba(lp3914
g69
(g1325
g64
tp3915
Rp3916
(dp3917
batp3918
a((lp3919
g2
(g1241
g64
tp3920
Rp3921
(dp3922
bag69
(g3840
g64
tp3923
Rp3924
(dp3925
bag2
(g3507
g64
tp3926
Rp3927
(dp3928
bag2
(g3360
g64
tp3929
Rp3930
(dp3931
bag2
(g2580
g64
tp3932
Rp3933
(dp3934
bag2
(g2247
g64
tp3935
Rp3936
(dp3937
bag2
(g2049
g64
tp3938
Rp3939
(dp3940
bag2
(g1787
g64
tp3941
Rp3942
(dp3943
bag69
(g55
g64
tp3944
Rp3945
(dp3946
bag2
(g233
g64
tp3947
Rp3948
(dp3949
bag69
(g203
g64
tp3950
Rp3951
(dp3952
bag2
(g164
g64
tp3953
Rp3954
(dp3955
bag2
(g137
g64
tp3956
Rp3957
(dp3958
bag69
(g122
g64
tp3959
Rp3960
(dp3961
bag69
(g13
g64
tp3962
Rp3963
(dp3964
bag69
(g113
g64
tp3965
Rp3966
(dp3967
bag2
(g104
g64
tp3968
Rp3969
(dp3970
bag2
(g251
g64
tp3971
Rp3972
(dp3973
bag2
(g61
g64
tp3974
Rp3975
(dp3976
bag2
(g329
g64
tp3977
Rp3978
(dp3979
bag2
(g374
g64
tp3980
Rp3981
(dp3982
bag2
(g692
g64
tp3983
Rp3984
(dp3985
bag2
(g992
g64
tp3986
Rp3987
(dp3988
bag2
(g1166
g64
tp3989
Rp3990
(dp3991
ba(lp3992
g69
(g1325
g64
tp3993
Rp3994
(dp3995
batp3996
a((lp3997
g2
(g1166
g64
tp3998
Rp3999
(dp4000
bag2
(g3507
g64
tp4001
Rp4002
(dp4003
bag2
(g3360
g64
tp4004
Rp4005
(dp4006
bag2
(g2580
g64
tp4007
Rp4008
(dp4009
bag2
(g2247
g64
tp4010
Rp4011
(dp4012
bag2
(g2049
g64
tp4013
Rp4014
(dp4015
bag2
(g1787
g64
tp4016
Rp4017
(dp4018
bag69
(g55
g64
tp4019
Rp4020
(dp4021
bag2
(g233
g64
tp4022
Rp4023
(dp4024
bag69
(g203
g64
tp4025
Rp4026
(dp4027
bag2
(g164
g64
tp4028
Rp4029
(dp4030
bag2
(g137
g64
tp4031
Rp4032
(dp4033
bag69
(g122
g64
tp4034
Rp4035
(dp4036
bag69
(g13
g64
tp4037
Rp4038
(dp4039
bag69
(g113
g64
tp4040
Rp4041
(dp4042
bag2
(g104
g64
tp4043
Rp4044
(dp4045
bag2
(g251
g64
tp4046
Rp4047
(dp4048
bag2
(g61
g64
tp4049
Rp4050
(dp4051
bag2
(g329
g64
tp4052
Rp4053
(dp4054
bag2
(g374
g64
tp4055
Rp4056
(dp4057
bag2
(g692
g64
tp4058
Rp4059
(dp4060
bag2
(g992
g64
tp4061
Rp4062
(dp4063
bag2
(g1166
g64
tp4064
Rp4065
(dp4066
ba(lp4067
g69
(g1325
g64
tp4068
Rp4069
(dp4070
batp4071
a((lp4072
g2
(g3840
g64
tp4073
Rp4074
(dp4075
bag2
(g3507
g64
tp4076
Rp4077
(dp4078
bag2
(g3360
g64
tp4079
Rp4080
(dp4081
bag2
(g2580
g64
tp4082
Rp4083
(dp4084
bag2
(g2247
g64
tp4085
Rp4086
(dp4087
bag2
(g2049
g64
tp4088
Rp4089
(dp4090
bag2
(g1787
g64
tp4091
Rp4092
(dp4093
bag69
(g55
g64
tp4094
Rp4095
(dp4096
bag2
(g233
g64
tp4097
Rp4098
(dp4099
bag69
(g203
g64
tp4100
Rp4101
(dp4102
bag2
(g164
g64
tp4103
Rp4104
(dp4105
bag2
(g137
g64
tp4106
Rp4107
(dp4108
bag69
(g122
g64
tp4109
Rp4110
(dp4111
bag69
(g13
g64
tp4112
Rp4113
(dp4114
bag69
(g113
g64
tp4115
Rp4116
(dp4117
bag2
(g104
g64
tp4118
Rp4119
(dp4120
bag2
(g251
g64
tp4121
Rp4122
(dp4123
bag2
(g61
g64
tp4124
Rp4125
(dp4126
bag2
(g329
g64
tp4127
Rp4128
(dp4129
bag2
(g374
g64
tp4130
Rp4131
(dp4132
bag2
(g692
g64
tp4133
Rp4134
(dp4135
bag2
(g992
g64
tp4136
Rp4137
(dp4138
bag2
(g1166
g64
tp4139
Rp4140
(dp4141
ba(lp4142
g69
(g1325
g64
tp4143
Rp4144
(dp4145
batp4146
a((lp4147
g2
(g2049
g64
tp4148
Rp4149
(dp4150
bag2
(g3840
g64
tp4151
Rp4152
(dp4153
bag2
(g3507
g64
tp4154
Rp4155
(dp4156
bag2
(g3360
g64
tp4157
Rp4158
(dp4159
bag2
(g2580
g64
tp4160
Rp4161
(dp4162
bag2
(g2247
g64
tp4163
Rp4164
(dp4165
bag2
(g2049
g64
tp4166
Rp4167
(dp4168
bag2
(g1787
g64
tp4169
Rp4170
(dp4171
bag69
(g55
g64
tp4172
Rp4173
(dp4174
bag2
(g233
g64
tp4175
Rp4176
(dp4177
bag69
(g203
g64
tp4178
Rp4179
(dp4180
bag2
(g164
g64
tp4181
Rp4182
(dp4183
bag2
(g137
g64
tp4184
Rp4185
(dp4186
bag69
(g122
g64
tp4187
Rp4188
(dp4189
bag69
(g13
g64
tp4190
Rp4191
(dp4192
bag69
(g113
g64
tp4193
Rp4194
(dp4195
bag2
(g104
g64
tp4196
Rp4197
(dp4198
bag2
(g251
g64
tp4199
Rp4200
(dp4201
bag2
(g61
g64
tp4202
Rp4203
(dp4204
bag2
(g329
g64
tp4205
Rp4206
(dp4207
bag2
(g374
g64
tp4208
Rp4209
(dp4210
bag2
(g692
g64
tp4211
Rp4212
(dp4213
bag2
(g992
g64
tp4214
Rp4215
(dp4216
bag2
(g1166
g64
tp4217
Rp4218
(dp4219
ba(lp4220
g69
(g1325
g64
tp4221
Rp4222
(dp4223
batp4224
a((lp4225
g2
(g3840
g64
tp4226
Rp4227
(dp4228
bag69
(g2115
g64
tp4229
Rp4230
(dp4231
bag2
(g3840
g64
tp4232
Rp4233
(dp4234
bag2
(g3507
g64
tp4235
Rp4236
(dp4237
bag2
(g3360
g64
tp4238
Rp4239
(dp4240
bag2
(g2580
g64
tp4241
Rp4242
(dp4243
bag2
(g2247
g64
tp4244
Rp4245
(dp4246
bag2
(g2049
g64
tp4247
Rp4248
(dp4249
bag2
(g1787
g64
tp4250
Rp4251
(dp4252
bag69
(g55
g64
tp4253
Rp4254
(dp4255
bag2
(g233
g64
tp4256
Rp4257
(dp4258
bag69
(g203
g64
tp4259
Rp4260
(dp4261
bag2
(g164
g64
tp4262
Rp4263
(dp4264
bag2
(g137
g64
tp4265
Rp4266
(dp4267
bag69
(g122
g64
tp4268
Rp4269
(dp4270
bag69
(g13
g64
tp4271
Rp4272
(dp4273
bag69
(g113
g64
tp4274
Rp4275
(dp4276
bag2
(g104
g64
tp4277
Rp4278
(dp4279
bag2
(g251
g64
tp4280
Rp4281
(dp4282
bag2
(g61
g64
tp4283
Rp4284
(dp4285
bag2
(g329
g64
tp4286
Rp4287
(dp4288
bag2
(g374
g64
tp4289
Rp4290
(dp4291
bag2
(g692
g64
tp4292
Rp4293
(dp4294
bag2
(g992
g64
tp4295
Rp4296
(dp4297
bag2
(g1166
g64
tp4298
Rp4299
(dp4300
ba(lp4301
g69
(g1325
g64
tp4302
Rp4303
(dp4304
batp4305
a((lp4306
g2
(g2115
g64
tp4307
Rp4308
(dp4309
bag69
(g3840
g64
tp4310
Rp4311
(dp4312
bag2
(g3840
g64
tp4313
Rp4314
(dp4315
bag2
(g3507
g64
tp4316
Rp4317
(dp4318
bag2
(g3360
g64
tp4319
Rp4320
(dp4321
bag2
(g2580
g64
tp4322
Rp4323
(dp4324
bag2
(g2247
g64
tp4325
Rp4326
(dp4327
bag2
(g2049
g64
tp4328
Rp4329
(dp4330
bag2
(g1787
g64
tp4331
Rp4332
(dp4333
bag69
(g55
g64
tp4334
Rp4335
(dp4336
bag2
(g233
g64
tp4337
Rp4338
(dp4339
bag69
(g203
g64
tp4340
Rp4341
(dp4342
bag2
(g164
g64
tp4343
Rp4344
(dp4345
bag2
(g137
g64
tp4346
Rp4347
(dp4348
bag69
(g122
g64
tp4349
Rp4350
(dp4351
bag69
(g13
g64
tp4352
Rp4353
(dp4354
bag69
(g113
g64
tp4355
Rp4356
(dp4357
bag2
(g104
g64
tp4358
Rp4359
(dp4360
bag2
(g251
g64
tp4361
Rp4362
(dp4363
bag2
(g61
g64
tp4364
Rp4365
(dp4366
bag2
(g329
g64
tp4367
Rp4368
(dp4369
bag2
(g374
g64
tp4370
Rp4371
(dp4372
bag2
(g692
g64
tp4373
Rp4374
(dp4375
bag2
(g992
g64
tp4376
Rp4377
(dp4378
bag2
(g1166
g64
tp4379
Rp4380
(dp4381
ba(lp4382
g69
(g1325
g64
tp4383
Rp4384
(dp4385
batp4386
a((lp4387
g2
(g2049
g64
tp4388
Rp4389
(dp4390
bag2
(g3840
g64
tp4391
Rp4392
(dp4393
bag2
(g3507
g64
tp4394
Rp4395
(dp4396
bag2
(g3360
g64
tp4397
Rp4398
(dp4399
bag2
(g2580
g64
tp4400
Rp4401
(dp4402
bag2
(g2247
g64
tp4403
Rp4404
(dp4405
bag2
(g2049
g64
tp4406
Rp4407
(dp4408
bag2
(g1787
g64
tp4409
Rp4410
(dp4411
bag69
(g55
g64
tp4412
Rp4413
(dp4414
bag2
(g233
g64
tp4415
Rp4416
(dp4417
bag69
(g203
g64
tp4418
Rp4419
(dp4420
bag2
(g164
g64
tp4421
Rp4422
(dp4423
bag2
(g137
g64
tp4424
Rp4425
(dp4426
bag69
(g122
g64
tp4427
Rp4428
(dp4429
bag69
(g13
g64
tp4430
Rp4431
(dp4432
bag69
(g113
g64
tp4433
Rp4434
(dp4435
bag2
(g104
g64
tp4436
Rp4437
(dp4438
bag2
(g251
g64
tp4439
Rp4440
(dp4441
bag2
(g61
g64
tp4442
Rp4443
(dp4444
bag2
(g329
g64
tp4445
Rp4446
(dp4447
bag2
(g374
g64
tp4448
Rp4449
(dp4450
bag2
(g692
g64
tp4451
Rp4452
(dp4453
bag2
(g992
g64
tp4454
Rp4455
(dp4456
bag2
(g1166
g64
tp4457
Rp4458
(dp4459
ba(lp4460
g69
(g1325
g64
tp4461
Rp4462
(dp4463
batp4464
a((lp4465
g2
(g3840
g64
tp4466
Rp4467
(dp4468
bag2
(g3840
g64
tp4469
Rp4470
(dp4471
bag2
(g3507
g64
tp4472
Rp4473
(dp4474
bag2
(g3360
g64
tp4475
Rp4476
(dp4477
bag2
(g2580
g64
tp4478
Rp4479
(dp4480
bag2
(g2247
g64
tp4481
Rp4482
(dp4483
bag2
(g2049
g64
tp4484
Rp4485
(dp4486
bag2
(g1787
g64
tp4487
Rp4488
(dp4489
bag69
(g55
g64
tp4490
Rp4491
(dp4492
bag2
(g233
g64
tp4493
Rp4494
(dp4495
bag69
(g203
g64
tp4496
Rp4497
(dp4498
bag2
(g164
g64
tp4499
Rp4500
(dp4501
bag2
(g137
g64
tp4502
Rp4503
(dp4504
bag69
(g122
g64
tp4505
Rp4506
(dp4507
bag69
(g13
g64
tp4508
Rp4509
(dp4510
bag69
(g113
g64
tp4511
Rp4512
(dp4513
bag2
(g104
g64
tp4514
Rp4515
(dp4516
bag2
(g251
g64
tp4517
Rp4518
(dp4519
bag2
(g61
g64
tp4520
Rp4521
(dp4522
bag2
(g329
g64
tp4523
Rp4524
(dp4525
bag2
(g374
g64
tp4526
Rp4527
(dp4528
bag2
(g692
g64
tp4529
Rp4530
(dp4531
bag2
(g992
g64
tp4532
Rp4533
(dp4534
bag2
(g1166
g64
tp4535
Rp4536
(dp4537
ba(lp4538
g69
(g1325
g64
tp4539
Rp4540
(dp4541
batp4542
a((lp4543
g2
(g1853
g64
tp4544
Rp4545
(dp4546
bag69
(g2115
g64
tp4547
Rp4548
(dp4549
bag2
(g3840
g64
tp4550
Rp4551
(dp4552
bag2
(g3507
g64
tp4553
Rp4554
(dp4555
bag2
(g3360
g64
tp4556
Rp4557
(dp4558
bag2
(g2580
g64
tp4559
Rp4560
(dp4561
bag2
(g2247
g64
tp4562
Rp4563
(dp4564
bag2
(g2049
g64
tp4565
Rp4566
(dp4567
bag2
(g1787
g64
tp4568
Rp4569
(dp4570
bag69
(g55
g64
tp4571
Rp4572
(dp4573
bag2
(g233
g64
tp4574
Rp4575
(dp4576
bag69
(g203
g64
tp4577
Rp4578
(dp4579
bag2
(g164
g64
tp4580
Rp4581
(dp4582
bag2
(g137
g64
tp4583
Rp4584
(dp4585
bag69
(g122
g64
tp4586
Rp4587
(dp4588
bag69
(g13
g64
tp4589
Rp4590
(dp4591
bag69
(g113
g64
tp4592
Rp4593
(dp4594
bag2
(g104
g64
tp4595
Rp4596
(dp4597
bag2
(g251
g64
tp4598
Rp4599
(dp4600
bag2
(g61
g64
tp4601
Rp4602
(dp4603
bag2
(g329
g64
tp4604
Rp4605
(dp4606
bag2
(g374
g64
tp4607
Rp4608
(dp4609
bag2
(g692
g64
tp4610
Rp4611
(dp4612
bag2
(g992
g64
tp4613
Rp4614
(dp4615
bag2
(g1166
g64
tp4616
Rp4617
(dp4618
ba(lp4619
g69
(g1325
g64
tp4620
Rp4621
(dp4622
batp4623
a((lp4624
g2
(g2049
g64
tp4625
Rp4626
(dp4627
bag2
(g2115
g64
tp4628
Rp4629
(dp4630
bag2
(g1853
g64
tp4631
Rp4632
(dp4633
bag69
(g3
(g71
g4
(g5
(I-1
I3
tp4634
Rp4635
(dp4636
bg55
tp4637
Rp4638
(dp4639
bg4
(g5
(I-3
I20
tp4640
Rp4641
(dp4642
bg43
tp4643
Rp4644
(dp4645
btp4646
Rp4647
(dp4648
bg64
tp4649
Rp4650
(dp4651
bag2
(g3840
g64
tp4652
Rp4653
(dp4654
bag2
(g3507
g64
tp4655
Rp4656
(dp4657
bag2
(g3360
g64
tp4658
Rp4659
(dp4660
bag2
(g2580
g64
tp4661
Rp4662
(dp4663
bag2
(g2247
g64
tp4664
Rp4665
(dp4666
bag2
(g2049
g64
tp4667
Rp4668
(dp4669
bag2
(g1787
g64
tp4670
Rp4671
(dp4672
bag69
(g55
g64
tp4673
Rp4674
(dp4675
bag2
(g233
g64
tp4676
Rp4677
(dp4678
bag69
(g203
g64
tp4679
Rp4680
(dp4681
bag2
(g164
g64
tp4682
Rp4683
(dp4684
bag2
(g137
g64
tp4685
Rp4686
(dp4687
bag69
(g122
g64
tp4688
Rp4689
(dp4690
bag69
(g13
g64
tp4691
Rp4692
(dp4693
bag69
(g113
g64
tp4694
Rp4695
(dp4696
bag2
(g104
g64
tp4697
Rp4698
(dp4699
bag2
(g251
g64
tp4700
Rp4701
(dp4702
bag2
(g61
g64
tp4703
Rp4704
(dp4705
bag2
(g329
g64
tp4706
Rp4707
(dp4708
bag2
(g374
g64
tp4709
Rp4710
(dp4711
bag2
(g692
g64
tp4712
Rp4713
(dp4714
bag2
(g992
g64
tp4715
Rp4716
(dp4717
bag2
(g1166
g64
tp4718
Rp4719
(dp4720
ba(lp4721
g69
(g1325
g64
tp4722
Rp4723
(dp4724
batp4725
a((lp4726
g69
(g4647
g64
tp4727
Rp4728
(dp4729
bag69
(g2115
g64
tp4730
Rp4731
(dp4732
bag2
(g3840
g64
tp4733
Rp4734
(dp4735
bag2
(g3507
g64
tp4736
Rp4737
(dp4738
bag2
(g3360
g64
tp4739
Rp4740
(dp4741
bag2
(g2580
g64
tp4742
Rp4743
(dp4744
bag2
(g2247
g64
tp4745
Rp4746
(dp4747
bag2
(g2049
g64
tp4748
Rp4749
(dp4750
bag2
(g1787
g64
tp4751
Rp4752
(dp4753
bag69
(g55
g64
tp4754
Rp4755
(dp4756
bag2
(g233
g64
tp4757
Rp4758
(dp4759
bag69
(g203
g64
tp4760
Rp4761
(dp4762
bag2
(g164
g64
tp4763
Rp4764
(dp4765
bag2
(g137
g64
tp4766
Rp4767
(dp4768
bag69
(g122
g64
tp4769
Rp4770
(dp4771
bag69
(g13
g64
tp4772
Rp4773
(dp4774
bag69
(g113
g64
tp4775
Rp4776
(dp4777
bag2
(g104
g64
tp4778
Rp4779
(dp4780
bag2
(g251
g64
tp4781
Rp4782
(dp4783
bag2
(g61
g64
tp4784
Rp4785
(dp4786
bag2
(g329
g64
tp4787
Rp4788
(dp4789
bag2
(g374
g64
tp4790
Rp4791
(dp4792
bag2
(g692
g64
tp4793
Rp4794
(dp4795
bag2
(g992
g64
tp4796
Rp4797
(dp4798
bag2
(g1166
g64
tp4799
Rp4800
(dp4801
ba(lp4802
g69
(g1325
g64
tp4803
Rp4804
(dp4805
batp4806
a((lp4807
g2
(g4647
g64
tp4808
Rp4809
(dp4810
bag2
(g2115
g64
tp4811
Rp4812
(dp4813
bag2
(g3840
g64
tp4814
Rp4815
(dp4816
bag2
(g3507
g64
tp4817
Rp4818
(dp4819
bag2
(g3360
g64
tp4820
Rp4821
(dp4822
bag2
(g2580
g64
tp4823
Rp4824
(dp4825
bag2
(g2247
g64
tp4826
Rp4827
(dp4828
bag2
(g2049
g64
tp4829
Rp4830
(dp4831
bag2
(g1787
g64
tp4832
Rp4833
(dp4834
bag69
(g55
g64
tp4835
Rp4836
(dp4837
bag2
(g233
g64
tp4838
Rp4839
(dp4840
bag69
(g203
g64
tp4841
Rp4842
(dp4843
bag2
(g164
g64
tp4844
Rp4845
(dp4846
bag2
(g137
g64
tp4847
Rp4848
(dp4849
bag69
(g122
g64
tp4850
Rp4851
(dp4852
bag69
(g13
g64
tp4853
Rp4854
(dp4855
bag69
(g113
g64
tp4856
Rp4857
(dp4858
bag2
(g104
g64
tp4859
Rp4860
(dp4861
bag2
(g251
g64
tp4862
Rp4863
(dp4864
bag2
(g61
g64
tp4865
Rp4866
(dp4867
bag2
(g329
g64
tp4868
Rp4869
(dp4870
bag2
(g374
g64
tp4871
Rp4872
(dp4873
bag2
(g692
g64
tp4874
Rp4875
(dp4876
bag2
(g992
g64
tp4877
Rp4878
(dp4879
bag2
(g1166
g64
tp4880
Rp4881
(dp4882
ba(lp4883
g69
(g1325
g64
tp4884
Rp4885
(dp4886
batp4887
a((lp4888
g69
(g2115
g64
tp4889
Rp4890
(dp4891
bag2
(g3840
g64
tp4892
Rp4893
(dp4894
bag2
(g3507
g64
tp4895
Rp4896
(dp4897
bag2
(g3360
g64
tp4898
Rp4899
(dp4900
bag2
(g2580
g64
tp4901
Rp4902
(dp4903
bag2
(g2247
g64
tp4904
Rp4905
(dp4906
bag2
(g2049
g64
tp4907
Rp4908
(dp4909
bag2
(g1787
g64
tp4910
Rp4911
(dp4912
bag69
(g55
g64
tp4913
Rp4914
(dp4915
bag2
(g233
g64
tp4916
Rp4917
(dp4918
bag69
(g203
g64
tp4919
Rp4920
(dp4921
bag2
(g164
g64
tp4922
Rp4923
(dp4924
bag2
(g137
g64
tp4925
Rp4926
(dp4927
bag69
(g122
g64
tp4928
Rp4929
(dp4930
bag69
(g13
g64
tp4931
Rp4932
(dp4933
bag69
(g113
g64
tp4934
Rp4935
(dp4936
bag2
(g104
g64
tp4937
Rp4938
(dp4939
bag2
(g251
g64
tp4940
Rp4941
(dp4942
bag2
(g61
g64
tp4943
Rp4944
(dp4945
bag2
(g329
g64
tp4946
Rp4947
(dp4948
bag2
(g374
g64
tp4949
Rp4950
(dp4951
bag2
(g692
g64
tp4952
Rp4953
(dp4954
bag2
(g992
g64
tp4955
Rp4956
(dp4957
bag2
(g1166
g64
tp4958
Rp4959
(dp4960
ba(lp4961
g69
(g1325
g64
tp4962
Rp4963
(dp4964
batp4965
a((lp4966
g69
(g55
g64
tp4967
Rp4968
(dp4969
bag69
(g2115
g64
tp4970
Rp4971
(dp4972
bag2
(g3840
g64
tp4973
Rp4974
(dp4975
bag2
(g3507
g64
tp4976
Rp4977
(dp4978
bag2
(g3360
g64
tp4979
Rp4980
(dp4981
bag2
(g2580
g64
tp4982
Rp4983
(dp4984
bag2
(g2247
g64
tp4985
Rp4986
(dp4987
bag2
(g2049
g64
tp4988
Rp4989
(dp4990
bag2
(g1787
g64
tp4991
Rp4992
(dp4993
bag69
(g55
g64
tp4994
Rp4995
(dp4996
bag2
(g233
g64
tp4997
Rp4998
(dp4999
bag69
(g203
g64
tp5000
Rp5001
(dp5002
bag2
(g164
g64
tp5003
Rp5004
(dp5005
bag2
(g137
g64
tp5006
Rp5007
(dp5008
bag69
(g122
g64
tp5009
Rp5010
(dp5011
bag69
(g13
g64
tp5012
Rp5013
(dp5014
bag69
(g113
g64
tp5015
Rp5016
(dp5017
bag2
(g104
g64
tp5018
Rp5019
(dp5020
bag2
(g251
g64
tp5021
Rp5022
(dp5023
bag2
(g61
g64
tp5024
Rp5025
(dp5026
bag2
(g329
g64
tp5027
Rp5028
(dp5029
bag2
(g374
g64
tp5030
Rp5031
(dp5032
bag2
(g692
g64
tp5033
Rp5034
(dp5035
bag2
(g992
g64
tp5036
Rp5037
(dp5038
bag2
(g1166
g64
tp5039
Rp5040
(dp5041
ba(lp5042
g69
(g1325
g64
tp5043
Rp5044
(dp5045
batp5046
a((lp5047
g2
(g1853
g64
tp5048
Rp5049
(dp5050
bag2
(g791
g64
tp5051
Rp5052
(dp5053
bag69
(g2115
g64
tp5054
Rp5055
(dp5056
bag2
(g3840
g64
tp5057
Rp5058
(dp5059
bag2
(g3507
g64
tp5060
Rp5061
(dp5062
bag2
(g3360
g64
tp5063
Rp5064
(dp5065
bag2
(g2580
g64
tp5066
Rp5067
(dp5068
bag2
(g2247
g64
tp5069
Rp5070
(dp5071
bag2
(g2049
g64
tp5072
Rp5073
(dp5074
bag2
(g1787
g64
tp5075
Rp5076
(dp5077
bag69
(g55
g64
tp5078
Rp5079
(dp5080
bag2
(g233
g64
tp5081
Rp5082
(dp5083
bag69
(g203
g64
tp5084
Rp5085
(dp5086
bag2
(g164
g64
tp5087
Rp5088
(dp5089
bag2
(g137
g64
tp5090
Rp5091
(dp5092
bag69
(g122
g64
tp5093
Rp5094
(dp5095
bag69
(g13
g64
tp5096
Rp5097
(dp5098
bag69
(g113
g64
tp5099
Rp5100
(dp5101
bag2
(g104
g64
tp5102
Rp5103
(dp5104
bag2
(g251
g64
tp5105
Rp5106
(dp5107
bag2
(g61
g64
tp5108
Rp5109
(dp5110
bag2
(g329
g64
tp5111
Rp5112
(dp5113
bag2
(g374
g64
tp5114
Rp5115
(dp5116
bag2
(g692
g64
tp5117
Rp5118
(dp5119
bag2
(g992
g64
tp5120
Rp5121
(dp5122
bag2
(g1166
g64
tp5123
Rp5124
(dp5125
ba(lp5126
g69
(g1325
g64
tp5127
Rp5128
(dp5129
batp5130
a((lp5131
g2
(g2049
g64
tp5132
Rp5133
(dp5134
bag69
(g2115
g64
tp5135
Rp5136
(dp5137
bag2
(g3840
g64
tp5138
Rp5139
(dp5140
bag2
(g3507
g64
tp5141
Rp5142
(dp5143
bag2
(g3360
g64
tp5144
Rp5145
(dp5146
bag2
(g2580
g64
tp5147
Rp5148
(dp5149
bag2
(g2247
g64
tp5150
Rp5151
(dp5152
bag2
(g2049
g64
tp5153
Rp5154
(dp5155
bag2
(g1787
g64
tp5156
Rp5157
(dp5158
bag69
(g55
g64
tp5159
Rp5160
(dp5161
bag2
(g233
g64
tp5162
Rp5163
(dp5164
bag69
(g203
g64
tp5165
Rp5166
(dp5167
bag2
(g164
g64
tp5168
Rp5169
(dp5170
bag2
(g137
g64
tp5171
Rp5172
(dp5173
bag69
(g122
g64
tp5174
Rp5175
(dp5176
bag69
(g13
g64
tp5177
Rp5178
(dp5179
bag69
(g113
g64
tp5180
Rp5181
(dp5182
bag2
(g104
g64
tp5183
Rp5184
(dp5185
bag2
(g251
g64
tp5186
Rp5187
(dp5188
bag2
(g61
g64
tp5189
Rp5190
(dp5191
bag2
(g329
g64
tp5192
Rp5193
(dp5194
bag2
(g374
g64
tp5195
Rp5196
(dp5197
bag2
(g692
g64
tp5198
Rp5199
(dp5200
bag2
(g992
g64
tp5201
Rp5202
(dp5203
bag2
(g1166
g64
tp5204
Rp5205
(dp5206
ba(lp5207
g69
(g1325
g64
tp5208
Rp5209
(dp5210
batp5211
a((lp5212
g2
(g3360
g64
tp5213
Rp5214
(dp5215
bag69
(g2115
g64
tp5216
Rp5217
(dp5218
bag69
(g2115
g64
tp5219
Rp5220
(dp5221
bag2
(g3840
g64
tp5222
Rp5223
(dp5224
bag2
(g3507
g64
tp5225
Rp5226
(dp5227
bag2
(g3360
g64
tp5228
Rp5229
(dp5230
bag2
(g2580
g64
tp5231
Rp5232
(dp5233
bag2
(g2247
g64
tp5234
Rp5235
(dp5236
bag2
(g2049
g64
tp5237
Rp5238
(dp5239
bag2
(g1787
g64
tp5240
Rp5241
(dp5242
bag69
(g55
g64
tp5243
Rp5244
(dp5245
bag2
(g233
g64
tp5246
Rp5247
(dp5248
bag69
(g203
g64
tp5249
Rp5250
(dp5251
bag2
(g164
g64
tp5252
Rp5253
(dp5254
bag2
(g137
g64
tp5255
Rp5256
(dp5257
bag69
(g122
g64
tp5258
Rp5259
(dp5260
bag69
(g13
g64
tp5261
Rp5262
(dp5263
bag69
(g113
g64
tp5264
Rp5265
(dp5266
bag2
(g104
g64
tp5267
Rp5268
(dp5269
bag2
(g251
g64
tp5270
Rp5271
(dp5272
bag2
(g61
g64
tp5273
Rp5274
(dp5275
bag2
(g329
g64
tp5276
Rp5277
(dp5278
bag2
(g374
g64
tp5279
Rp5280
(dp5281
bag2
(g692
g64
tp5282
Rp5283
(dp5284
bag2
(g992
g64
tp5285
Rp5286
(dp5287
bag2
(g1166
g64
tp5288
Rp5289
(dp5290
ba(lp5291
g69
(g1325
g64
tp5292
Rp5293
(dp5294
batp5295
a((lp5296
g2
(g2049
g64
tp5297
Rp5298
(dp5299
bag69
(g2115
g64
tp5300
Rp5301
(dp5302
bag2
(g3840
g64
tp5303
Rp5304
(dp5305
bag2
(g3507
g64
tp5306
Rp5307
(dp5308
bag2
(g3360
g64
tp5309
Rp5310
(dp5311
bag2
(g2580
g64
tp5312
Rp5313
(dp5314
bag2
(g2247
g64
tp5315
Rp5316
(dp5317
bag2
(g2049
g64
tp5318
Rp5319
(dp5320
bag2
(g1787
g64
tp5321
Rp5322
(dp5323
bag69
(g55
g64
tp5324
Rp5325
(dp5326
bag2
(g233
g64
tp5327
Rp5328
(dp5329
bag69
(g203
g64
tp5330
Rp5331
(dp5332
bag2
(g164
g64
tp5333
Rp5334
(dp5335
bag2
(g137
g64
tp5336
Rp5337
(dp5338
bag69
(g122
g64
tp5339
Rp5340
(dp5341
bag69
(g13
g64
tp5342
Rp5343
(dp5344
bag69
(g113
g64
tp5345
Rp5346
(dp5347
bag2
(g104
g64
tp5348
Rp5349
(dp5350
bag2
(g251
g64
tp5351
Rp5352
(dp5353
bag2
(g61
g64
tp5354
Rp5355
(dp5356
bag2
(g329
g64
tp5357
Rp5358
(dp5359
bag2
(g374
g64
tp5360
Rp5361
(dp5362
bag2
(g692
g64
tp5363
Rp5364
(dp5365
bag2
(g992
g64
tp5366
Rp5367
(dp5368
bag2
(g1166
g64
tp5369
Rp5370
(dp5371
ba(lp5372
g69
(g1325
g64
tp5373
Rp5374
(dp5375
batp5376
a((lp5377
g2
(g3360
g64
tp5378
Rp5379
(dp5380
bag69
(g2115
g64
tp5381
Rp5382
(dp5383
bag2
(g3840
g64
tp5384
Rp5385
(dp5386
bag2
(g3507
g64
tp5387
Rp5388
(dp5389
bag2
(g3360
g64
tp5390
Rp5391
(dp5392
bag2
(g2580
g64
tp5393
Rp5394
(dp5395
bag2
(g2247
g64
tp5396
Rp5397
(dp5398
bag2
(g2049
g64
tp5399
Rp5400
(dp5401
bag2
(g1787
g64
tp5402
Rp5403
(dp5404
bag69
(g55
g64
tp5405
Rp5406
(dp5407
bag2
(g233
g64
tp5408
Rp5409
(dp5410
bag69
(g203
g64
tp5411
Rp5412
(dp5413
bag2
(g164
g64
tp5414
Rp5415
(dp5416
bag2
(g137
g64
tp5417
Rp5418
(dp5419
bag69
(g122
g64
tp5420
Rp5421
(dp5422
bag69
(g13
g64
tp5423
Rp5424
(dp5425
bag69
(g113
g64
tp5426
Rp5427
(dp5428
bag2
(g104
g64
tp5429
Rp5430
(dp5431
bag2
(g251
g64
tp5432
Rp5433
(dp5434
bag2
(g61
g64
tp5435
Rp5436
(dp5437
bag2
(g329
g64
tp5438
Rp5439
(dp5440
bag2
(g374
g64
tp5441
Rp5442
(dp5443
bag2
(g692
g64
tp5444
Rp5445
(dp5446
bag2
(g992
g64
tp5447
Rp5448
(dp5449
bag2
(g1166
g64
tp5450
Rp5451
(dp5452
ba(lp5453
g69
(g1325
g64
tp5454
Rp5455
(dp5456
batp5457
a((lp5458
g2
(g164
g64
tp5459
Rp5460
(dp5461
bag69
(g2115
g64
tp5462
Rp5463
(dp5464
bag2
(g3840
g64
tp5465
Rp5466
(dp5467
bag2
(g3507
g64
tp5468
Rp5469
(dp5470
bag2
(g3360
g64
tp5471
Rp5472
(dp5473
bag2
(g2580
g64
tp5474
Rp5475
(dp5476
bag2
(g2247
g64
tp5477
Rp5478
(dp5479
bag2
(g2049
g64
tp5480
Rp5481
(dp5482
bag2
(g1787
g64
tp5483
Rp5484
(dp5485
bag69
(g55
g64
tp5486
Rp5487
(dp5488
bag2
(g233
g64
tp5489
Rp5490
(dp5491
bag69
(g203
g64
tp5492
Rp5493
(dp5494
bag2
(g164
g64
tp5495
Rp5496
(dp5497
bag2
(g137
g64
tp5498
Rp5499
(dp5500
bag69
(g122
g64
tp5501
Rp5502
(dp5503
bag69
(g13
g64
tp5504
Rp5505
(dp5506
bag69
(g113
g64
tp5507
Rp5508
(dp5509
bag2
(g104
g64
tp5510
Rp5511
(dp5512
bag2
(g251
g64
tp5513
Rp5514
(dp5515
bag2
(g61
g64
tp5516
Rp5517
(dp5518
bag2
(g329
g64
tp5519
Rp5520
(dp5521
bag2
(g374
g64
tp5522
Rp5523
(dp5524
bag2
(g692
g64
tp5525
Rp5526
(dp5527
bag2
(g992
g64
tp5528
Rp5529
(dp5530
bag2
(g1166
g64
tp5531
Rp5532
(dp5533
ba(lp5534
g69
(g1325
g64
tp5535
Rp5536
(dp5537
batp5538
a((lp5539
g2
(g1853
g64
tp5540
Rp5541
(dp5542
bag69
(g2115
g64
tp5543
Rp5544
(dp5545
bag2
(g3840
g64
tp5546
Rp5547
(dp5548
bag2
(g3507
g64
tp5549
Rp5550
(dp5551
bag2
(g3360
g64
tp5552
Rp5553
(dp5554
bag2
(g2580
g64
tp5555
Rp5556
(dp5557
bag2
(g2247
g64
tp5558
Rp5559
(dp5560
bag2
(g2049
g64
tp5561
Rp5562
(dp5563
bag2
(g1787
g64
tp5564
Rp5565
(dp5566
bag69
(g55
g64
tp5567
Rp5568
(dp5569
bag2
(g233
g64
tp5570
Rp5571
(dp5572
bag69
(g203
g64
tp5573
Rp5574
(dp5575
bag2
(g164
g64
tp5576
Rp5577
(dp5578
bag2
(g137
g64
tp5579
Rp5580
(dp5581
bag69
(g122
g64
tp5582
Rp5583
(dp5584
bag69
(g13
g64
tp5585
Rp5586
(dp5587
bag69
(g113
g64
tp5588
Rp5589
(dp5590
bag2
(g104
g64
tp5591
Rp5592
(dp5593
bag2
(g251
g64
tp5594
Rp5595
(dp5596
bag2
(g61
g64
tp5597
Rp5598
(dp5599
bag2
(g329
g64
tp5600
Rp5601
(dp5602
bag2
(g374
g64
tp5603
Rp5604
(dp5605
bag2
(g692
g64
tp5606
Rp5607
(dp5608
bag2
(g992
g64
tp5609
Rp5610
(dp5611
bag2
(g1166
g64
tp5612
Rp5613
(dp5614
ba(lp5615
g69
(g1325
g64
tp5616
Rp5617
(dp5618
batp5619
a((lp5620
g2
(g1853
g64
tp5621
Rp5622
(dp5623
bag69
(g2115
g64
tp5624
Rp5625
(dp5626
bag69
(g2115
g64
tp5627
Rp5628
(dp5629
bag2
(g3840
g64
tp5630
Rp5631
(dp5632
bag2
(g3507
g64
tp5633
Rp5634
(dp5635
bag2
(g3360
g64
tp5636
Rp5637
(dp5638
bag2
(g2580
g64
tp5639
Rp5640
(dp5641
bag2
(g2247
g64
tp5642
Rp5643
(dp5644
bag2
(g2049
g64
tp5645
Rp5646
(dp5647
bag2
(g1787
g64
tp5648
Rp5649
(dp5650
bag69
(g55
g64
tp5651
Rp5652
(dp5653
bag2
(g233
g64
tp5654
Rp5655
(dp5656
bag69
(g203
g64
tp5657
Rp5658
(dp5659
bag2
(g164
g64
tp5660
Rp5661
(dp5662
bag2
(g137
g64
tp5663
Rp5664
(dp5665
bag69
(g122
g64
tp5666
Rp5667
(dp5668
bag69
(g13
g64
tp5669
Rp5670
(dp5671
bag69
(g113
g64
tp5672
Rp5673
(dp5674
bag2
(g104
g64
tp5675
Rp5676
(dp5677
bag2
(g251
g64
tp5678
Rp5679
(dp5680
bag2
(g61
g64
tp5681
Rp5682
(dp5683
bag2
(g329
g64
tp5684
Rp5685
(dp5686
bag2
(g374
g64
tp5687
Rp5688
(dp5689
bag2
(g692
g64
tp5690
Rp5691
(dp5692
bag2
(g992
g64
tp5693
Rp5694
(dp5695
bag2
(g1166
g64
tp5696
Rp5697
(dp5698
ba(lp5699
g69
(g1325
g64
tp5700
Rp5701
(dp5702
batp5703
a((lp5704
g2
(g1853
g64
tp5705
Rp5706
(dp5707
bag69
(g2115
g64
tp5708
Rp5709
(dp5710
bag2
(g3840
g64
tp5711
Rp5712
(dp5713
bag2
(g3507
g64
tp5714
Rp5715
(dp5716
bag2
(g3360
g64
tp5717
Rp5718
(dp5719
bag2
(g2580
g64
tp5720
Rp5721
(dp5722
bag2
(g2247
g64
tp5723
Rp5724
(dp5725
bag2
(g2049
g64
tp5726
Rp5727
(dp5728
bag2
(g1787
g64
tp5729
Rp5730
(dp5731
bag69
(g55
g64
tp5732
Rp5733
(dp5734
bag2
(g233
g64
tp5735
Rp5736
(dp5737
bag69
(g203
g64
tp5738
Rp5739
(dp5740
bag2
(g164
g64
tp5741
Rp5742
(dp5743
bag2
(g137
g64
tp5744
Rp5745
(dp5746
bag69
(g122
g64
tp5747
Rp5748
(dp5749
bag69
(g13
g64
tp5750
Rp5751
(dp5752
bag69
(g113
g64
tp5753
Rp5754
(dp5755
bag2
(g104
g64
tp5756
Rp5757
(dp5758
bag2
(g251
g64
tp5759
Rp5760
(dp5761
bag2
(g61
g64
tp5762
Rp5763
(dp5764
bag2
(g329
g64
tp5765
Rp5766
(dp5767
bag2
(g374
g64
tp5768
Rp5769
(dp5770
bag2
(g692
g64
tp5771
Rp5772
(dp5773
bag2
(g992
g64
tp5774
Rp5775
(dp5776
bag2
(g1166
g64
tp5777
Rp5778
(dp5779
ba(lp5780
g69
(g1325
g64
tp5781
Rp5782
(dp5783
batp5784
a((lp5785
g69
(g55
g64
tp5786
Rp5787
(dp5788
bag2
(g1853
g64
tp5789
Rp5790
(dp5791
bag69
(g2115
g64
tp5792
Rp5793
(dp5794
bag2
(g3840
g64
tp5795
Rp5796
(dp5797
bag2
(g3507
g64
tp5798
Rp5799
(dp5800
bag2
(g3360
g64
tp5801
Rp5802
(dp5803
bag2
(g2580
g64
tp5804
Rp5805
(dp5806
bag2
(g2247
g64
tp5807
Rp5808
(dp5809
bag2
(g2049
g64
tp5810
Rp5811
(dp5812
bag2
(g1787
g64
tp5813
Rp5814
(dp5815
bag69
(g55
g64
tp5816
Rp5817
(dp5818
bag2
(g233
g64
tp5819
Rp5820
(dp5821
bag69
(g203
g64
tp5822
Rp5823
(dp5824
bag2
(g164
g64
tp5825
Rp5826
(dp5827
bag2
(g137
g64
tp5828
Rp5829
(dp5830
bag69
(g122
g64
tp5831
Rp5832
(dp5833
bag69
(g13
g64
tp5834
Rp5835
(dp5836
bag69
(g113
g64
tp5837
Rp5838
(dp5839
bag2
(g104
g64
tp5840
Rp5841
(dp5842
bag2
(g251
g64
tp5843
Rp5844
(dp5845
bag2
(g61
g64
tp5846
Rp5847
(dp5848
bag2
(g329
g64
tp5849
Rp5850
(dp5851
bag2
(g374
g64
tp5852
Rp5853
(dp5854
bag2
(g692
g64
tp5855
Rp5856
(dp5857
bag2
(g992
g64
tp5858
Rp5859
(dp5860
bag2
(g1166
g64
tp5861
Rp5862
(dp5863
ba(lp5864
g69
(g1325
g64
tp5865
Rp5866
(dp5867
batp5868
a((lp5869
g2
(g3
(g95
g1784
g101
g4
(g5
(I5
I56
tp5870
Rp5871
(dp5872
bg9
(g13
g38
(I7
tp5873
Rp5874
(dp5875
btp5876
Rp5877
(dp5878
btp5879
Rp5880
(dp5881
btp5882
Rp5883
(dp5884
bg64
tp5885
Rp5886
(dp5887
bag2
(g1325
g64
tp5888
Rp5889
(dp5890
bag2
(g1166
g64
tp5891
Rp5892
(dp5893
bag2
(g992
g64
tp5894
Rp5895
(dp5896
bag2
(g692
g64
tp5897
Rp5898
(dp5899
bag2
(g374
g64
tp5900
Rp5901
(dp5902
bag2
(g329
g64
tp5903
Rp5904
(dp5905
bag2
(g61
g64
tp5906
Rp5907
(dp5908
bag2
(g251
g64
tp5909
Rp5910
(dp5911
bag2
(g104
g64
tp5912
Rp5913
(dp5914
bag69
(g113
g64
tp5915
Rp5916
(dp5917
bag69
(g13
g64
tp5918
Rp5919
(dp5920
bag69
(g122
g64
tp5921
Rp5922
(dp5923
bag2
(g137
g64
tp5924
Rp5925
(dp5926
bag2
(g164
g64
tp5927
Rp5928
(dp5929
bag69
(g203
g64
tp5930
Rp5931
(dp5932
bag2
(g233
g64
tp5933
Rp5934
(dp5935
bag69
(g55
g64
tp5936
Rp5937
(dp5938
bag2
(g1787
g64
tp5939
Rp5940
(dp5941
bag2
(g2049
g64
tp5942
Rp5943
(dp5944
bag2
(g2247
g64
tp5945
Rp5946
(dp5947
bag2
(g2580
g64
tp5948
Rp5949
(dp5950
bag2
(g3360
g64
tp5951
Rp5952
(dp5953
bag2
(g3507
g64
tp5954
Rp5955
(dp5956
bag2
(g3840
g64
tp5957
Rp5958
(dp5959
bag69
(g2115
g64
tp5960
Rp5961
(dp5962
ba(lp5963
g69
(g1853
g64
tp5964
Rp5965
(dp5966
batp5967
a((lp5968
g2
(g3
(g4
(g5
(I-5
I112
tp5969
Rp5970
(dp5971
bg5877
tp5972
Rp5973
(dp5974
bg689
g101
g1850
tp5975
Rp5976
(dp5977
bg64
tp5978
Rp5979
(dp5980
bag1858
(g13
g64
tp5981
Rp5982
(dp5983
bag2
(g1325
g64
tp5984
Rp5985
(dp5986
bag2
(g1166
g64
tp5987
Rp5988
(dp5989
bag2
(g992
g64
tp5990
Rp5991
(dp5992
bag2
(g692
g64
tp5993
Rp5994
(dp5995
bag2
(g374
g64
tp5996
Rp5997
(dp5998
bag2
(g329
g64
tp5999
Rp6000
(dp6001
bag2
(g61
g64
tp6002
Rp6003
(dp6004
bag2
(g251
g64
tp6005
Rp6006
(dp6007
bag2
(g104
g64
tp6008
Rp6009
(dp6010
bag69
(g113
g64
tp6011
Rp6012
(dp6013
bag69
(g13
g64
tp6014
Rp6015
(dp6016
bag69
(g122
g64
tp6017
Rp6018
(dp6019
bag2
(g137
g64
tp6020
Rp6021
(dp6022
bag2
(g164
g64
tp6023
Rp6024
(dp6025
bag69
(g203
g64
tp6026
Rp6027
(dp6028
bag2
(g233
g64
tp6029
Rp6030
(dp6031
bag69
(g55
g64
tp6032
Rp6033
(dp6034
bag2
(g1787
g64
tp6035
Rp6036
(dp6037
bag2
(g2049
g64
tp6038
Rp6039
(dp6040
bag2
(g2247
g64
tp6041
Rp6042
(dp6043
bag2
(g2580
g64
tp6044
Rp6045
(dp6046
bag2
(g3360
g64
tp6047
Rp6048
(dp6049
bag2
(g3507
g64
tp6050
Rp6051
(dp6052
bag2
(g3840
g64
tp6053
Rp6054
(dp6055
bag69
(g2115
g64
tp6056
Rp6057
(dp6058
ba(lp6059
g69
(g1853
g64
tp6060
Rp6061
(dp6062
batp6063
a((lp6064
g2
(g3
(g4
(g5
(I5
I112
tp6065
Rp6066
(dp6067
bg5877
tp6068
Rp6069
(dp6070
bg1917
g1923
g13
tp6071
Rp6072
(dp6073
bg64
tp6074
Rp6075
(dp6076
bag1858
(g13
g64
tp6077
Rp6078
(dp6079
bag2
(g1325
g64
tp6080
Rp6081
(dp6082
bag2
(g1166
g64
tp6083
Rp6084
(dp6085
bag2
(g992
g64
tp6086
Rp6087
(dp6088
bag2
(g692
g64
tp6089
Rp6090
(dp6091
bag2
(g374
g64
tp6092
Rp6093
(dp6094
bag2
(g329
g64
tp6095
Rp6096
(dp6097
bag2
(g61
g64
tp6098
Rp6099
(dp6100
bag2
(g251
g64
tp6101
Rp6102
(dp6103
bag2
(g104
g64
tp6104
Rp6105
(dp6106
bag69
(g113
g64
tp6107
Rp6108
(dp6109
bag69
(g13
g64
tp6110
Rp6111
(dp6112
bag69
(g122
g64
tp6113
Rp6114
(dp6115
bag2
(g137
g64
tp6116
Rp6117
(dp6118
bag2
(g164
g64
tp6119
Rp6120
(dp6121
bag69
(g203
g64
tp6122
Rp6123
(dp6124
bag2
(g233
g64
tp6125
Rp6126
(dp6127
bag69
(g55
g64
tp6128
Rp6129
(dp6130
bag2
(g1787
g64
tp6131
Rp6132
(dp6133
bag2
(g2049
g64
tp6134
Rp6135
(dp6136
bag2
(g2247
g64
tp6137
Rp6138
(dp6139
bag2
(g2580
g64
tp6140
Rp6141
(dp6142
bag2
(g3360
g64
tp6143
Rp6144
(dp6145
bag2
(g3507
g64
tp6146
Rp6147
(dp6148
bag2
(g3840
g64
tp6149
Rp6150
(dp6151
bag69
(g2115
g64
tp6152
Rp6153
(dp6154
ba(lp6155
g69
(g1853
g64
tp6156
Rp6157
(dp6158
batp6159
a((lp6160
g2
(g5883
g64
tp6161
Rp6162
(dp6163
bag2
(g1325
g64
tp6164
Rp6165
(dp6166
bag2
(g1166
g64
tp6167
Rp6168
(dp6169
bag2
(g992
g64
tp6170
Rp6171
(dp6172
bag2
(g692
g64
tp6173
Rp6174
(dp6175
bag2
(g374
g64
tp6176
Rp6177
(dp6178
bag2
(g329
g64
tp6179
Rp6180
(dp6181
bag2
(g61
g64
tp6182
Rp6183
(dp6184
bag2
(g251
g64
tp6185
Rp6186
(dp6187
bag2
(g104
g64
tp6188
Rp6189
(dp6190
bag69
(g113
g64
tp6191
Rp6192
(dp6193
bag69
(g13
g64
tp6194
Rp6195
(dp6196
bag69
(g122
g64
tp6197
Rp6198
(dp6199
bag2
(g137
g64
tp6200
Rp6201
(dp6202
bag2
(g164
g64
tp6203
Rp6204
(dp6205
bag69
(g203
g64
tp6206
Rp6207
(dp6208
bag2
(g233
g64
tp6209
Rp6210
(dp6211
bag69
(g55
g64
tp6212
Rp6213
(dp6214
bag2
(g1787
g64
tp6215
Rp6216
(dp6217
bag2
(g2049
g64
tp6218
Rp6219
(dp6220
bag2
(g2247
g64
tp6221
Rp6222
(dp6223
bag2
(g2580
g64
tp6224
Rp6225
(dp6226
bag2
(g3360
g64
tp6227
Rp6228
(dp6229
bag2
(g3507
g64
tp6230
Rp6231
(dp6232
bag2
(g3840
g64
tp6233
Rp6234
(dp6235
bag69
(g2115
g64
tp6236
Rp6237
(dp6238
ba(lp6239
g69
(g1853
g64
tp6240
Rp6241
(dp6242
batp6243
a((lp6244
g2
(g3
(g98
g2046
g248
g4
(g5970
g155
tp6245
Rp6246
(dp6247
btp6248
Rp6249
(dp6250
bg64
tp6251
Rp6252
(dp6253
bag2
(g5883
g64
tp6254
Rp6255
(dp6256
bag2
(g1325
g64
tp6257
Rp6258
(dp6259
bag2
(g1166
g64
tp6260
Rp6261
(dp6262
bag2
(g992
g64
tp6263
Rp6264
(dp6265
bag2
(g692
g64
tp6266
Rp6267
(dp6268
bag2
(g374
g64
tp6269
Rp6270
(dp6271
bag2
(g329
g64
tp6272
Rp6273
(dp6274
bag2
(g61
g64
tp6275
Rp6276
(dp6277
bag2
(g251
g64
tp6278
Rp6279
(dp6280
bag2
(g104
g64
tp6281
Rp6282
(dp6283
bag69
(g113
g64
tp6284
Rp6285
(dp6286
bag69
(g13
g64
tp6287
Rp6288
(dp6289
bag69
(g122
g64
tp6290
Rp6291
(dp6292
bag2
(g137
g64
tp6293
Rp6294
(dp6295
bag2
(g164
g64
tp6296
Rp6297
(dp6298
bag69
(g203
g64
tp6299
Rp6300
(dp6301
bag2
(g233
g64
tp6302
Rp6303
(dp6304
bag69
(g55
g64
tp6305
Rp6306
(dp6307
bag2
(g1787
g64
tp6308
Rp6309
(dp6310
bag2
(g2049
g64
tp6311
Rp6312
(dp6313
bag2
(g2247
g64
tp6314
Rp6315
(dp6316
bag2
(g2580
g64
tp6317
Rp6318
(dp6319
bag2
(g3360
g64
tp6320
Rp6321
(dp6322
bag2
(g3507
g64
tp6323
Rp6324
(dp6325
bag2
(g3840
g64
tp6326
Rp6327
(dp6328
bag69
(g2115
g64
tp6329
Rp6330
(dp6331
ba(lp6332
g69
(g1853
g64
tp6333
Rp6334
(dp6335
batp6336
a((lp6337
g2
(g3
(g71
g77
g2112
g4
(g6066
g155
tp6338
Rp6339
(dp6340
btp6341
Rp6342
(dp6343
bg64
tp6344
Rp6345
(dp6346
bag2
(g5883
g64
tp6347
Rp6348
(dp6349
bag2
(g1325
g64
tp6350
Rp6351
(dp6352
bag2
(g1166
g64
tp6353
Rp6354
(dp6355
bag2
(g992
g64
tp6356
Rp6357
(dp6358
bag2
(g692
g64
tp6359
Rp6360
(dp6361
bag2
(g374
g64
tp6362
Rp6363
(dp6364
bag2
(g329
g64
tp6365
Rp6366
(dp6367
bag2
(g61
g64
tp6368
Rp6369
(dp6370
bag2
(g251
g64
tp6371
Rp6372
(dp6373
bag2
(g104
g64
tp6374
Rp6375
(dp6376
bag69
(g113
g64
tp6377
Rp6378
(dp6379
bag69
(g13
g64
tp6380
Rp6381
(dp6382
bag69
(g122
g64
tp6383
Rp6384
(dp6385
bag2
(g137
g64
tp6386
Rp6387
(dp6388
bag2
(g164
g64
tp6389
Rp6390
(dp6391
bag69
(g203
g64
tp6392
Rp6393
(dp6394
bag2
(g233
g64
tp6395
Rp6396
(dp6397
bag69
(g55
g64
tp6398
Rp6399
(dp6400
bag2
(g1787
g64
tp6401
Rp6402
(dp6403
bag2
(g2049
g64
tp6404
Rp6405
(dp6406
bag2
(g2247
g64
tp6407
Rp6408
(dp6409
bag2
(g2580
g64
tp6410
Rp6411
(dp6412
bag2
(g3360
g64
tp6413
Rp6414
(dp6415
bag2
(g3507
g64
tp6416
Rp6417
(dp6418
bag2
(g3840
g64
tp6419
Rp6420
(dp6421
bag69
(g2115
g64
tp6422
Rp6423
(dp6424
ba(lp6425
g69
(g1853
g64
tp6426
Rp6427
(dp6428
batp6429
a((lp6430
g69
(g55
g64
tp6431
Rp6432
(dp6433
bag2
(g5883
g64
tp6434
Rp6435
(dp6436
bag2
(g1325
g64
tp6437
Rp6438
(dp6439
bag2
(g1166
g64
tp6440
Rp6441
(dp6442
bag2
(g992
g64
tp6443
Rp6444
(dp6445
bag2
(g692
g64
tp6446
Rp6447
(dp6448
bag2
(g374
g64
tp6449
Rp6450
(dp6451
bag2
(g329
g64
tp6452
Rp6453
(dp6454
bag2
(g61
g64
tp6455
Rp6456
(dp6457
bag2
(g251
g64
tp6458
Rp6459
(dp6460
bag2
(g104
g64
tp6461
Rp6462
(dp6463
bag69
(g113
g64
tp6464
Rp6465
(dp6466
bag69
(g13
g64
tp6467
Rp6468
(dp6469
bag69
(g122
g64
tp6470
Rp6471
(dp6472
bag2
(g137
g64
tp6473
Rp6474
(dp6475
bag2
(g164
g64
tp6476
Rp6477
(dp6478
bag69
(g203
g64
tp6479
Rp6480
(dp6481
bag2
(g233
g64
tp6482
Rp6483
(dp6484
bag69
(g55
g64
tp6485
Rp6486
(dp6487
bag2
(g1787
g64
tp6488
Rp6489
(dp6490
bag2
(g2049
g64
tp6491
Rp6492
(dp6493
bag2
(g2247
g64
tp6494
Rp6495
(dp6496
bag2
(g2580
g64
tp6497
Rp6498
(dp6499
bag2
(g3360
g64
tp6500
Rp6501
(dp6502
bag2
(g3507
g64
tp6503
Rp6504
(dp6505
bag2
(g3840
g64
tp6506
Rp6507
(dp6508
bag69
(g2115
g64
tp6509
Rp6510
(dp6511
ba(lp6512
g69
(g1853
g64
tp6513
Rp6514
(dp6515
batp6516
a((lp6517
g2
(g3
(g2241
g4
(g5970
g191
tp6518
Rp6519
(dp6520
bg4
(g5
(I33
I560
tp6521
Rp6522
(dp6523
bg155
tp6524
Rp6525
(dp6526
bg58
tp6527
Rp6528
(dp6529
bg64
tp6530
Rp6531
(dp6532
bag69
(g6342
g64
tp6533
Rp6534
(dp6535
bag2
(g5883
g64
tp6536
Rp6537
(dp6538
bag2
(g1325
g64
tp6539
Rp6540
(dp6541
bag2
(g1166
g64
tp6542
Rp6543
(dp6544
bag2
(g992
g64
tp6545
Rp6546
(dp6547
bag2
(g692
g64
tp6548
Rp6549
(dp6550
bag2
(g374
g64
tp6551
Rp6552
(dp6553
bag2
(g329
g64
tp6554
Rp6555
(dp6556
bag2
(g61
g64
tp6557
Rp6558
(dp6559
bag2
(g251
g64
tp6560
Rp6561
(dp6562
bag2
(g104
g64
tp6563
Rp6564
(dp6565
bag69
(g113
g64
tp6566
Rp6567
(dp6568
bag69
(g13
g64
tp6569
Rp6570
(dp6571
bag69
(g122
g64
tp6572
Rp6573
(dp6574
bag2
(g137
g64
tp6575
Rp6576
(dp6577
bag2
(g164
g64
tp6578
Rp6579
(dp6580
bag69
(g203
g64
tp6581
Rp6582
(dp6583
bag2
(g233
g64
tp6584
Rp6585
(dp6586
bag69
(g55
g64
tp6587
Rp6588
(dp6589
bag2
(g1787
g64
tp6590
Rp6591
(dp6592
bag2
(g2049
g64
tp6593
Rp6594
(dp6595
bag2
(g2247
g64
tp6596
Rp6597
(dp6598
bag2
(g2580
g64
tp6599
Rp6600
(dp6601
bag2
(g3360
g64
tp6602
Rp6603
(dp6604
bag2
(g3507
g64
tp6605
Rp6606
(dp6607
bag2
(g3840
g64
tp6608
Rp6609
(dp6610
bag69
(g2115
g64
tp6611
Rp6612
(dp6613
ba(lp6614
g69
(g1853
g64
tp6615
Rp6616
(dp6617
batp6618
a((lp6619
g2
(g6249
g64
tp6620
Rp6621
(dp6622
bag2
(g5883
g64
tp6623
Rp6624
(dp6625
bag2
(g1325
g64
tp6626
Rp6627
(dp6628
bag2
(g1166
g64
tp6629
Rp6630
(dp6631
bag2
(g992
g64
tp6632
Rp6633
(dp6634
bag2
(g692
g64
tp6635
Rp6636
(dp6637
bag2
(g374
g64
tp6638
Rp6639
(dp6640
bag2
(g329
g64
tp6641
Rp6642
(dp6643
bag2
(g61
g64
tp6644
Rp6645
(dp6646
bag2
(g251
g64
tp6647
Rp6648
(dp6649
bag2
(g104
g64
tp6650
Rp6651
(dp6652
bag69
(g113
g64
tp6653
Rp6654
(dp6655
bag69
(g13
g64
tp6656
Rp6657
(dp6658
bag69
(g122
g64
tp6659
Rp6660
(dp6661
bag2
(g137
g64
tp6662
Rp6663
(dp6664
bag2
(g164
g64
tp6665
Rp6666
(dp6667
bag69
(g203
g64
tp6668
Rp6669
(dp6670
bag2
(g233
g64
tp6671
Rp6672
(dp6673
bag69
(g55
g64
tp6674
Rp6675
(dp6676
bag2
(g1787
g64
tp6677
Rp6678
(dp6679
bag2
(g2049
g64
tp6680
Rp6681
(dp6682
bag2
(g2247
g64
tp6683
Rp6684
(dp6685
bag2
(g2580
g64
tp6686
Rp6687
(dp6688
bag2
(g3360
g64
tp6689
Rp6690
(dp6691
bag2
(g3507
g64
tp6692
Rp6693
(dp6694
bag2
(g3840
g64
tp6695
Rp6696
(dp6697
bag69
(g2115
g64
tp6698
Rp6699
(dp6700
ba(lp6701
g69
(g1853
g64
tp6702
Rp6703
(dp6704
batp6705
a((lp6706
g2
(g6528
g64
tp6707
Rp6708
(dp6709
bag2
(g6249
g64
tp6710
Rp6711
(dp6712
bag2
(g5883
g64
tp6713
Rp6714
(dp6715
bag2
(g1325
g64
tp6716
Rp6717
(dp6718
bag2
(g1166
g64
tp6719
Rp6720
(dp6721
bag2
(g992
g64
tp6722
Rp6723
(dp6724
bag2
(g692
g64
tp6725
Rp6726
(dp6727
bag2
(g374
g64
tp6728
Rp6729
(dp6730
bag2
(g329
g64
tp6731
Rp6732
(dp6733
bag2
(g61
g64
tp6734
Rp6735
(dp6736
bag2
(g251
g64
tp6737
Rp6738
(dp6739
bag2
(g104
g64
tp6740
Rp6741
(dp6742
bag69
(g113
g64
tp6743
Rp6744
(dp6745
bag69
(g13
g64
tp6746
Rp6747
(dp6748
bag69
(g122
g64
tp6749
Rp6750
(dp6751
bag2
(g137
g64
tp6752
Rp6753
(dp6754
bag2
(g164
g64
tp6755
Rp6756
(dp6757
bag69
(g203
g64
tp6758
Rp6759
(dp6760
bag2
(g233
g64
tp6761
Rp6762
(dp6763
bag69
(g55
g64
tp6764
Rp6765
(dp6766
bag2
(g1787
g64
tp6767
Rp6768
(dp6769
bag2
(g2049
g64
tp6770
Rp6771
(dp6772
bag2
(g2247
g64
tp6773
Rp6774
(dp6775
bag2
(g2580
g64
tp6776
Rp6777
(dp6778
bag2
(g3360
g64
tp6779
Rp6780
(dp6781
bag2
(g3507
g64
tp6782
Rp6783
(dp6784
bag2
(g3840
g64
tp6785
Rp6786
(dp6787
bag69
(g2115
g64
tp6788
Rp6789
(dp6790
ba(lp6791
g69
(g1853
g64
tp6792
Rp6793
(dp6794
batp6795
a((lp6796
g2
(g6249
g64
tp6797
Rp6798
(dp6799
bag2
(g6528
g64
tp6800
Rp6801
(dp6802
bag2
(g6249
g64
tp6803
Rp6804
(dp6805
bag2
(g5883
g64
tp6806
Rp6807
(dp6808
bag2
(g1325
g64
tp6809
Rp6810
(dp6811
bag2
(g1166
g64
tp6812
Rp6813
(dp6814
bag2
(g992
g64
tp6815
Rp6816
(dp6817
bag2
(g692
g64
tp6818
Rp6819
(dp6820
bag2
(g374
g64
tp6821
Rp6822
(dp6823
bag2
(g329
g64
tp6824
Rp6825
(dp6826
bag2
(g61
g64
tp6827
Rp6828
(dp6829
bag2
(g251
g64
tp6830
Rp6831
(dp6832
bag2
(g104
g64
tp6833
Rp6834
(dp6835
bag69
(g113
g64
tp6836
Rp6837
(dp6838
bag69
(g13
g64
tp6839
Rp6840
(dp6841
bag69
(g122
g64
tp6842
Rp6843
(dp6844
bag2
(g137
g64
tp6845
Rp6846
(dp6847
bag2
(g164
g64
tp6848
Rp6849
(dp6850
bag69
(g203
g64
tp6851
Rp6852
(dp6853
bag2
(g233
g64
tp6854
Rp6855
(dp6856
bag69
(g55
g64
tp6857
Rp6858
(dp6859
bag2
(g1787
g64
tp6860
Rp6861
(dp6862
bag2
(g2049
g64
tp6863
Rp6864
(dp6865
bag2
(g2247
g64
tp6866
Rp6867
(dp6868
bag2
(g2580
g64
tp6869
Rp6870
(dp6871
bag2
(g3360
g64
tp6872
Rp6873
(dp6874
bag2
(g3507
g64
tp6875
Rp6876
(dp6877
bag2
(g3840
g64
tp6878
Rp6879
(dp6880
bag69
(g2115
g64
tp6881
Rp6882
(dp6883
ba(lp6884
g69
(g1853
g64
tp6885
Rp6886
(dp6887
batp6888
a((lp6889
g2
(g329
g64
tp6890
Rp6891
(dp6892
bag2
(g6528
g64
tp6893
Rp6894
(dp6895
bag2
(g6249
g64
tp6896
Rp6897
(dp6898
bag2
(g5883
g64
tp6899
Rp6900
(dp6901
bag2
(g1325
g64
tp6902
Rp6903
(dp6904
bag2
(g1166
g64
tp6905
Rp6906
(dp6907
bag2
(g992
g64
tp6908
Rp6909
(dp6910
bag2
(g692
g64
tp6911
Rp6912
(dp6913
bag2
(g374
g64
tp6914
Rp6915
(dp6916
bag2
(g329
g64
tp6917
Rp6918
(dp6919
bag2
(g61
g64
tp6920
Rp6921
(dp6922
bag2
(g251
g64
tp6923
Rp6924
(dp6925
bag2
(g104
g64
tp6926
Rp6927
(dp6928
bag69
(g113
g64
tp6929
Rp6930
(dp6931
bag69
(g13
g64
tp6932
Rp6933
(dp6934
bag69
(g122
g64
tp6935
Rp6936
(dp6937
bag2
(g137
g64
tp6938
Rp6939
(dp6940
bag2
(g164
g64
tp6941
Rp6942
(dp6943
bag69
(g203
g64
tp6944
Rp6945
(dp6946
bag2
(g233
g64
tp6947
Rp6948
(dp6949
bag69
(g55
g64
tp6950
Rp6951
(dp6952
bag2
(g1787
g64
tp6953
Rp6954
(dp6955
bag2
(g2049
g64
tp6956
Rp6957
(dp6958
bag2
(g2247
g64
tp6959
Rp6960
(dp6961
bag2
(g2580
g64
tp6962
Rp6963
(dp6964
bag2
(g3360
g64
tp6965
Rp6966
(dp6967
bag2
(g3507
g64
tp6968
Rp6969
(dp6970
bag2
(g3840
g64
tp6971
Rp6972
(dp6973
bag69
(g2115
g64
tp6974
Rp6975
(dp6976
ba(lp6977
g69
(g1853
g64
tp6978
Rp6979
(dp6980
batp6981
a((lp6982
g2
(g3
(g2571
g4
(g5
(I-5
I28
tp6983
Rp6984
(dp6985
bg191
tp6986
Rp6987
(dp6988
bg4
(g5
(I-9
I280
tp6989
Rp6990
(dp6991
bg155
tp6992
Rp6993
(dp6994
btp6995
Rp6996
(dp6997
bg64
tp6998
Rp6999
(dp7000
bag69
(g383
g64
tp7001
Rp7002
(dp7003
bag2
(g6528
g64
tp7004
Rp7005
(dp7006
bag2
(g6249
g64
tp7007
Rp7008
(dp7009
bag2
(g5883
g64
tp7010
Rp7011
(dp7012
bag2
(g1325
g64
tp7013
Rp7014
(dp7015
bag2
(g1166
g64
tp7016
Rp7017
(dp7018
bag2
(g992
g64
tp7019
Rp7020
(dp7021
bag2
(g692
g64
tp7022
Rp7023
(dp7024
bag2
(g374
g64
tp7025
Rp7026
(dp7027
bag2
(g329
g64
tp7028
Rp7029
(dp7030
bag2
(g61
g64
tp7031
Rp7032
(dp7033
bag2
(g251
g64
tp7034
Rp7035
(dp7036
bag2
(g104
g64
tp7037
Rp7038
(dp7039
bag69
(g113
g64
tp7040
Rp7041
(dp7042
bag69
(g13
g64
tp7043
Rp7044
(dp7045
bag69
(g122
g64
tp7046
Rp7047
(dp7048
bag2
(g137
g64
tp7049
Rp7050
(dp7051
bag2
(g164
g64
tp7052
Rp7053
(dp7054
bag69
(g203
g64
tp7055
Rp7056
(dp7057
bag2
(g233
g64
tp7058
Rp7059
(dp7060
bag69
(g55
g64
tp7061
Rp7062
(dp7063
bag2
(g1787
g64
tp7064
Rp7065
(dp7066
bag2
(g2049
g64
tp7067
Rp7068
(dp7069
bag2
(g2247
g64
tp7070
Rp7071
(dp7072
bag2
(g2580
g64
tp7073
Rp7074
(dp7075
bag2
(g3360
g64
tp7076
Rp7077
(dp7078
bag2
(g3507
g64
tp7079
Rp7080
(dp7081
bag2
(g3840
g64
tp7082
Rp7083
(dp7084
bag69
(g2115
g64
tp7085
Rp7086
(dp7087
ba(lp7088
g69
(g1853
g64
tp7089
Rp7090
(dp7091
batp7092
a((lp7093
g2
(g329
g64
tp7094
Rp7095
(dp7096
bag2
(g6528
g64
tp7097
Rp7098
(dp7099
bag2
(g6249
g64
tp7100
Rp7101
(dp7102
bag2
(g5883
g64
tp7103
Rp7104
(dp7105
bag2
(g1325
g64
tp7106
Rp7107
(dp7108
bag2
(g1166
g64
tp7109
Rp7110
(dp7111
bag2
(g992
g64
tp7112
Rp7113
(dp7114
bag2
(g692
g64
tp7115
Rp7116
(dp7117
bag2
(g374
g64
tp7118
Rp7119
(dp7120
bag2
(g329
g64
tp7121
Rp7122
(dp7123
bag2
(g61
g64
tp7124
Rp7125
(dp7126
bag2
(g251
g64
tp7127
Rp7128
(dp7129
bag2
(g104
g64
tp7130
Rp7131
(dp7132
bag69
(g113
g64
tp7133
Rp7134
(dp7135
bag69
(g13
g64
tp7136
Rp7137
(dp7138
bag69
(g122
g64
tp7139
Rp7140
(dp7141
bag2
(g137
g64
tp7142
Rp7143
(dp7144
bag2
(g164
g64
tp7145
Rp7146
(dp7147
bag69
(g203
g64
tp7148
Rp7149
(dp7150
bag2
(g233
g64
tp7151
Rp7152
(dp7153
bag69
(g55
g64
tp7154
Rp7155
(dp7156
bag2
(g1787
g64
tp7157
Rp7158
(dp7159
bag2
(g2049
g64
tp7160
Rp7161
(dp7162
bag2
(g2247
g64
tp7163
Rp7164
(dp7165
bag2
(g2580
g64
tp7166
Rp7167
(dp7168
bag2
(g3360
g64
tp7169
Rp7170
(dp7171
bag2
(g3507
g64
tp7172
Rp7173
(dp7174
bag2
(g3840
g64
tp7175
Rp7176
(dp7177
bag69
(g2115
g64
tp7178
Rp7179
(dp7180
ba(lp7181
g69
(g1853
g64
tp7182
Rp7183
(dp7184
batp7185
a((lp7186
g2
(g6996
g64
tp7187
Rp7188
(dp7189
bag2
(g6528
g64
tp7190
Rp7191
(dp7192
bag2
(g6249
g64
tp7193
Rp7194
(dp7195
bag2
(g5883
g64
tp7196
Rp7197
(dp7198
bag2
(g1325
g64
tp7199
Rp7200
(dp7201
bag2
(g1166
g64
tp7202
Rp7203
(dp7204
bag2
(g992
g64
tp7205
Rp7206
(dp7207
bag2
(g692
g64
tp7208
Rp7209
(dp7210
bag2
(g374
g64
tp7211
Rp7212
(dp7213
bag2
(g329
g64
tp7214
Rp7215
(dp7216
bag2
(g61
g64
tp7217
Rp7218
(dp7219
bag2
(g251
g64
tp7220
Rp7221
(dp7222
bag2
(g104
g64
tp7223
Rp7224
(dp7225
bag69
(g113
g64
tp7226
Rp7227
(dp7228
bag69
(g13
g64
tp7229
Rp7230
(dp7231
bag69
(g122
g64
tp7232
Rp7233
(dp7234
bag2
(g137
g64
tp7235
Rp7236
(dp7237
bag2
(g164
g64
tp7238
Rp7239
(dp7240
bag69
(g203
g64
tp7241
Rp7242
(dp7243
bag2
(g233
g64
tp7244
Rp7245
(dp7246
bag69
(g55
g64
tp7247
Rp7248
(dp7249
bag2
(g1787
g64
tp7250
Rp7251
(dp7252
bag2
(g2049
g64
tp7253
Rp7254
(dp7255
bag2
(g2247
g64
tp7256
Rp7257
(dp7258
bag2
(g2580
g64
tp7259
Rp7260
(dp7261
bag2
(g3360
g64
tp7262
Rp7263
(dp7264
bag2
(g3507
g64
tp7265
Rp7266
(dp7267
bag2
(g3840
g64
tp7268
Rp7269
(dp7270
bag69
(g2115
g64
tp7271
Rp7272
(dp7273
ba(lp7274
g69
(g1853
g64
tp7275
Rp7276
(dp7277
batp7278
a((lp7279
g2
(g6249
g64
tp7280
Rp7281
(dp7282
bag2
(g6996
g64
tp7283
Rp7284
(dp7285
bag2
(g6528
g64
tp7286
Rp7287
(dp7288
bag2
(g6249
g64
tp7289
Rp7290
(dp7291
bag2
(g5883
g64
tp7292
Rp7293
(dp7294
bag2
(g1325
g64
tp7295
Rp7296
(dp7297
bag2
(g1166
g64
tp7298
Rp7299
(dp7300
bag2
(g992
g64
tp7301
Rp7302
(dp7303
bag2
(g692
g64
tp7304
Rp7305
(dp7306
bag2
(g374
g64
tp7307
Rp7308
(dp7309
bag2
(g329
g64
tp7310
Rp7311
(dp7312
bag2
(g61
g64
tp7313
Rp7314
(dp7315
bag2
(g251
g64
tp7316
Rp7317
(dp7318
bag2
(g104
g64
tp7319
Rp7320
(dp7321
bag69
(g113
g64
tp7322
Rp7323
(dp7324
bag69
(g13
g64
tp7325
Rp7326
(dp7327
bag69
(g122
g64
tp7328
Rp7329
(dp7330
bag2
(g137
g64
tp7331
Rp7332
(dp7333
bag2
(g164
g64
tp7334
Rp7335
(dp7336
bag69
(g203
g64
tp7337
Rp7338
(dp7339
bag2
(g233
g64
tp7340
Rp7341
(dp7342
bag69
(g55
g64
tp7343
Rp7344
(dp7345
bag2
(g1787
g64
tp7346
Rp7347
(dp7348
bag2
(g2049
g64
tp7349
Rp7350
(dp7351
bag2
(g2247
g64
tp7352
Rp7353
(dp7354
bag2
(g2580
g64
tp7355
Rp7356
(dp7357
bag2
(g3360
g64
tp7358
Rp7359
(dp7360
bag2
(g3507
g64
tp7361
Rp7362
(dp7363
bag2
(g3840
g64
tp7364
Rp7365
(dp7366
bag69
(g2115
g64
tp7367
Rp7368
(dp7369
ba(lp7370
g69
(g1853
g64
tp7371
Rp7372
(dp7373
batp7374
a((lp7375
g2
(g6996
g64
tp7376
Rp7377
(dp7378
bag69
(g6342
g64
tp7379
Rp7380
(dp7381
bag2
(g6996
g64
tp7382
Rp7383
(dp7384
bag2
(g6528
g64
tp7385
Rp7386
(dp7387
bag2
(g6249
g64
tp7388
Rp7389
(dp7390
bag2
(g5883
g64
tp7391
Rp7392
(dp7393
bag2
(g1325
g64
tp7394
Rp7395
(dp7396
bag2
(g1166
g64
tp7397
Rp7398
(dp7399
bag2
(g992
g64
tp7400
Rp7401
(dp7402
bag2
(g692
g64
tp7403
Rp7404
(dp7405
bag2
(g374
g64
tp7406
Rp7407
(dp7408
bag2
(g329
g64
tp7409
Rp7410
(dp7411
bag2
(g61
g64
tp7412
Rp7413
(dp7414
bag2
(g251
g64
tp7415
Rp7416
(dp7417
bag2
(g104
g64
tp7418
Rp7419
(dp7420
bag69
(g113
g64
tp7421
Rp7422
(dp7423
bag69
(g13
g64
tp7424
Rp7425
(dp7426
bag69
(g122
g64
tp7427
Rp7428
(dp7429
bag2
(g137
g64
tp7430
Rp7431
(dp7432
bag2
(g164
g64
tp7433
Rp7434
(dp7435
bag69
(g203
g64
tp7436
Rp7437
(dp7438
bag2
(g233
g64
tp7439
Rp7440
(dp7441
bag69
(g55
g64
tp7442
Rp7443
(dp7444
bag2
(g1787
g64
tp7445
Rp7446
(dp7447
bag2
(g2049
g64
tp7448
Rp7449
(dp7450
bag2
(g2247
g64
tp7451
Rp7452
(dp7453
bag2
(g2580
g64
tp7454
Rp7455
(dp7456
bag2
(g3360
g64
tp7457
Rp7458
(dp7459
bag2
(g3507
g64
tp7460
Rp7461
(dp7462
bag2
(g3840
g64
tp7463
Rp7464
(dp7465
bag69
(g2115
g64
tp7466
Rp7467
(dp7468
ba(lp7469
g69
(g1853
g64
tp7470
Rp7471
(dp7472
batp7473
a((lp7474
g2
(g6249
g64
tp7475
Rp7476
(dp7477
bag2
(g6996
g64
tp7478
Rp7479
(dp7480
bag2
(g6528
g64
tp7481
Rp7482
(dp7483
bag2
(g6249
g64
tp7484
Rp7485
(dp7486
bag2
(g5883
g64
tp7487
Rp7488
(dp7489
bag2
(g1325
g64
tp7490
Rp7491
(dp7492
bag2
(g1166
g64
tp7493
Rp7494
(dp7495
bag2
(g992
g64
tp7496
Rp7497
(dp7498
bag2
(g692
g64
tp7499
Rp7500
(dp7501
bag2
(g374
g64
tp7502
Rp7503
(dp7504
bag2
(g329
g64
tp7505
Rp7506
(dp7507
bag2
(g61
g64
tp7508
Rp7509
(dp7510
bag2
(g251
g64
tp7511
Rp7512
(dp7513
bag2
(g104
g64
tp7514
Rp7515
(dp7516
bag69
(g113
g64
tp7517
Rp7518
(dp7519
bag69
(g13
g64
tp7520
Rp7521
(dp7522
bag69
(g122
g64
tp7523
Rp7524
(dp7525
bag2
(g137
g64
tp7526
Rp7527
(dp7528
bag2
(g164
g64
tp7529
Rp7530
(dp7531
bag69
(g203
g64
tp7532
Rp7533
(dp7534
bag2
(g233
g64
tp7535
Rp7536
(dp7537
bag69
(g55
g64
tp7538
Rp7539
(dp7540
bag2
(g1787
g64
tp7541
Rp7542
(dp7543
bag2
(g2049
g64
tp7544
Rp7545
(dp7546
bag2
(g2247
g64
tp7547
Rp7548
(dp7549
bag2
(g2580
g64
tp7550
Rp7551
(dp7552
bag2
(g3360
g64
tp7553
Rp7554
(dp7555
bag2
(g3507
g64
tp7556
Rp7557
(dp7558
bag2
(g3840
g64
tp7559
Rp7560
(dp7561
bag69
(g2115
g64
tp7562
Rp7563
(dp7564
ba(lp7565
g69
(g1853
g64
tp7566
Rp7567
(dp7568
batp7569
a((lp7570
g2
(g6996
g64
tp7571
Rp7572
(dp7573
bag2
(g6996
g64
tp7574
Rp7575
(dp7576
bag2
(g6528
g64
tp7577
Rp7578
(dp7579
bag2
(g6249
g64
tp7580
Rp7581
(dp7582
bag2
(g5883
g64
tp7583
Rp7584
(dp7585
bag2
(g1325
g64
tp7586
Rp7587
(dp7588
bag2
(g1166
g64
tp7589
Rp7590
(dp7591
bag2
(g992
g64
tp7592
Rp7593
(dp7594
bag2
(g692
g64
tp7595
Rp7596
(dp7597
bag2
(g374
g64
tp7598
Rp7599
(dp7600
bag2
(g329
g64
tp7601
Rp7602
(dp7603
bag2
(g61
g64
tp7604
Rp7605
(dp7606
bag2
(g251
g64
tp7607
Rp7608
(dp7609
bag2
(g104
g64
tp7610
Rp7611
(dp7612
bag69
(g113
g64
tp7613
Rp7614
(dp7615
bag69
(g13
g64
tp7616
Rp7617
(dp7618
bag69
(g122
g64
tp7619
Rp7620
(dp7621
bag2
(g137
g64
tp7622
Rp7623
(dp7624
bag2
(g164
g64
tp7625
Rp7626
(dp7627
bag69
(g203
g64
tp7628
Rp7629
(dp7630
bag2
(g233
g64
tp7631
Rp7632
(dp7633
bag69
(g55
g64
tp7634
Rp7635
(dp7636
bag2
(g1787
g64
tp7637
Rp7638
(dp7639
bag2
(g2049
g64
tp7640
Rp7641
(dp7642
bag2
(g2247
g64
tp7643
Rp7644
(dp7645
bag2
(g2580
g64
tp7646
Rp7647
(dp7648
bag2
(g3360
g64
tp7649
Rp7650
(dp7651
bag2
(g3507
g64
tp7652
Rp7653
(dp7654
bag2
(g3840
g64
tp7655
Rp7656
(dp7657
bag69
(g2115
g64
tp7658
Rp7659
(dp7660
ba(lp7661
g69
(g1853
g64
tp7662
Rp7663
(dp7664
batp7665
a((lp7666
g2
(g5976
g64
tp7667
Rp7668
(dp7669
bag2
(g55
g64
tp7670
Rp7671
(dp7672
bag2
(g6996
g64
tp7673
Rp7674
(dp7675
bag2
(g6528
g64
tp7676
Rp7677
(dp7678
bag2
(g6249
g64
tp7679
Rp7680
(dp7681
bag2
(g5883
g64
tp7682
Rp7683
(dp7684
bag2
(g1325
g64
tp7685
Rp7686
(dp7687
bag2
(g1166
g64
tp7688
Rp7689
(dp7690
bag2
(g992
g64
tp7691
Rp7692
(dp7693
bag2
(g692
g64
tp7694
Rp7695
(dp7696
bag2
(g374
g64
tp7697
Rp7698
(dp7699
bag2
(g329
g64
tp7700
Rp7701
(dp7702
bag2
(g61
g64
tp7703
Rp7704
(dp7705
bag2
(g251
g64
tp7706
Rp7707
(dp7708
bag2
(g104
g64
tp7709
Rp7710
(dp7711
bag69
(g113
g64
tp7712
Rp7713
(dp7714
bag69
(g13
g64
tp7715
Rp7716
(dp7717
bag69
(g122
g64
tp7718
Rp7719
(dp7720
bag2
(g137
g64
tp7721
Rp7722
(dp7723
bag2
(g164
g64
tp7724
Rp7725
(dp7726
bag69
(g203
g64
tp7727
Rp7728
(dp7729
bag2
(g233
g64
tp7730
Rp7731
(dp7732
bag69
(g55
g64
tp7733
Rp7734
(dp7735
bag2
(g1787
g64
tp7736
Rp7737
(dp7738
bag2
(g2049
g64
tp7739
Rp7740
(dp7741
bag2
(g2247
g64
tp7742
Rp7743
(dp7744
bag2
(g2580
g64
tp7745
Rp7746
(dp7747
bag2
(g3360
g64
tp7748
Rp7749
(dp7750
bag2
(g3507
g64
tp7751
Rp7752
(dp7753
bag2
(g3840
g64
tp7754
Rp7755
(dp7756
bag69
(g2115
g64
tp7757
Rp7758
(dp7759
ba(lp7760
g69
(g1853
g64
tp7761
Rp7762
(dp7763
batp7764
a((lp7765
g69
(g55
g64
tp7766
Rp7767
(dp7768
bag2
(g6996
g64
tp7769
Rp7770
(dp7771
bag2
(g6528
g64
tp7772
Rp7773
(dp7774
bag2
(g6249
g64
tp7775
Rp7776
(dp7777
bag2
(g5883
g64
tp7778
Rp7779
(dp7780
bag2
(g1325
g64
tp7781
Rp7782
(dp7783
bag2
(g1166
g64
tp7784
Rp7785
(dp7786
bag2
(g992
g64
tp7787
Rp7788
(dp7789
bag2
(g692
g64
tp7790
Rp7791
(dp7792
bag2
(g374
g64
tp7793
Rp7794
(dp7795
bag2
(g329
g64
tp7796
Rp7797
(dp7798
bag2
(g61
g64
tp7799
Rp7800
(dp7801
bag2
(g251
g64
tp7802
Rp7803
(dp7804
bag2
(g104
g64
tp7805
Rp7806
(dp7807
bag69
(g113
g64
tp7808
Rp7809
(dp7810
bag69
(g13
g64
tp7811
Rp7812
(dp7813
bag69
(g122
g64
tp7814
Rp7815
(dp7816
bag2
(g137
g64
tp7817
Rp7818
(dp7819
bag2
(g164
g64
tp7820
Rp7821
(dp7822
bag69
(g203
g64
tp7823
Rp7824
(dp7825
bag2
(g233
g64
tp7826
Rp7827
(dp7828
bag69
(g55
g64
tp7829
Rp7830
(dp7831
bag2
(g1787
g64
tp7832
Rp7833
(dp7834
bag2
(g2049
g64
tp7835
Rp7836
(dp7837
bag2
(g2247
g64
tp7838
Rp7839
(dp7840
bag2
(g2580
g64
tp7841
Rp7842
(dp7843
bag2
(g3360
g64
tp7844
Rp7845
(dp7846
bag2
(g3507
g64
tp7847
Rp7848
(dp7849
bag2
(g3840
g64
tp7850
Rp7851
(dp7852
bag69
(g2115
g64
tp7853
Rp7854
(dp7855
ba(lp7856
g69
(g1853
g64
tp7857
Rp7858
(dp7859
batp7860
a((lp7861
g2
(g5976
g64
tp7862
Rp7863
(dp7864
bag2
(g791
g64
tp7865
Rp7866
(dp7867
bag2
(g6996
g64
tp7868
Rp7869
(dp7870
bag2
(g6528
g64
tp7871
Rp7872
(dp7873
bag2
(g6249
g64
tp7874
Rp7875
(dp7876
bag2
(g5883
g64
tp7877
Rp7878
(dp7879
bag2
(g1325
g64
tp7880
Rp7881
(dp7882
bag2
(g1166
g64
tp7883
Rp7884
(dp7885
bag2
(g992
g64
tp7886
Rp7887
(dp7888
bag2
(g692
g64
tp7889
Rp7890
(dp7891
bag2
(g374
g64
tp7892
Rp7893
(dp7894
bag2
(g329
g64
tp7895
Rp7896
(dp7897
bag2
(g61
g64
tp7898
Rp7899
(dp7900
bag2
(g251
g64
tp7901
Rp7902
(dp7903
bag2
(g104
g64
tp7904
Rp7905
(dp7906
bag69
(g113
g64
tp7907
Rp7908
(dp7909
bag69
(g13
g64
tp7910
Rp7911
(dp7912
bag69
(g122
g64
tp7913
Rp7914
(dp7915
bag2
(g137
g64
tp7916
Rp7917
(dp7918
bag2
(g164
g64
tp7919
Rp7920
(dp7921
bag69
(g203
g64
tp7922
Rp7923
(dp7924
bag2
(g233
g64
tp7925
Rp7926
(dp7927
bag69
(g55
g64
tp7928
Rp7929
(dp7930
bag2
(g1787
g64
tp7931
Rp7932
(dp7933
bag2
(g2049
g64
tp7934
Rp7935
(dp7936
bag2
(g2247
g64
tp7937
Rp7938
(dp7939
bag2
(g2580
g64
tp7940
Rp7941
(dp7942
bag2
(g3360
g64
tp7943
Rp7944
(dp7945
bag2
(g3507
g64
tp7946
Rp7947
(dp7948
bag2
(g3840
g64
tp7949
Rp7950
(dp7951
bag69
(g2115
g64
tp7952
Rp7953
(dp7954
ba(lp7955
g69
(g1853
g64
tp7956
Rp7957
(dp7958
batp7959
a((lp7960
g2
(g5976
g64
tp7961
Rp7962
(dp7963
bag69
(g6342
g64
tp7964
Rp7965
(dp7966
bag2
(g6996
g64
tp7967
Rp7968
(dp7969
bag2
(g6528
g64
tp7970
Rp7971
(dp7972
bag2
(g6249
g64
tp7973
Rp7974
(dp7975
bag2
(g5883
g64
tp7976
Rp7977
(dp7978
bag2
(g1325
g64
tp7979
Rp7980
(dp7981
bag2
(g1166
g64
tp7982
Rp7983
(dp7984
bag2
(g992
g64
tp7985
Rp7986
(dp7987
bag2
(g692
g64
tp7988
Rp7989
(dp7990
bag2
(g374
g64
tp7991
Rp7992
(dp7993
bag2
(g329
g64
tp7994
Rp7995
(dp7996
bag2
(g61
g64
tp7997
Rp7998
(dp7999
bag2
(g251
g64
tp8000
Rp8001
(dp8002
bag2
(g104
g64
tp8003
Rp8004
(dp8005
bag69
(g113
g64
tp8006
Rp8007
(dp8008
bag69
(g13
g64
tp8009
Rp8010
(dp8011
bag69
(g122
g64
tp8012
Rp8013
(dp8014
bag2
(g137
g64
tp8015
Rp8016
(dp8017
bag2
(g164
g64
tp8018
Rp8019
(dp8020
bag69
(g203
g64
tp8021
Rp8022
(dp8023
bag2
(g233
g64
tp8024
Rp8025
(dp8026
bag69
(g55
g64
tp8027
Rp8028
(dp8029
bag2
(g1787
g64
tp8030
Rp8031
(dp8032
bag2
(g2049
g64
tp8033
Rp8034
(dp8035
bag2
(g2247
g64
tp8036
Rp8037
(dp8038
bag2
(g2580
g64
tp8039
Rp8040
(dp8041
bag2
(g3360
g64
tp8042
Rp8043
(dp8044
bag2
(g3507
g64
tp8045
Rp8046
(dp8047
bag2
(g3840
g64
tp8048
Rp8049
(dp8050
bag69
(g2115
g64
tp8051
Rp8052
(dp8053
ba(lp8054
g69
(g1853
g64
tp8055
Rp8056
(dp8057
batp8058
a((lp8059
g2
(g3
(g4
(g5
(I-27
I280
tp8060
Rp8061
(dp8062
bg155
tp8063
Rp8064
(dp8065
bg4
(g5
(I5
I224
tp8066
Rp8067
(dp8068
bg191
tp8069
Rp8070
(dp8071
bg3351
tp8072
Rp8073
(dp8074
bg64
tp8075
Rp8076
(dp8077
bag69
(g6342
g64
tp8078
Rp8079
(dp8080
bag2
(g6996
g64
tp8081
Rp8082
(dp8083
bag2
(g6528
g64
tp8084
Rp8085
(dp8086
bag2
(g6249
g64
tp8087
Rp8088
(dp8089
bag2
(g5883
g64
tp8090
Rp8091
(dp8092
bag2
(g1325
g64
tp8093
Rp8094
(dp8095
bag2
(g1166
g64
tp8096
Rp8097
(dp8098
bag2
(g992
g64
tp8099
Rp8100
(dp8101
bag2
(g692
g64
tp8102
Rp8103
(dp8104
bag2
(g374
g64
tp8105
Rp8106
(dp8107
bag2
(g329
g64
tp8108
Rp8109
(dp8110
bag2
(g61
g64
tp8111
Rp8112
(dp8113
bag2
(g251
g64
tp8114
Rp8115
(dp8116
bag2
(g104
g64
tp8117
Rp8118
(dp8119
bag69
(g113
g64
tp8120
Rp8121
(dp8122
bag69
(g13
g64
tp8123
Rp8124
(dp8125
bag69
(g122
g64
tp8126
Rp8127
(dp8128
bag2
(g137
g64
tp8129
Rp8130
(dp8131
bag2
(g164
g64
tp8132
Rp8133
(dp8134
bag69
(g203
g64
tp8135
Rp8136
(dp8137
bag2
(g233
g64
tp8138
Rp8139
(dp8140
bag69
(g55
g64
tp8141
Rp8142
(dp8143
bag2
(g1787
g64
tp8144
Rp8145
(dp8146
bag2
(g2049
g64
tp8147
Rp8148
(dp8149
bag2
(g2247
g64
tp8150
Rp8151
(dp8152
bag2
(g2580
g64
tp8153
Rp8154
(dp8155
bag2
(g3360
g64
tp8156
Rp8157
(dp8158
bag2
(g3507
g64
tp8159
Rp8160
(dp8161
bag2
(g3840
g64
tp8162
Rp8163
(dp8164
bag69
(g2115
g64
tp8165
Rp8166
(dp8167
ba(lp8168
g69
(g1853
g64
tp8169
Rp8170
(dp8171
batp8172
a((lp8173
g2
(g8073
g64
tp8174
Rp8175
(dp8176
bag2
(g6996
g64
tp8177
Rp8178
(dp8179
bag2
(g6528
g64
tp8180
Rp8181
(dp8182
bag2
(g6249
g64
tp8183
Rp8184
(dp8185
bag2
(g5883
g64
tp8186
Rp8187
(dp8188
bag2
(g1325
g64
tp8189
Rp8190
(dp8191
bag2
(g1166
g64
tp8192
Rp8193
(dp8194
bag2
(g992
g64
tp8195
Rp8196
(dp8197
bag2
(g692
g64
tp8198
Rp8199
(dp8200
bag2
(g374
g64
tp8201
Rp8202
(dp8203
bag2
(g329
g64
tp8204
Rp8205
(dp8206
bag2
(g61
g64
tp8207
Rp8208
(dp8209
bag2
(g251
g64
tp8210
Rp8211
(dp8212
bag2
(g104
g64
tp8213
Rp8214
(dp8215
bag69
(g113
g64
tp8216
Rp8217
(dp8218
bag69
(g13
g64
tp8219
Rp8220
(dp8221
bag69
(g122
g64
tp8222
Rp8223
(dp8224
bag2
(g137
g64
tp8225
Rp8226
(dp8227
bag2
(g164
g64
tp8228
Rp8229
(dp8230
bag69
(g203
g64
tp8231
Rp8232
(dp8233
bag2
(g233
g64
tp8234
Rp8235
(dp8236
bag69
(g55
g64
tp8237
Rp8238
(dp8239
bag2
(g1787
g64
tp8240
Rp8241
(dp8242
bag2
(g2049
g64
tp8243
Rp8244
(dp8245
bag2
(g2247
g64
tp8246
Rp8247
(dp8248
bag2
(g2580
g64
tp8249
Rp8250
(dp8251
bag2
(g3360
g64
tp8252
Rp8253
(dp8254
bag2
(g3507
g64
tp8255
Rp8256
(dp8257
bag2
(g3840
g64
tp8258
Rp8259
(dp8260
bag69
(g2115
g64
tp8261
Rp8262
(dp8263
ba(lp8264
g69
(g1853
g64
tp8265
Rp8266
(dp8267
batp8268
a((lp8269
g2
(g3
(g98
g989
g4
(g5871
g155
tp8270
Rp8271
(dp8272
bg3504
tp8273
Rp8274
(dp8275
bg64
tp8276
Rp8277
(dp8278
bag2
(g8073
g64
tp8279
Rp8280
(dp8281
bag2
(g6996
g64
tp8282
Rp8283
(dp8284
bag2
(g6528
g64
tp8285
Rp8286
(dp8287
bag2
(g6249
g64
tp8288
Rp8289
(dp8290
bag2
(g5883
g64
tp8291
Rp8292
(dp8293
bag2
(g1325
g64
tp8294
Rp8295
(dp8296
bag2
(g1166
g64
tp8297
Rp8298
(dp8299
bag2
(g992
g64
tp8300
Rp8301
(dp8302
bag2
(g692
g64
tp8303
Rp8304
(dp8305
bag2
(g374
g64
tp8306
Rp8307
(dp8308
bag2
(g329
g64
tp8309
Rp8310
(dp8311
bag2
(g61
g64
tp8312
Rp8313
(dp8314
bag2
(g251
g64
tp8315
Rp8316
(dp8317
bag2
(g104
g64
tp8318
Rp8319
(dp8320
bag69
(g113
g64
tp8321
Rp8322
(dp8323
bag69
(g13
g64
tp8324
Rp8325
(dp8326
bag69
(g122
g64
tp8327
Rp8328
(dp8329
bag2
(g137
g64
tp8330
Rp8331
(dp8332
bag2
(g164
g64
tp8333
Rp8334
(dp8335
bag69
(g203
g64
tp8336
Rp8337
(dp8338
bag2
(g233
g64
tp8339
Rp8340
(dp8341
bag69
(g55
g64
tp8342
Rp8343
(dp8344
bag2
(g1787
g64
tp8345
Rp8346
(dp8347
bag2
(g2049
g64
tp8348
Rp8349
(dp8350
bag2
(g2247
g64
tp8351
Rp8352
(dp8353
bag2
(g2580
g64
tp8354
Rp8355
(dp8356
bag2
(g3360
g64
tp8357
Rp8358
(dp8359
bag2
(g3507
g64
tp8360
Rp8361
(dp8362
bag2
(g3840
g64
tp8363
Rp8364
(dp8365
bag69
(g2115
g64
tp8366
Rp8367
(dp8368
ba(lp8369
g69
(g1853
g64
tp8370
Rp8371
(dp8372
batp8373
a((lp8374
g2
(g8274
g64
tp8375
Rp8376
(dp8377
bag2
(g8073
g64
tp8378
Rp8379
(dp8380
bag2
(g6996
g64
tp8381
Rp8382
(dp8383
bag2
(g6528
g64
tp8384
Rp8385
(dp8386
bag2
(g6249
g64
tp8387
Rp8388
(dp8389
bag2
(g5883
g64
tp8390
Rp8391
(dp8392
bag2
(g1325
g64
tp8393
Rp8394
(dp8395
bag2
(g1166
g64
tp8396
Rp8397
(dp8398
bag2
(g992
g64
tp8399
Rp8400
(dp8401
bag2
(g692
g64
tp8402
Rp8403
(dp8404
bag2
(g374
g64
tp8405
Rp8406
(dp8407
bag2
(g329
g64
tp8408
Rp8409
(dp8410
bag2
(g61
g64
tp8411
Rp8412
(dp8413
bag2
(g251
g64
tp8414
Rp8415
(dp8416
bag2
(g104
g64
tp8417
Rp8418
(dp8419
bag69
(g113
g64
tp8420
Rp8421
(dp8422
bag69
(g13
g64
tp8423
Rp8424
(dp8425
bag69
(g122
g64
tp8426
Rp8427
(dp8428
bag2
(g137
g64
tp8429
Rp8430
(dp8431
bag2
(g164
g64
tp8432
Rp8433
(dp8434
bag69
(g203
g64
tp8435
Rp8436
(dp8437
bag2
(g233
g64
tp8438
Rp8439
(dp8440
bag69
(g55
g64
tp8441
Rp8442
(dp8443
bag2
(g1787
g64
tp8444
Rp8445
(dp8446
bag2
(g2049
g64
tp8447
Rp8448
(dp8449
bag2
(g2247
g64
tp8450
Rp8451
(dp8452
bag2
(g2580
g64
tp8453
Rp8454
(dp8455
bag2
(g3360
g64
tp8456
Rp8457
(dp8458
bag2
(g3507
g64
tp8459
Rp8460
(dp8461
bag2
(g3840
g64
tp8462
Rp8463
(dp8464
bag69
(g2115
g64
tp8465
Rp8466
(dp8467
ba(lp8468
g69
(g1853
g64
tp8469
Rp8470
(dp8471
batp8472
a((lp8473
g2
(g6249
g64
tp8474
Rp8475
(dp8476
bag2
(g8274
g64
tp8477
Rp8478
(dp8479
bag2
(g8073
g64
tp8480
Rp8481
(dp8482
bag2
(g6996
g64
tp8483
Rp8484
(dp8485
bag2
(g6528
g64
tp8486
Rp8487
(dp8488
bag2
(g6249
g64
tp8489
Rp8490
(dp8491
bag2
(g5883
g64
tp8492
Rp8493
(dp8494
bag2
(g1325
g64
tp8495
Rp8496
(dp8497
bag2
(g1166
g64
tp8498
Rp8499
(dp8500
bag2
(g992
g64
tp8501
Rp8502
(dp8503
bag2
(g692
g64
tp8504
Rp8505
(dp8506
bag2
(g374
g64
tp8507
Rp8508
(dp8509
bag2
(g329
g64
tp8510
Rp8511
(dp8512
bag2
(g61
g64
tp8513
Rp8514
(dp8515
bag2
(g251
g64
tp8516
Rp8517
(dp8518
bag2
(g104
g64
tp8519
Rp8520
(dp8521
bag69
(g113
g64
tp8522
Rp8523
(dp8524
bag69
(g13
g64
tp8525
Rp8526
(dp8527
bag69
(g122
g64
tp8528
Rp8529
(dp8530
bag2
(g137
g64
tp8531
Rp8532
(dp8533
bag2
(g164
g64
tp8534
Rp8535
(dp8536
bag69
(g203
g64
tp8537
Rp8538
(dp8539
bag2
(g233
g64
tp8540
Rp8541
(dp8542
bag69
(g55
g64
tp8543
Rp8544
(dp8545
bag2
(g1787
g64
tp8546
Rp8547
(dp8548
bag2
(g2049
g64
tp8549
Rp8550
(dp8551
bag2
(g2247
g64
tp8552
Rp8553
(dp8554
bag2
(g2580
g64
tp8555
Rp8556
(dp8557
bag2
(g3360
g64
tp8558
Rp8559
(dp8560
bag2
(g3507
g64
tp8561
Rp8562
(dp8563
bag2
(g3840
g64
tp8564
Rp8565
(dp8566
bag69
(g2115
g64
tp8567
Rp8568
(dp8569
ba(lp8570
g69
(g1853
g64
tp8571
Rp8572
(dp8573
batp8574
a((lp8575
g2
(g1166
g64
tp8576
Rp8577
(dp8578
bag2
(g8274
g64
tp8579
Rp8580
(dp8581
bag2
(g8073
g64
tp8582
Rp8583
(dp8584
bag2
(g6996
g64
tp8585
Rp8586
(dp8587
bag2
(g6528
g64
tp8588
Rp8589
(dp8590
bag2
(g6249
g64
tp8591
Rp8592
(dp8593
bag2
(g5883
g64
tp8594
Rp8595
(dp8596
bag2
(g1325
g64
tp8597
Rp8598
(dp8599
bag2
(g1166
g64
tp8600
Rp8601
(dp8602
bag2
(g992
g64
tp8603
Rp8604
(dp8605
bag2
(g692
g64
tp8606
Rp8607
(dp8608
bag2
(g374
g64
tp8609
Rp8610
(dp8611
bag2
(g329
g64
tp8612
Rp8613
(dp8614
bag2
(g61
g64
tp8615
Rp8616
(dp8617
bag2
(g251
g64
tp8618
Rp8619
(dp8620
bag2
(g104
g64
tp8621
Rp8622
(dp8623
bag69
(g113
g64
tp8624
Rp8625
(dp8626
bag69
(g13
g64
tp8627
Rp8628
(dp8629
bag69
(g122
g64
tp8630
Rp8631
(dp8632
bag2
(g137
g64
tp8633
Rp8634
(dp8635
bag2
(g164
g64
tp8636
Rp8637
(dp8638
bag69
(g203
g64
tp8639
Rp8640
(dp8641
bag2
(g233
g64
tp8642
Rp8643
(dp8644
bag69
(g55
g64
tp8645
Rp8646
(dp8647
bag2
(g1787
g64
tp8648
Rp8649
(dp8650
bag2
(g2049
g64
tp8651
Rp8652
(dp8653
bag2
(g2247
g64
tp8654
Rp8655
(dp8656
bag2
(g2580
g64
tp8657
Rp8658
(dp8659
bag2
(g3360
g64
tp8660
Rp8661
(dp8662
bag2
(g3507
g64
tp8663
Rp8664
(dp8665
bag2
(g3840
g64
tp8666
Rp8667
(dp8668
bag69
(g2115
g64
tp8669
Rp8670
(dp8671
ba(lp8672
g69
(g1853
g64
tp8673
Rp8674
(dp8675
batp8676
a((lp8677
g2
(g3
(g4
(g5
(I25
I56
tp8678
Rp8679
(dp8680
bg9
(g13
g38
(I14
tp8681
Rp8682
(dp8683
btp8684
Rp8685
(dp8686
btp8687
Rp8688
(dp8689
bg4
(g5
(I-272
I105
tp8690
Rp8691
(dp8692
bg155
tp8693
Rp8694
(dp8695
bg4
(g5
(I-1163
I105
tp8696
Rp8697
(dp8698
bg191
tp8699
Rp8700
(dp8701
bg4
(g5
(I-169
I28
tp8702
Rp8703
(dp8704
bg3810
tp8705
Rp8706
(dp8707
bg4
(g5
(I1753
I105
tp8708
Rp8709
(dp8710
bg1301
tp8711
Rp8712
(dp8713
bg3837
tp8714
Rp8715
(dp8716
bg64
tp8717
Rp8718
(dp8719
bag69
(g1241
g64
tp8720
Rp8721
(dp8722
bag2
(g8274
g64
tp8723
Rp8724
(dp8725
bag2
(g8073
g64
tp8726
Rp8727
(dp8728
bag2
(g6996
g64
tp8729
Rp8730
(dp8731
bag2
(g6528
g64
tp8732
Rp8733
(dp8734
bag2
(g6249
g64
tp8735
Rp8736
(dp8737
bag2
(g5883
g64
tp8738
Rp8739
(dp8740
bag2
(g1325
g64
tp8741
Rp8742
(dp8743
bag2
(g1166
g64
tp8744
Rp8745
(dp8746
bag2
(g992
g64
tp8747
Rp8748
(dp8749
bag2
(g692
g64
tp8750
Rp8751
(dp8752
bag2
(g374
g64
tp8753
Rp8754
(dp8755
bag2
(g329
g64
tp8756
Rp8757
(dp8758
bag2
(g61
g64
tp8759
Rp8760
(dp8761
bag2
(g251
g64
tp8762
Rp8763
(dp8764
bag2
(g104
g64
tp8765
Rp8766
(dp8767
bag69
(g113
g64
tp8768
Rp8769
(dp8770
bag69
(g13
g64
tp8771
Rp8772
(dp8773
bag69
(g122
g64
tp8774
Rp8775
(dp8776
bag2
(g137
g64
tp8777
Rp8778
(dp8779
bag2
(g164
g64
tp8780
Rp8781
(dp8782
bag69
(g203
g64
tp8783
Rp8784
(dp8785
bag2
(g233
g64
tp8786
Rp8787
(dp8788
bag69
(g55
g64
tp8789
Rp8790
(dp8791
bag2
(g1787
g64
tp8792
Rp8793
(dp8794
bag2
(g2049
g64
tp8795
Rp8796
(dp8797
bag2
(g2247
g64
tp8798
Rp8799
(dp8800
bag2
(g2580
g64
tp8801
Rp8802
(dp8803
bag2
(g3360
g64
tp8804
Rp8805
(dp8806
bag2
(g3507
g64
tp8807
Rp8808
(dp8809
bag2
(g3840
g64
tp8810
Rp8811
(dp8812
bag69
(g2115
g64
tp8813
Rp8814
(dp8815
ba(lp8816
g69
(g1853
g64
tp8817
Rp8818
(dp8819
batp8820
a((lp8821
g2
(g1241
g64
tp8822
Rp8823
(dp8824
bag69
(g8715
g64
tp8825
Rp8826
(dp8827
bag2
(g8274
g64
tp8828
Rp8829
(dp8830
bag2
(g8073
g64
tp8831
Rp8832
(dp8833
bag2
(g6996
g64
tp8834
Rp8835
(dp8836
bag2
(g6528
g64
tp8837
Rp8838
(dp8839
bag2
(g6249
g64
tp8840
Rp8841
(dp8842
bag2
(g5883
g64
tp8843
Rp8844
(dp8845
bag2
(g1325
g64
tp8846
Rp8847
(dp8848
bag2
(g1166
g64
tp8849
Rp8850
(dp8851
bag2
(g992
g64
tp8852
Rp8853
(dp8854
bag2
(g692
g64
tp8855
Rp8856
(dp8857
bag2
(g374
g64
tp8858
Rp8859
(dp8860
bag2
(g329
g64
tp8861
Rp8862
(dp8863
bag2
(g61
g64
tp8864
Rp8865
(dp8866
bag2
(g251
g64
tp8867
Rp8868
(dp8869
bag2
(g104
g64
tp8870
Rp8871
(dp8872
bag69
(g113
g64
tp8873
Rp8874
(dp8875
bag69
(g13
g64
tp8876
Rp8877
(dp8878
bag69
(g122
g64
tp8879
Rp8880
(dp8881
bag2
(g137
g64
tp8882
Rp8883
(dp8884
bag2
(g164
g64
tp8885
Rp8886
(dp8887
bag69
(g203
g64
tp8888
Rp8889
(dp8890
bag2
(g233
g64
tp8891
Rp8892
(dp8893
bag69
(g55
g64
tp8894
Rp8895
(dp8896
bag2
(g1787
g64
tp8897
Rp8898
(dp8899
bag2
(g2049
g64
tp8900
Rp8901
(dp8902
bag2
(g2247
g64
tp8903
Rp8904
(dp8905
bag2
(g2580
g64
tp8906
Rp8907
(dp8908
bag2
(g3360
g64
tp8909
Rp8910
(dp8911
bag2
(g3507
g64
tp8912
Rp8913
(dp8914
bag2
(g3840
g64
tp8915
Rp8916
(dp8917
bag69
(g2115
g64
tp8918
Rp8919
(dp8920
ba(lp8921
g69
(g1853
g64
tp8922
Rp8923
(dp8924
batp8925
a((lp8926
g2
(g1166
g64
tp8927
Rp8928
(dp8929
bag2
(g8274
g64
tp8930
Rp8931
(dp8932
bag2
(g8073
g64
tp8933
Rp8934
(dp8935
bag2
(g6996
g64
tp8936
Rp8937
(dp8938
bag2
(g6528
g64
tp8939
Rp8940
(dp8941
bag2
(g6249
g64
tp8942
Rp8943
(dp8944
bag2
(g5883
g64
tp8945
Rp8946
(dp8947
bag2
(g1325
g64
tp8948
Rp8949
(dp8950
bag2
(g1166
g64
tp8951
Rp8952
(dp8953
bag2
(g992
g64
tp8954
Rp8955
(dp8956
bag2
(g692
g64
tp8957
Rp8958
(dp8959
bag2
(g374
g64
tp8960
Rp8961
(dp8962
bag2
(g329
g64
tp8963
Rp8964
(dp8965
bag2
(g61
g64
tp8966
Rp8967
(dp8968
bag2
(g251
g64
tp8969
Rp8970
(dp8971
bag2
(g104
g64
tp8972
Rp8973
(dp8974
bag69
(g113
g64
tp8975
Rp8976
(dp8977
bag69
(g13
g64
tp8978
Rp8979
(dp8980
bag69
(g122
g64
tp8981
Rp8982
(dp8983
bag2
(g137
g64
tp8984
Rp8985
(dp8986
bag2
(g164
g64
tp8987
Rp8988
(dp8989
bag69
(g203
g64
tp8990
Rp8991
(dp8992
bag2
(g233
g64
tp8993
Rp8994
(dp8995
bag69
(g55
g64
tp8996
Rp8997
(dp8998
bag2
(g1787
g64
tp8999
Rp9000
(dp9001
bag2
(g2049
g64
tp9002
Rp9003
(dp9004
bag2
(g2247
g64
tp9005
Rp9006
(dp9007
bag2
(g2580
g64
tp9008
Rp9009
(dp9010
bag2
(g3360
g64
tp9011
Rp9012
(dp9013
bag2
(g3507
g64
tp9014
Rp9015
(dp9016
bag2
(g3840
g64
tp9017
Rp9018
(dp9019
bag69
(g2115
g64
tp9020
Rp9021
(dp9022
ba(lp9023
g69
(g1853
g64
tp9024
Rp9025
(dp9026
batp9027
a((lp9028
g2
(g8715
g64
tp9029
Rp9030
(dp9031
bag2
(g8274
g64
tp9032
Rp9033
(dp9034
bag2
(g8073
g64
tp9035
Rp9036
(dp9037
bag2
(g6996
g64
tp9038
Rp9039
(dp9040
bag2
(g6528
g64
tp9041
Rp9042
(dp9043
bag2
(g6249
g64
tp9044
Rp9045
(dp9046
bag2
(g5883
g64
tp9047
Rp9048
(dp9049
bag2
(g1325
g64
tp9050
Rp9051
(dp9052
bag2
(g1166
g64
tp9053
Rp9054
(dp9055
bag2
(g992
g64
tp9056
Rp9057
(dp9058
bag2
(g692
g64
tp9059
Rp9060
(dp9061
bag2
(g374
g64
tp9062
Rp9063
(dp9064
bag2
(g329
g64
tp9065
Rp9066
(dp9067
bag2
(g61
g64
tp9068
Rp9069
(dp9070
bag2
(g251
g64
tp9071
Rp9072
(dp9073
bag2
(g104
g64
tp9074
Rp9075
(dp9076
bag69
(g113
g64
tp9077
Rp9078
(dp9079
bag69
(g13
g64
tp9080
Rp9081
(dp9082
bag69
(g122
g64
tp9083
Rp9084
(dp9085
bag2
(g137
g64
tp9086
Rp9087
(dp9088
bag2
(g164
g64
tp9089
Rp9090
(dp9091
bag69
(g203
g64
tp9092
Rp9093
(dp9094
bag2
(g233
g64
tp9095
Rp9096
(dp9097
bag69
(g55
g64
tp9098
Rp9099
(dp9100
bag2
(g1787
g64
tp9101
Rp9102
(dp9103
bag2
(g2049
g64
tp9104
Rp9105
(dp9106
bag2
(g2247
g64
tp9107
Rp9108
(dp9109
bag2
(g2580
g64
tp9110
Rp9111
(dp9112
bag2
(g3360
g64
tp9113
Rp9114
(dp9115
bag2
(g3507
g64
tp9116
Rp9117
(dp9118
bag2
(g3840
g64
tp9119
Rp9120
(dp9121
bag69
(g2115
g64
tp9122
Rp9123
(dp9124
ba(lp9125
g69
(g1853
g64
tp9126
Rp9127
(dp9128
batp9129
a((lp9130
g2
(g6249
g64
tp9131
Rp9132
(dp9133
bag2
(g8715
g64
tp9134
Rp9135
(dp9136
bag2
(g8274
g64
tp9137
Rp9138
(dp9139
bag2
(g8073
g64
tp9140
Rp9141
(dp9142
bag2
(g6996
g64
tp9143
Rp9144
(dp9145
bag2
(g6528
g64
tp9146
Rp9147
(dp9148
bag2
(g6249
g64
tp9149
Rp9150
(dp9151
bag2
(g5883
g64
tp9152
Rp9153
(dp9154
bag2
(g1325
g64
tp9155
Rp9156
(dp9157
bag2
(g1166
g64
tp9158
Rp9159
(dp9160
bag2
(g992
g64
tp9161
Rp9162
(dp9163
bag2
(g692
g64
tp9164
Rp9165
(dp9166
bag2
(g374
g64
tp9167
Rp9168
(dp9169
bag2
(g329
g64
tp9170
Rp9171
(dp9172
bag2
(g61
g64
tp9173
Rp9174
(dp9175
bag2
(g251
g64
tp9176
Rp9177
(dp9178
bag2
(g104
g64
tp9179
Rp9180
(dp9181
bag69
(g113
g64
tp9182
Rp9183
(dp9184
bag69
(g13
g64
tp9185
Rp9186
(dp9187
bag69
(g122
g64
tp9188
Rp9189
(dp9190
bag2
(g137
g64
tp9191
Rp9192
(dp9193
bag2
(g164
g64
tp9194
Rp9195
(dp9196
bag69
(g203
g64
tp9197
Rp9198
(dp9199
bag2
(g233
g64
tp9200
Rp9201
(dp9202
bag69
(g55
g64
tp9203
Rp9204
(dp9205
bag2
(g1787
g64
tp9206
Rp9207
(dp9208
bag2
(g2049
g64
tp9209
Rp9210
(dp9211
bag2
(g2247
g64
tp9212
Rp9213
(dp9214
bag2
(g2580
g64
tp9215
Rp9216
(dp9217
bag2
(g3360
g64
tp9218
Rp9219
(dp9220
bag2
(g3507
g64
tp9221
Rp9222
(dp9223
bag2
(g3840
g64
tp9224
Rp9225
(dp9226
bag69
(g2115
g64
tp9227
Rp9228
(dp9229
ba(lp9230
g69
(g1853
g64
tp9231
Rp9232
(dp9233
batp9234
a((lp9235
g2
(g8715
g64
tp9236
Rp9237
(dp9238
bag69
(g6342
g64
tp9239
Rp9240
(dp9241
bag2
(g8715
g64
tp9242
Rp9243
(dp9244
bag2
(g8274
g64
tp9245
Rp9246
(dp9247
bag2
(g8073
g64
tp9248
Rp9249
(dp9250
bag2
(g6996
g64
tp9251
Rp9252
(dp9253
bag2
(g6528
g64
tp9254
Rp9255
(dp9256
bag2
(g6249
g64
tp9257
Rp9258
(dp9259
bag2
(g5883
g64
tp9260
Rp9261
(dp9262
bag2
(g1325
g64
tp9263
Rp9264
(dp9265
bag2
(g1166
g64
tp9266
Rp9267
(dp9268
bag2
(g992
g64
tp9269
Rp9270
(dp9271
bag2
(g692
g64
tp9272
Rp9273
(dp9274
bag2
(g374
g64
tp9275
Rp9276
(dp9277
bag2
(g329
g64
tp9278
Rp9279
(dp9280
bag2
(g61
g64
tp9281
Rp9282
(dp9283
bag2
(g251
g64
tp9284
Rp9285
(dp9286
bag2
(g104
g64
tp9287
Rp9288
(dp9289
bag69
(g113
g64
tp9290
Rp9291
(dp9292
bag69
(g13
g64
tp9293
Rp9294
(dp9295
bag69
(g122
g64
tp9296
Rp9297
(dp9298
bag2
(g137
g64
tp9299
Rp9300
(dp9301
bag2
(g164
g64
tp9302
Rp9303
(dp9304
bag69
(g203
g64
tp9305
Rp9306
(dp9307
bag2
(g233
g64
tp9308
Rp9309
(dp9310
bag69
(g55
g64
tp9311
Rp9312
(dp9313
bag2
(g1787
g64
tp9314
Rp9315
(dp9316
bag2
(g2049
g64
tp9317
Rp9318
(dp9319
bag2
(g2247
g64
tp9320
Rp9321
(dp9322
bag2
(g2580
g64
tp9323
Rp9324
(dp9325
bag2
(g3360
g64
tp9326
Rp9327
(dp9328
bag2
(g3507
g64
tp9329
Rp9330
(dp9331
bag2
(g3840
g64
tp9332
Rp9333
(dp9334
bag69
(g2115
g64
tp9335
Rp9336
(dp9337
ba(lp9338
g69
(g1853
g64
tp9339
Rp9340
(dp9341
batp9342
a((lp9343
g2
(g6342
g64
tp9344
Rp9345
(dp9346
bag69
(g8715
g64
tp9347
Rp9348
(dp9349
bag2
(g8715
g64
tp9350
Rp9351
(dp9352
bag2
(g8274
g64
tp9353
Rp9354
(dp9355
bag2
(g8073
g64
tp9356
Rp9357
(dp9358
bag2
(g6996
g64
tp9359
Rp9360
(dp9361
bag2
(g6528
g64
tp9362
Rp9363
(dp9364
bag2
(g6249
g64
tp9365
Rp9366
(dp9367
bag2
(g5883
g64
tp9368
Rp9369
(dp9370
bag2
(g1325
g64
tp9371
Rp9372
(dp9373
bag2
(g1166
g64
tp9374
Rp9375
(dp9376
bag2
(g992
g64
tp9377
Rp9378
(dp9379
bag2
(g692
g64
tp9380
Rp9381
(dp9382
bag2
(g374
g64
tp9383
Rp9384
(dp9385
bag2
(g329
g64
tp9386
Rp9387
(dp9388
bag2
(g61
g64
tp9389
Rp9390
(dp9391
bag2
(g251
g64
tp9392
Rp9393
(dp9394
bag2
(g104
g64
tp9395
Rp9396
(dp9397
bag69
(g113
g64
tp9398
Rp9399
(dp9400
bag69
(g13
g64
tp9401
Rp9402
(dp9403
bag69
(g122
g64
tp9404
Rp9405
(dp9406
bag2
(g137
g64
tp9407
Rp9408
(dp9409
bag2
(g164
g64
tp9410
Rp9411
(dp9412
bag69
(g203
g64
tp9413
Rp9414
(dp9415
bag2
(g233
g64
tp9416
Rp9417
(dp9418
bag69
(g55
g64
tp9419
Rp9420
(dp9421
bag2
(g1787
g64
tp9422
Rp9423
(dp9424
bag2
(g2049
g64
tp9425
Rp9426
(dp9427
bag2
(g2247
g64
tp9428
Rp9429
(dp9430
bag2
(g2580
g64
tp9431
Rp9432
(dp9433
bag2
(g3360
g64
tp9434
Rp9435
(dp9436
bag2
(g3507
g64
tp9437
Rp9438
(dp9439
bag2
(g3840
g64
tp9440
Rp9441
(dp9442
bag69
(g2115
g64
tp9443
Rp9444
(dp9445
ba(lp9446
g69
(g1853
g64
tp9447
Rp9448
(dp9449
batp9450
a((lp9451
g2
(g6249
g64
tp9452
Rp9453
(dp9454
bag2
(g8715
g64
tp9455
Rp9456
(dp9457
bag2
(g8274
g64
tp9458
Rp9459
(dp9460
bag2
(g8073
g64
tp9461
Rp9462
(dp9463
bag2
(g6996
g64
tp9464
Rp9465
(dp9466
bag2
(g6528
g64
tp9467
Rp9468
(dp9469
bag2
(g6249
g64
tp9470
Rp9471
(dp9472
bag2
(g5883
g64
tp9473
Rp9474
(dp9475
bag2
(g1325
g64
tp9476
Rp9477
(dp9478
bag2
(g1166
g64
tp9479
Rp9480
(dp9481
bag2
(g992
g64
tp9482
Rp9483
(dp9484
bag2
(g692
g64
tp9485
Rp9486
(dp9487
bag2
(g374
g64
tp9488
Rp9489
(dp9490
bag2
(g329
g64
tp9491
Rp9492
(dp9493
bag2
(g61
g64
tp9494
Rp9495
(dp9496
bag2
(g251
g64
tp9497
Rp9498
(dp9499
bag2
(g104
g64
tp9500
Rp9501
(dp9502
bag69
(g113
g64
tp9503
Rp9504
(dp9505
bag69
(g13
g64
tp9506
Rp9507
(dp9508
bag69
(g122
g64
tp9509
Rp9510
(dp9511
bag2
(g137
g64
tp9512
Rp9513
(dp9514
bag2
(g164
g64
tp9515
Rp9516
(dp9517
bag69
(g203
g64
tp9518
Rp9519
(dp9520
bag2
(g233
g64
tp9521
Rp9522
(dp9523
bag69
(g55
g64
tp9524
Rp9525
(dp9526
bag2
(g1787
g64
tp9527
Rp9528
(dp9529
bag2
(g2049
g64
tp9530
Rp9531
(dp9532
bag2
(g2247
g64
tp9533
Rp9534
(dp9535
bag2
(g2580
g64
tp9536
Rp9537
(dp9538
bag2
(g3360
g64
tp9539
Rp9540
(dp9541
bag2
(g3507
g64
tp9542
Rp9543
(dp9544
bag2
(g3840
g64
tp9545
Rp9546
(dp9547
bag69
(g2115
g64
tp9548
Rp9549
(dp9550
ba(lp9551
g69
(g1853
g64
tp9552
Rp9553
(dp9554
batp9555
a((lp9556
g2
(g8715
g64
tp9557
Rp9558
(dp9559
bag2
(g8715
g64
tp9560
Rp9561
(dp9562
bag2
(g8274
g64
tp9563
Rp9564
(dp9565
bag2
(g8073
g64
tp9566
Rp9567
(dp9568
bag2
(g6996
g64
tp9569
Rp9570
(dp9571
bag2
(g6528
g64
tp9572
Rp9573
(dp9574
bag2
(g6249
g64
tp9575
Rp9576
(dp9577
bag2
(g5883
g64
tp9578
Rp9579
(dp9580
bag2
(g1325
g64
tp9581
Rp9582
(dp9583
bag2
(g1166
g64
tp9584
Rp9585
(dp9586
bag2
(g992
g64
tp9587
Rp9588
(dp9589
bag2
(g692
g64
tp9590
Rp9591
(dp9592
bag2
(g374
g64
tp9593
Rp9594
(dp9595
bag2
(g329
g64
tp9596
Rp9597
(dp9598
bag2
(g61
g64
tp9599
Rp9600
(dp9601
bag2
(g251
g64
tp9602
Rp9603
(dp9604
bag2
(g104
g64
tp9605
Rp9606
(dp9607
bag69
(g113
g64
tp9608
Rp9609
(dp9610
bag69
(g13
g64
tp9611
Rp9612
(dp9613
bag69
(g122
g64
tp9614
Rp9615
(dp9616
bag2
(g137
g64
tp9617
Rp9618
(dp9619
bag2
(g164
g64
tp9620
Rp9621
(dp9622
bag69
(g203
g64
tp9623
Rp9624
(dp9625
bag2
(g233
g64
tp9626
Rp9627
(dp9628
bag69
(g55
g64
tp9629
Rp9630
(dp9631
bag2
(g1787
g64
tp9632
Rp9633
(dp9634
bag2
(g2049
g64
tp9635
Rp9636
(dp9637
bag2
(g2247
g64
tp9638
Rp9639
(dp9640
bag2
(g2580
g64
tp9641
Rp9642
(dp9643
bag2
(g3360
g64
tp9644
Rp9645
(dp9646
bag2
(g3507
g64
tp9647
Rp9648
(dp9649
bag2
(g3840
g64
tp9650
Rp9651
(dp9652
bag69
(g2115
g64
tp9653
Rp9654
(dp9655
ba(lp9656
g69
(g1853
g64
tp9657
Rp9658
(dp9659
batp9660
a((lp9661
g2
(g5976
g64
tp9662
Rp9663
(dp9664
bag69
(g6342
g64
tp9665
Rp9666
(dp9667
bag2
(g8715
g64
tp9668
Rp9669
(dp9670
bag2
(g8274
g64
tp9671
Rp9672
(dp9673
bag2
(g8073
g64
tp9674
Rp9675
(dp9676
bag2
(g6996
g64
tp9677
Rp9678
(dp9679
bag2
(g6528
g64
tp9680
Rp9681
(dp9682
bag2
(g6249
g64
tp9683
Rp9684
(dp9685
bag2
(g5883
g64
tp9686
Rp9687
(dp9688
bag2
(g1325
g64
tp9689
Rp9690
(dp9691
bag2
(g1166
g64
tp9692
Rp9693
(dp9694
bag2
(g992
g64
tp9695
Rp9696
(dp9697
bag2
(g692
g64
tp9698
Rp9699
(dp9700
bag2
(g374
g64
tp9701
Rp9702
(dp9703
bag2
(g329
g64
tp9704
Rp9705
(dp9706
bag2
(g61
g64
tp9707
Rp9708
(dp9709
bag2
(g251
g64
tp9710
Rp9711
(dp9712
bag2
(g104
g64
tp9713
Rp9714
(dp9715
bag69
(g113
g64
tp9716
Rp9717
(dp9718
bag69
(g13
g64
tp9719
Rp9720
(dp9721
bag69
(g122
g64
tp9722
Rp9723
(dp9724
bag2
(g137
g64
tp9725
Rp9726
(dp9727
bag2
(g164
g64
tp9728
Rp9729
(dp9730
bag69
(g203
g64
tp9731
Rp9732
(dp9733
bag2
(g233
g64
tp9734
Rp9735
(dp9736
bag69
(g55
g64
tp9737
Rp9738
(dp9739
bag2
(g1787
g64
tp9740
Rp9741
(dp9742
bag2
(g2049
g64
tp9743
Rp9744
(dp9745
bag2
(g2247
g64
tp9746
Rp9747
(dp9748
bag2
(g2580
g64
tp9749
Rp9750
(dp9751
bag2
(g3360
g64
tp9752
Rp9753
(dp9754
bag2
(g3507
g64
tp9755
Rp9756
(dp9757
bag2
(g3840
g64
tp9758
Rp9759
(dp9760
bag69
(g2115
g64
tp9761
Rp9762
(dp9763
ba(lp9764
g69
(g1853
g64
tp9765
Rp9766
(dp9767
batp9768
a((lp9769
g2
(g6249
g64
tp9770
Rp9771
(dp9772
bag2
(g6342
g64
tp9773
Rp9774
(dp9775
bag2
(g5976
g64
tp9776
Rp9777
(dp9778
bag69
(g3
(g71
g4638
g4644
g4
(g5
(I-5
I56
tp9779
Rp9780
(dp9781
bg155
tp9782
Rp9783
(dp9784
btp9785
Rp9786
(dp9787
bg64
tp9788
Rp9789
(dp9790
bag2
(g8715
g64
tp9791
Rp9792
(dp9793
bag2
(g8274
g64
tp9794
Rp9795
(dp9796
bag2
(g8073
g64
tp9797
Rp9798
(dp9799
bag2
(g6996
g64
tp9800
Rp9801
(dp9802
bag2
(g6528
g64
tp9803
Rp9804
(dp9805
bag2
(g6249
g64
tp9806
Rp9807
(dp9808
bag2
(g5883
g64
tp9809
Rp9810
(dp9811
bag2
(g1325
g64
tp9812
Rp9813
(dp9814
bag2
(g1166
g64
tp9815
Rp9816
(dp9817
bag2
(g992
g64
tp9818
Rp9819
(dp9820
bag2
(g692
g64
tp9821
Rp9822
(dp9823
bag2
(g374
g64
tp9824
Rp9825
(dp9826
bag2
(g329
g64
tp9827
Rp9828
(dp9829
bag2
(g61
g64
tp9830
Rp9831
(dp9832
bag2
(g251
g64
tp9833
Rp9834
(dp9835
bag2
(g104
g64
tp9836
Rp9837
(dp9838
bag69
(g113
g64
tp9839
Rp9840
(dp9841
bag69
(g13
g64
tp9842
Rp9843
(dp9844
bag69
(g122
g64
tp9845
Rp9846
(dp9847
bag2
(g137
g64
tp9848
Rp9849
(dp9850
bag2
(g164
g64
tp9851
Rp9852
(dp9853
bag69
(g203
g64
tp9854
Rp9855
(dp9856
bag2
(g233
g64
tp9857
Rp9858
(dp9859
bag69
(g55
g64
tp9860
Rp9861
(dp9862
bag2
(g1787
g64
tp9863
Rp9864
(dp9865
bag2
(g2049
g64
tp9866
Rp9867
(dp9868
bag2
(g2247
g64
tp9869
Rp9870
(dp9871
bag2
(g2580
g64
tp9872
Rp9873
(dp9874
bag2
(g3360
g64
tp9875
Rp9876
(dp9877
bag2
(g3507
g64
tp9878
Rp9879
(dp9880
bag2
(g3840
g64
tp9881
Rp9882
(dp9883
bag69
(g2115
g64
tp9884
Rp9885
(dp9886
ba(lp9887
g69
(g1853
g64
tp9888
Rp9889
(dp9890
batp9891
a((lp9892
g69
(g9786
g64
tp9893
Rp9894
(dp9895
bag69
(g6342
g64
tp9896
Rp9897
(dp9898
bag2
(g8715
g64
tp9899
Rp9900
(dp9901
bag2
(g8274
g64
tp9902
Rp9903
(dp9904
bag2
(g8073
g64
tp9905
Rp9906
(dp9907
bag2
(g6996
g64
tp9908
Rp9909
(dp9910
bag2
(g6528
g64
tp9911
Rp9912
(dp9913
bag2
(g6249
g64
tp9914
Rp9915
(dp9916
bag2
(g5883
g64
tp9917
Rp9918
(dp9919
bag2
(g1325
g64
tp9920
Rp9921
(dp9922
bag2
(g1166
g64
tp9923
Rp9924
(dp9925
bag2
(g992
g64
tp9926
Rp9927
(dp9928
bag2
(g692
g64
tp9929
Rp9930
(dp9931
bag2
(g374
g64
tp9932
Rp9933
(dp9934
bag2
(g329
g64
tp9935
Rp9936
(dp9937
bag2
(g61
g64
tp9938
Rp9939
(dp9940
bag2
(g251
g64
tp9941
Rp9942
(dp9943
bag2
(g104
g64
tp9944
Rp9945
(dp9946
bag69
(g113
g64
tp9947
Rp9948
(dp9949
bag69
(g13
g64
tp9950
Rp9951
(dp9952
bag69
(g122
g64
tp9953
Rp9954
(dp9955
bag2
(g137
g64
tp9956
Rp9957
(dp9958
bag2
(g164
g64
tp9959
Rp9960
(dp9961
bag69
(g203
g64
tp9962
Rp9963
(dp9964
bag2
(g233
g64
tp9965
Rp9966
(dp9967
bag69
(g55
g64
tp9968
Rp9969
(dp9970
bag2
(g1787
g64
tp9971
Rp9972
(dp9973
bag2
(g2049
g64
tp9974
Rp9975
(dp9976
bag2
(g2247
g64
tp9977
Rp9978
(dp9979
bag2
(g2580
g64
tp9980
Rp9981
(dp9982
bag2
(g3360
g64
tp9983
Rp9984
(dp9985
bag2
(g3507
g64
tp9986
Rp9987
(dp9988
bag2
(g3840
g64
tp9989
Rp9990
(dp9991
bag69
(g2115
g64
tp9992
Rp9993
(dp9994
ba(lp9995
g69
(g1853
g64
tp9996
Rp9997
(dp9998
batp9999
a((lp10000
g2
(g9786
g64
tp10001
Rp10002
(dp10003
bag2
(g6342
g64
tp10004
Rp10005
(dp10006
bag2
(g8715
g64
tp10007
Rp10008
(dp10009
bag2
(g8274
g64
tp10010
Rp10011
(dp10012
bag2
(g8073
g64
tp10013
Rp10014
(dp10015
bag2
(g6996
g64
tp10016
Rp10017
(dp10018
bag2
(g6528
g64
tp10019
Rp10020
(dp10021
bag2
(g6249
g64
tp10022
Rp10023
(dp10024
bag2
(g5883
g64
tp10025
Rp10026
(dp10027
bag2
(g1325
g64
tp10028
Rp10029
(dp10030
bag2
(g1166
g64
tp10031
Rp10032
(dp10033
bag2
(g992
g64
tp10034
Rp10035
(dp10036
bag2
(g692
g64
tp10037
Rp10038
(dp10039
bag2
(g374
g64
tp10040
Rp10041
(dp10042
bag2
(g329
g64
tp10043
Rp10044
(dp10045
bag2
(g61
g64
tp10046
Rp10047
(dp10048
bag2
(g251
g64
tp10049
Rp10050
(dp10051
bag2
(g104
g64
tp10052
Rp10053
(dp10054
bag69
(g113
g64
tp10055
Rp10056
(dp10057
bag69
(g13
g64
tp10058
Rp10059
(dp10060
bag69
(g122
g64
tp10061
Rp10062
(dp10063
bag2
(g137
g64
tp10064
Rp10065
(dp10066
bag2
(g164
g64
tp10067
Rp10068
(dp10069
bag69
(g203
g64
tp10070
Rp10071
(dp10072
bag2
(g233
g64
tp10073
Rp10074
(dp10075
bag69
(g55
g64
tp10076
Rp10077
(dp10078
bag2
(g1787
g64
tp10079
Rp10080
(dp10081
bag2
(g2049
g64
tp10082
Rp10083
(dp10084
bag2
(g2247
g64
tp10085
Rp10086
(dp10087
bag2
(g2580
g64
tp10088
Rp10089
(dp10090
bag2
(g3360
g64
tp10091
Rp10092
(dp10093
bag2
(g3507
g64
tp10094
Rp10095
(dp10096
bag2
(g3840
g64
tp10097
Rp10098
(dp10099
bag69
(g2115
g64
tp10100
Rp10101
(dp10102
ba(lp10103
g69
(g1853
g64
tp10104
Rp10105
(dp10106
batp10107
a((lp10108
g69
(g6342
g64
tp10109
Rp10110
(dp10111
bag2
(g8715
g64
tp10112
Rp10113
(dp10114
bag2
(g8274
g64
tp10115
Rp10116
(dp10117
bag2
(g8073
g64
tp10118
Rp10119
(dp10120
bag2
(g6996
g64
tp10121
Rp10122
(dp10123
bag2
(g6528
g64
tp10124
Rp10125
(dp10126
bag2
(g6249
g64
tp10127
Rp10128
(dp10129
bag2
(g5883
g64
tp10130
Rp10131
(dp10132
bag2
(g1325
g64
tp10133
Rp10134
(dp10135
bag2
(g1166
g64
tp10136
Rp10137
(dp10138
bag2
(g992
g64
tp10139
Rp10140
(dp10141
bag2
(g692
g64
tp10142
Rp10143
(dp10144
bag2
(g374
g64
tp10145
Rp10146
(dp10147
bag2
(g329
g64
tp10148
Rp10149
(dp10150
bag2
(g61
g64
tp10151
Rp10152
(dp10153
bag2
(g251
g64
tp10154
Rp10155
(dp10156
bag2
(g104
g64
tp10157
Rp10158
(dp10159
bag69
(g113
g64
tp10160
Rp10161
(dp10162
bag69
(g13
g64
tp10163
Rp10164
(dp10165
bag69
(g122
g64
tp10166
Rp10167
(dp10168
bag2
(g137
g64
tp10169
Rp10170
(dp10171
bag2
(g164
g64
tp10172
Rp10173
(dp10174
bag69
(g203
g64
tp10175
Rp10176
(dp10177
bag2
(g233
g64
tp10178
Rp10179
(dp10180
bag69
(g55
g64
tp10181
Rp10182
(dp10183
bag2
(g1787
g64
tp10184
Rp10185
(dp10186
bag2
(g2049
g64
tp10187
Rp10188
(dp10189
bag2
(g2247
g64
tp10190
Rp10191
(dp10192
bag2
(g2580
g64
tp10193
Rp10194
(dp10195
bag2
(g3360
g64
tp10196
Rp10197
(dp10198
bag2
(g3507
g64
tp10199
Rp10200
(dp10201
bag2
(g3840
g64
tp10202
Rp10203
(dp10204
bag69
(g2115
g64
tp10205
Rp10206
(dp10207
ba(lp10208
g69
(g1853
g64
tp10209
Rp10210
(dp10211
batp10212
a((lp10213
g69
(g55
g64
tp10214
Rp10215
(dp10216
bag69
(g6342
g64
tp10217
Rp10218
(dp10219
bag2
(g8715
g64
tp10220
Rp10221
(dp10222
bag2
(g8274
g64
tp10223
Rp10224
(dp10225
bag2
(g8073
g64
tp10226
Rp10227
(dp10228
bag2
(g6996
g64
tp10229
Rp10230
(dp10231
bag2
(g6528
g64
tp10232
Rp10233
(dp10234
bag2
(g6249
g64
tp10235
Rp10236
(dp10237
bag2
(g5883
g64
tp10238
Rp10239
(dp10240
bag2
(g1325
g64
tp10241
Rp10242
(dp10243
bag2
(g1166
g64
tp10244
Rp10245
(dp10246
bag2
(g992
g64
tp10247
Rp10248
(dp10249
bag2
(g692
g64
tp10250
Rp10251
(dp10252
bag2
(g374
g64
tp10253
Rp10254
(dp10255
bag2
(g329
g64
tp10256
Rp10257
(dp10258
bag2
(g61
g64
tp10259
Rp10260
(dp10261
bag2
(g251
g64
tp10262
Rp10263
(dp10264
bag2
(g104
g64
tp10265
Rp10266
(dp10267
bag69
(g113
g64
tp10268
Rp10269
(dp10270
bag69
(g13
g64
tp10271
Rp10272
(dp10273
bag69
(g122
g64
tp10274
Rp10275
(dp10276
bag2
(g137
g64
tp10277
Rp10278
(dp10279
bag2
(g164
g64
tp10280
Rp10281
(dp10282
bag69
(g203
g64
tp10283
Rp10284
(dp10285
bag2
(g233
g64
tp10286
Rp10287
(dp10288
bag69
(g55
g64
tp10289
Rp10290
(dp10291
bag2
(g1787
g64
tp10292
Rp10293
(dp10294
bag2
(g2049
g64
tp10295
Rp10296
(dp10297
bag2
(g2247
g64
tp10298
Rp10299
(dp10300
bag2
(g2580
g64
tp10301
Rp10302
(dp10303
bag2
(g3360
g64
tp10304
Rp10305
(dp10306
bag2
(g3507
g64
tp10307
Rp10308
(dp10309
bag2
(g3840
g64
tp10310
Rp10311
(dp10312
bag69
(g2115
g64
tp10313
Rp10314
(dp10315
ba(lp10316
g69
(g1853
g64
tp10317
Rp10318
(dp10319
batp10320
a((lp10321
g2
(g5976
g64
tp10322
Rp10323
(dp10324
bag2
(g791
g64
tp10325
Rp10326
(dp10327
bag69
(g6342
g64
tp10328
Rp10329
(dp10330
bag2
(g8715
g64
tp10331
Rp10332
(dp10333
bag2
(g8274
g64
tp10334
Rp10335
(dp10336
bag2
(g8073
g64
tp10337
Rp10338
(dp10339
bag2
(g6996
g64
tp10340
Rp10341
(dp10342
bag2
(g6528
g64
tp10343
Rp10344
(dp10345
bag2
(g6249
g64
tp10346
Rp10347
(dp10348
bag2
(g5883
g64
tp10349
Rp10350
(dp10351
bag2
(g1325
g64
tp10352
Rp10353
(dp10354
bag2
(g1166
g64
tp10355
Rp10356
(dp10357
bag2
(g992
g64
tp10358
Rp10359
(dp10360
bag2
(g692
g64
tp10361
Rp10362
(dp10363
bag2
(g374
g64
tp10364
Rp10365
(dp10366
bag2
(g329
g64
tp10367
Rp10368
(dp10369
bag2
(g61
g64
tp10370
Rp10371
(dp10372
bag2
(g251
g64
tp10373
Rp10374
(dp10375
bag2
(g104
g64
tp10376
Rp10377
(dp10378
bag69
(g113
g64
tp10379
Rp10380
(dp10381
bag69
(g13
g64
tp10382
Rp10383
(dp10384
bag69
(g122
g64
tp10385
Rp10386
(dp10387
bag2
(g137
g64
tp10388
Rp10389
(dp10390
bag2
(g164
g64
tp10391
Rp10392
(dp10393
bag69
(g203
g64
tp10394
Rp10395
(dp10396
bag2
(g233
g64
tp10397
Rp10398
(dp10399
bag69
(g55
g64
tp10400
Rp10401
(dp10402
bag2
(g1787
g64
tp10403
Rp10404
(dp10405
bag2
(g2049
g64
tp10406
Rp10407
(dp10408
bag2
(g2247
g64
tp10409
Rp10410
(dp10411
bag2
(g2580
g64
tp10412
Rp10413
(dp10414
bag2
(g3360
g64
tp10415
Rp10416
(dp10417
bag2
(g3507
g64
tp10418
Rp10419
(dp10420
bag2
(g3840
g64
tp10421
Rp10422
(dp10423
bag69
(g2115
g64
tp10424
Rp10425
(dp10426
ba(lp10427
g69
(g1853
g64
tp10428
Rp10429
(dp10430
batp10431
a((lp10432
g2
(g6249
g64
tp10433
Rp10434
(dp10435
bag69
(g6342
g64
tp10436
Rp10437
(dp10438
bag2
(g8715
g64
tp10439
Rp10440
(dp10441
bag2
(g8274
g64
tp10442
Rp10443
(dp10444
bag2
(g8073
g64
tp10445
Rp10446
(dp10447
bag2
(g6996
g64
tp10448
Rp10449
(dp10450
bag2
(g6528
g64
tp10451
Rp10452
(dp10453
bag2
(g6249
g64
tp10454
Rp10455
(dp10456
bag2
(g5883
g64
tp10457
Rp10458
(dp10459
bag2
(g1325
g64
tp10460
Rp10461
(dp10462
bag2
(g1166
g64
tp10463
Rp10464
(dp10465
bag2
(g992
g64
tp10466
Rp10467
(dp10468
bag2
(g692
g64
tp10469
Rp10470
(dp10471
bag2
(g374
g64
tp10472
Rp10473
(dp10474
bag2
(g329
g64
tp10475
Rp10476
(dp10477
bag2
(g61
g64
tp10478
Rp10479
(dp10480
bag2
(g251
g64
tp10481
Rp10482
(dp10483
bag2
(g104
g64
tp10484
Rp10485
(dp10486
bag69
(g113
g64
tp10487
Rp10488
(dp10489
bag69
(g13
g64
tp10490
Rp10491
(dp10492
bag69
(g122
g64
tp10493
Rp10494
(dp10495
bag2
(g137
g64
tp10496
Rp10497
(dp10498
bag2
(g164
g64
tp10499
Rp10500
(dp10501
bag69
(g203
g64
tp10502
Rp10503
(dp10504
bag2
(g233
g64
tp10505
Rp10506
(dp10507
bag69
(g55
g64
tp10508
Rp10509
(dp10510
bag2
(g1787
g64
tp10511
Rp10512
(dp10513
bag2
(g2049
g64
tp10514
Rp10515
(dp10516
bag2
(g2247
g64
tp10517
Rp10518
(dp10519
bag2
(g2580
g64
tp10520
Rp10521
(dp10522
bag2
(g3360
g64
tp10523
Rp10524
(dp10525
bag2
(g3507
g64
tp10526
Rp10527
(dp10528
bag2
(g3840
g64
tp10529
Rp10530
(dp10531
bag69
(g2115
g64
tp10532
Rp10533
(dp10534
ba(lp10535
g69
(g1853
g64
tp10536
Rp10537
(dp10538
batp10539
a((lp10540
g2
(g8073
g64
tp10541
Rp10542
(dp10543
bag69
(g6342
g64
tp10544
Rp10545
(dp10546
bag69
(g6342
g64
tp10547
Rp10548
(dp10549
bag2
(g8715
g64
tp10550
Rp10551
(dp10552
bag2
(g8274
g64
tp10553
Rp10554
(dp10555
bag2
(g8073
g64
tp10556
Rp10557
(dp10558
bag2
(g6996
g64
tp10559
Rp10560
(dp10561
bag2
(g6528
g64
tp10562
Rp10563
(dp10564
bag2
(g6249
g64
tp10565
Rp10566
(dp10567
bag2
(g5883
g64
tp10568
Rp10569
(dp10570
bag2
(g1325
g64
tp10571
Rp10572
(dp10573
bag2
(g1166
g64
tp10574
Rp10575
(dp10576
bag2
(g992
g64
tp10577
Rp10578
(dp10579
bag2
(g692
g64
tp10580
Rp10581
(dp10582
bag2
(g374
g64
tp10583
Rp10584
(dp10585
bag2
(g329
g64
tp10586
Rp10587
(dp10588
bag2
(g61
g64
tp10589
Rp10590
(dp10591
bag2
(g251
g64
tp10592
Rp10593
(dp10594
bag2
(g104
g64
tp10595
Rp10596
(dp10597
bag69
(g113
g64
tp10598
Rp10599
(dp10600
bag69
(g13
g64
tp10601
Rp10602
(dp10603
bag69
(g122
g64
tp10604
Rp10605
(dp10606
bag2
(g137
g64
tp10607
Rp10608
(dp10609
bag2
(g164
g64
tp10610
Rp10611
(dp10612
bag69
(g203
g64
tp10613
Rp10614
(dp10615
bag2
(g233
g64
tp10616
Rp10617
(dp10618
bag69
(g55
g64
tp10619
Rp10620
(dp10621
bag2
(g1787
g64
tp10622
Rp10623
(dp10624
bag2
(g2049
g64
tp10625
Rp10626
(dp10627
bag2
(g2247
g64
tp10628
Rp10629
(dp10630
bag2
(g2580
g64
tp10631
Rp10632
(dp10633
bag2
(g3360
g64
tp10634
Rp10635
(dp10636
bag2
(g3507
g64
tp10637
Rp10638
(dp10639
bag2
(g3840
g64
tp10640
Rp10641
(dp10642
bag69
(g2115
g64
tp10643
Rp10644
(dp10645
ba(lp10646
g69
(g1853
g64
tp10647
Rp10648
(dp10649
batp10650
a((lp10651
g2
(g6249
g64
tp10652
Rp10653
(dp10654
bag69
(g6342
g64
tp10655
Rp10656
(dp10657
bag2
(g8715
g64
tp10658
Rp10659
(dp10660
bag2
(g8274
g64
tp10661
Rp10662
(dp10663
bag2
(g8073
g64
tp10664
Rp10665
(dp10666
bag2
(g6996
g64
tp10667
Rp10668
(dp10669
bag2
(g6528
g64
tp10670
Rp10671
(dp10672
bag2
(g6249
g64
tp10673
Rp10674
(dp10675
bag2
(g5883
g64
tp10676
Rp10677
(dp10678
bag2
(g1325
g64
tp10679
Rp10680
(dp10681
bag2
(g1166
g64
tp10682
Rp10683
(dp10684
bag2
(g992
g64
tp10685
Rp10686
(dp10687
bag2
(g692
g64
tp10688
Rp10689
(dp10690
bag2
(g374
g64
tp10691
Rp10692
(dp10693
bag2
(g329
g64
tp10694
Rp10695
(dp10696
bag2
(g61
g64
tp10697
Rp10698
(dp10699
bag2
(g251
g64
tp10700
Rp10701
(dp10702
bag2
(g104
g64
tp10703
Rp10704
(dp10705
bag69
(g113
g64
tp10706
Rp10707
(dp10708
bag69
(g13
g64
tp10709
Rp10710
(dp10711
bag69
(g122
g64
tp10712
Rp10713
(dp10714
bag2
(g137
g64
tp10715
Rp10716
(dp10717
bag2
(g164
g64
tp10718
Rp10719
(dp10720
bag69
(g203
g64
tp10721
Rp10722
(dp10723
bag2
(g233
g64
tp10724
Rp10725
(dp10726
bag69
(g55
g64
tp10727
Rp10728
(dp10729
bag2
(g1787
g64
tp10730
Rp10731
(dp10732
bag2
(g2049
g64
tp10733
Rp10734
(dp10735
bag2
(g2247
g64
tp10736
Rp10737
(dp10738
bag2
(g2580
g64
tp10739
Rp10740
(dp10741
bag2
(g3360
g64
tp10742
Rp10743
(dp10744
bag2
(g3507
g64
tp10745
Rp10746
(dp10747
bag2
(g3840
g64
tp10748
Rp10749
(dp10750
bag69
(g2115
g64
tp10751
Rp10752
(dp10753
ba(lp10754
g69
(g1853
g64
tp10755
Rp10756
(dp10757
batp10758
a((lp10759
g2
(g8073
g64
tp10760
Rp10761
(dp10762
bag69
(g6342
g64
tp10763
Rp10764
(dp10765
bag2
(g8715
g64
tp10766
Rp10767
(dp10768
bag2
(g8274
g64
tp10769
Rp10770
(dp10771
bag2
(g8073
g64
tp10772
Rp10773
(dp10774
bag2
(g6996
g64
tp10775
Rp10776
(dp10777
bag2
(g6528
g64
tp10778
Rp10779
(dp10780
bag2
(g6249
g64
tp10781
Rp10782
(dp10783
bag2
(g5883
g64
tp10784
Rp10785
(dp10786
bag2
(g1325
g64
tp10787
Rp10788
(dp10789
bag2
(g1166
g64
tp10790
Rp10791
(dp10792
bag2
(g992
g64
tp10793
Rp10794
(dp10795
bag2
(g692
g64
tp10796
Rp10797
(dp10798
bag2
(g374
g64
tp10799
Rp10800
(dp10801
bag2
(g329
g64
tp10802
Rp10803
(dp10804
bag2
(g61
g64
tp10805
Rp10806
(dp10807
bag2
(g251
g64
tp10808
Rp10809
(dp10810
bag2
(g104
g64
tp10811
Rp10812
(dp10813
bag69
(g113
g64
tp10814
Rp10815
(dp10816
bag69
(g13
g64
tp10817
Rp10818
(dp10819
bag69
(g122
g64
tp10820
Rp10821
(dp10822
bag2
(g137
g64
tp10823
Rp10824
(dp10825
bag2
(g164
g64
tp10826
Rp10827
(dp10828
bag69
(g203
g64
tp10829
Rp10830
(dp10831
bag2
(g233
g64
tp10832
Rp10833
(dp10834
bag69
(g55
g64
tp10835
Rp10836
(dp10837
bag2
(g1787
g64
tp10838
Rp10839
(dp10840
bag2
(g2049
g64
tp10841
Rp10842
(dp10843
bag2
(g2247
g64
tp10844
Rp10845
(dp10846
bag2
(g2580
g64
tp10847
Rp10848
(dp10849
bag2
(g3360
g64
tp10850
Rp10851
(dp10852
bag2
(g3507
g64
tp10853
Rp10854
(dp10855
bag2
(g3840
g64
tp10856
Rp10857
(dp10858
bag69
(g2115
g64
tp10859
Rp10860
(dp10861
ba(lp10862
g69
(g1853
g64
tp10863
Rp10864
(dp10865
batp10866
a((lp10867
g2
(g164
g64
tp10868
Rp10869
(dp10870
bag69
(g6342
g64
tp10871
Rp10872
(dp10873
bag2
(g8715
g64
tp10874
Rp10875
(dp10876
bag2
(g8274
g64
tp10877
Rp10878
(dp10879
bag2
(g8073
g64
tp10880
Rp10881
(dp10882
bag2
(g6996
g64
tp10883
Rp10884
(dp10885
bag2
(g6528
g64
tp10886
Rp10887
(dp10888
bag2
(g6249
g64
tp10889
Rp10890
(dp10891
bag2
(g5883
g64
tp10892
Rp10893
(dp10894
bag2
(g1325
g64
tp10895
Rp10896
(dp10897
bag2
(g1166
g64
tp10898
Rp10899
(dp10900
bag2
(g992
g64
tp10901
Rp10902
(dp10903
bag2
(g692
g64
tp10904
Rp10905
(dp10906
bag2
(g374
g64
tp10907
Rp10908
(dp10909
bag2
(g329
g64
tp10910
Rp10911
(dp10912
bag2
(g61
g64
tp10913
Rp10914
(dp10915
bag2
(g251
g64
tp10916
Rp10917
(dp10918
bag2
(g104
g64
tp10919
Rp10920
(dp10921
bag69
(g113
g64
tp10922
Rp10923
(dp10924
bag69
(g13
g64
tp10925
Rp10926
(dp10927
bag69
(g122
g64
tp10928
Rp10929
(dp10930
bag2
(g137
g64
tp10931
Rp10932
(dp10933
bag2
(g164
g64
tp10934
Rp10935
(dp10936
bag69
(g203
g64
tp10937
Rp10938
(dp10939
bag2
(g233
g64
tp10940
Rp10941
(dp10942
bag69
(g55
g64
tp10943
Rp10944
(dp10945
bag2
(g1787
g64
tp10946
Rp10947
(dp10948
bag2
(g2049
g64
tp10949
Rp10950
(dp10951
bag2
(g2247
g64
tp10952
Rp10953
(dp10954
bag2
(g2580
g64
tp10955
Rp10956
(dp10957
bag2
(g3360
g64
tp10958
Rp10959
(dp10960
bag2
(g3507
g64
tp10961
Rp10962
(dp10963
bag2
(g3840
g64
tp10964
Rp10965
(dp10966
bag69
(g2115
g64
tp10967
Rp10968
(dp10969
ba(lp10970
g69
(g1853
g64
tp10971
Rp10972
(dp10973
batp10974
a((lp10975
g2
(g5976
g64
tp10976
Rp10977
(dp10978
bag69
(g3
(g38
(I16
tp10979
Rp10980
(dp10981
bg4
(g1298
g43
tp10982
Rp10983
(dp10984
bg4
(g98
g155
tp10985
Rp10986
(dp10987
bg4
(g38
(I-24
tp10988
Rp10989
(dp10990
bg55
tp10991
Rp10992
(dp10993
btp10994
Rp10995
(dp10996
bg64
tp10997
Rp10998
(dp10999
bag69
(g6342
g64
tp11000
Rp11001
(dp11002
bag2
(g8715
g64
tp11003
Rp11004
(dp11005
bag2
(g8274
g64
tp11006
Rp11007
(dp11008
bag2
(g8073
g64
tp11009
Rp11010
(dp11011
bag2
(g6996
g64
tp11012
Rp11013
(dp11014
bag2
(g6528
g64
tp11015
Rp11016
(dp11017
bag2
(g6249
g64
tp11018
Rp11019
(dp11020
bag2
(g5883
g64
tp11021
Rp11022
(dp11023
bag2
(g1325
g64
tp11024
Rp11025
(dp11026
bag2
(g1166
g64
tp11027
Rp11028
(dp11029
bag2
(g992
g64
tp11030
Rp11031
(dp11032
bag2
(g692
g64
tp11033
Rp11034
(dp11035
bag2
(g374
g64
tp11036
Rp11037
(dp11038
bag2
(g329
g64
tp11039
Rp11040
(dp11041
bag2
(g61
g64
tp11042
Rp11043
(dp11044
bag2
(g251
g64
tp11045
Rp11046
(dp11047
bag2
(g104
g64
tp11048
Rp11049
(dp11050
bag69
(g113
g64
tp11051
Rp11052
(dp11053
bag69
(g13
g64
tp11054
Rp11055
(dp11056
bag69
(g122
g64
tp11057
Rp11058
(dp11059
bag2
(g137
g64
tp11060
Rp11061
(dp11062
bag2
(g164
g64
tp11063
Rp11064
(dp11065
bag69
(g203
g64
tp11066
Rp11067
(dp11068
bag2
(g233
g64
tp11069
Rp11070
(dp11071
bag69
(g55
g64
tp11072
Rp11073
(dp11074
bag2
(g1787
g64
tp11075
Rp11076
(dp11077
bag2
(g2049
g64
tp11078
Rp11079
(dp11080
bag2
(g2247
g64
tp11081
Rp11082
(dp11083
bag2
(g2580
g64
tp11084
Rp11085
(dp11086
bag2
(g3360
g64
tp11087
Rp11088
(dp11089
bag2
(g3507
g64
tp11090
Rp11091
(dp11092
bag2
(g3840
g64
tp11093
Rp11094
(dp11095
bag69
(g2115
g64
tp11096
Rp11097
(dp11098
ba(lp11099
g69
(g1853
g64
tp11100
Rp11101
(dp11102
batp11103
a((lp11104
g2
(g5976
g64
tp11105
Rp11106
(dp11107
bag69
(g6342
g64
tp11108
Rp11109
(dp11110
bag69
(g6342
g64
tp11111
Rp11112
(dp11113
bag2
(g8715
g64
tp11114
Rp11115
(dp11116
bag2
(g8274
g64
tp11117
Rp11118
(dp11119
bag2
(g8073
g64
tp11120
Rp11121
(dp11122
bag2
(g6996
g64
tp11123
Rp11124
(dp11125
bag2
(g6528
g64
tp11126
Rp11127
(dp11128
bag2
(g6249
g64
tp11129
Rp11130
(dp11131
bag2
(g5883
g64
tp11132
Rp11133
(dp11134
bag2
(g1325
g64
tp11135
Rp11136
(dp11137
bag2
(g1166
g64
tp11138
Rp11139
(dp11140
bag2
(g992
g64
tp11141
Rp11142
(dp11143
bag2
(g692
g64
tp11144
Rp11145
(dp11146
bag2
(g374
g64
tp11147
Rp11148
(dp11149
bag2
(g329
g64
tp11150
Rp11151
(dp11152
bag2
(g61
g64
tp11153
Rp11154
(dp11155
bag2
(g251
g64
tp11156
Rp11157
(dp11158
bag2
(g104
g64
tp11159
Rp11160
(dp11161
bag69
(g113
g64
tp11162
Rp11163
(dp11164
bag69
(g13
g64
tp11165
Rp11166
(dp11167
bag69
(g122
g64
tp11168
Rp11169
(dp11170
bag2
(g137
g64
tp11171
Rp11172
(dp11173
bag2
(g164
g64
tp11174
Rp11175
(dp11176
bag69
(g203
g64
tp11177
Rp11178
(dp11179
bag2
(g233
g64
tp11180
Rp11181
(dp11182
bag69
(g55
g64
tp11183
Rp11184
(dp11185
bag2
(g1787
g64
tp11186
Rp11187
(dp11188
bag2
(g2049
g64
tp11189
Rp11190
(dp11191
bag2
(g2247
g64
tp11192
Rp11193
(dp11194
bag2
(g2580
g64
tp11195
Rp11196
(dp11197
bag2
(g3360
g64
tp11198
Rp11199
(dp11200
bag2
(g3507
g64
tp11201
Rp11202
(dp11203
bag2
(g3840
g64
tp11204
Rp11205
(dp11206
bag69
(g2115
g64
tp11207
Rp11208
(dp11209
ba(lp11210
g69
(g1853
g64
tp11211
Rp11212
(dp11213
batp11214
a((lp11215
g2
(g5976
g64
tp11216
Rp11217
(dp11218
bag69
(g6342
g64
tp11219
Rp11220
(dp11221
bag2
(g8715
g64
tp11222
Rp11223
(dp11224
bag2
(g8274
g64
tp11225
Rp11226
(dp11227
bag2
(g8073
g64
tp11228
Rp11229
(dp11230
bag2
(g6996
g64
tp11231
Rp11232
(dp11233
bag2
(g6528
g64
tp11234
Rp11235
(dp11236
bag2
(g6249
g64
tp11237
Rp11238
(dp11239
bag2
(g5883
g64
tp11240
Rp11241
(dp11242
bag2
(g1325
g64
tp11243
Rp11244
(dp11245
bag2
(g1166
g64
tp11246
Rp11247
(dp11248
bag2
(g992
g64
tp11249
Rp11250
(dp11251
bag2
(g692
g64
tp11252
Rp11253
(dp11254
bag2
(g374
g64
tp11255
Rp11256
(dp11257
bag2
(g329
g64
tp11258
Rp11259
(dp11260
bag2
(g61
g64
tp11261
Rp11262
(dp11263
bag2
(g251
g64
tp11264
Rp11265
(dp11266
bag2
(g104
g64
tp11267
Rp11268
(dp11269
bag69
(g113
g64
tp11270
Rp11271
(dp11272
bag69
(g13
g64
tp11273
Rp11274
(dp11275
bag69
(g122
g64
tp11276
Rp11277
(dp11278
bag2
(g137
g64
tp11279
Rp11280
(dp11281
bag2
(g164
g64
tp11282
Rp11283
(dp11284
bag69
(g203
g64
tp11285
Rp11286
(dp11287
bag2
(g233
g64
tp11288
Rp11289
(dp11290
bag69
(g55
g64
tp11291
Rp11292
(dp11293
bag2
(g1787
g64
tp11294
Rp11295
(dp11296
bag2
(g2049
g64
tp11297
Rp11298
(dp11299
bag2
(g2247
g64
tp11300
Rp11301
(dp11302
bag2
(g2580
g64
tp11303
Rp11304
(dp11305
bag2
(g3360
g64
tp11306
Rp11307
(dp11308
bag2
(g3507
g64
tp11309
Rp11310
(dp11311
bag2
(g3840
g64
tp11312
Rp11313
(dp11314
bag69
(g2115
g64
tp11315
Rp11316
(dp11317
ba(lp11318
g69
(g1853
g64
tp11319
Rp11320
(dp11321
batp11322
a((lp11323
g69
(g55
g64
tp11324
Rp11325
(dp11326
bag2
(g5976
g64
tp11327
Rp11328
(dp11329
bag69
(g6342
g64
tp11330
Rp11331
(dp11332
bag2
(g8715
g64
tp11333
Rp11334
(dp11335
bag2
(g8274
g64
tp11336
Rp11337
(dp11338
bag2
(g8073
g64
tp11339
Rp11340
(dp11341
bag2
(g6996
g64
tp11342
Rp11343
(dp11344
bag2
(g6528
g64
tp11345
Rp11346
(dp11347
bag2
(g6249
g64
tp11348
Rp11349
(dp11350
bag2
(g5883
g64
tp11351
Rp11352
(dp11353
bag2
(g1325
g64
tp11354
Rp11355
(dp11356
bag2
(g1166
g64
tp11357
Rp11358
(dp11359
bag2
(g992
g64
tp11360
Rp11361
(dp11362
bag2
(g692
g64
tp11363
Rp11364
(dp11365
bag2
(g374
g64
tp11366
Rp11367
(dp11368
bag2
(g329
g64
tp11369
Rp11370
(dp11371
bag2
(g61
g64
tp11372
Rp11373
(dp11374
bag2
(g251
g64
tp11375
Rp11376
(dp11377
bag2
(g104
g64
tp11378
Rp11379
(dp11380
bag69
(g113
g64
tp11381
Rp11382
(dp11383
bag69
(g13
g64
tp11384
Rp11385
(dp11386
bag69
(g122
g64
tp11387
Rp11388
(dp11389
bag2
(g137
g64
tp11390
Rp11391
(dp11392
bag2
(g164
g64
tp11393
Rp11394
(dp11395
bag69
(g203
g64
tp11396
Rp11397
(dp11398
bag2
(g233
g64
tp11399
Rp11400
(dp11401
bag69
(g55
g64
tp11402
Rp11403
(dp11404
bag2
(g1787
g64
tp11405
Rp11406
(dp11407
bag2
(g2049
g64
tp11408
Rp11409
(dp11410
bag2
(g2247
g64
tp11411
Rp11412
(dp11413
bag2
(g2580
g64
tp11414
Rp11415
(dp11416
bag2
(g3360
g64
tp11417
Rp11418
(dp11419
bag2
(g3507
g64
tp11420
Rp11421
(dp11422
bag2
(g3840
g64
tp11423
Rp11424
(dp11425
bag69
(g2115
g64
tp11426
Rp11427
(dp11428
ba(lp11429
g69
(g1853
g64
tp11430
Rp11431
(dp11432
batp11433
a((lp11434
g2
(g3
(g4
(g5
(I63
I1408
tp11435
Rp11436
(dp11437
bg9
(g13
g38
(I11
tp11438
Rp11439
(dp11440
btp11441
Rp11442
(dp11443
btp11444
Rp11445
(dp11446
bg95
g1784
g101
g5880
g4
(g5
(I35
I576
tp11447
Rp11448
(dp11449
bg9
(g13
g38
(I9
tp11450
Rp11451
(dp11452
btp11453
Rp11454
(dp11455
btp11456
Rp11457
(dp11458
btp11459
Rp11460
(dp11461
bg64
tp11462
Rp11463
(dp11464
bag2
(g1853
g64
tp11465
Rp11466
(dp11467
bag69
(g2115
g64
tp11468
Rp11469
(dp11470
bag2
(g3840
g64
tp11471
Rp11472
(dp11473
bag2
(g3507
g64
tp11474
Rp11475
(dp11476
bag2
(g3360
g64
tp11477
Rp11478
(dp11479
bag2
(g2580
g64
tp11480
Rp11481
(dp11482
bag2
(g2247
g64
tp11483
Rp11484
(dp11485
bag2
(g2049
g64
tp11486
Rp11487
(dp11488
bag2
(g1787
g64
tp11489
Rp11490
(dp11491
bag69
(g55
g64
tp11492
Rp11493
(dp11494
bag2
(g233
g64
tp11495
Rp11496
(dp11497
bag69
(g203
g64
tp11498
Rp11499
(dp11500
bag2
(g164
g64
tp11501
Rp11502
(dp11503
bag2
(g137
g64
tp11504
Rp11505
(dp11506
bag69
(g122
g64
tp11507
Rp11508
(dp11509
bag69
(g13
g64
tp11510
Rp11511
(dp11512
bag69
(g113
g64
tp11513
Rp11514
(dp11515
bag2
(g104
g64
tp11516
Rp11517
(dp11518
bag2
(g251
g64
tp11519
Rp11520
(dp11521
bag2
(g61
g64
tp11522
Rp11523
(dp11524
bag2
(g329
g64
tp11525
Rp11526
(dp11527
bag2
(g374
g64
tp11528
Rp11529
(dp11530
bag2
(g692
g64
tp11531
Rp11532
(dp11533
bag2
(g992
g64
tp11534
Rp11535
(dp11536
bag2
(g1166
g64
tp11537
Rp11538
(dp11539
bag2
(g1325
g64
tp11540
Rp11541
(dp11542
bag2
(g5883
g64
tp11543
Rp11544
(dp11545
bag2
(g6249
g64
tp11546
Rp11547
(dp11548
bag2
(g6528
g64
tp11549
Rp11550
(dp11551
bag2
(g6996
g64
tp11552
Rp11553
(dp11554
bag2
(g8073
g64
tp11555
Rp11556
(dp11557
bag2
(g8274
g64
tp11558
Rp11559
(dp11560
bag2
(g8715
g64
tp11561
Rp11562
(dp11563
bag69
(g6342
g64
tp11564
Rp11565
(dp11566
ba(lp11567
g69
(g5976
g64
tp11568
Rp11569
(dp11570
batp11571
a((lp11572
g2
(g3
(g5973
g689
g101
g1850
g4
(g5
(I-35
I1152
tp11573
Rp11574
(dp11575
bg11454
tp11576
Rp11577
(dp11578
bg4
(g5
(I-63
I2816
tp11579
Rp11580
(dp11581
bg11442
tp11582
Rp11583
(dp11584
btp11585
Rp11586
(dp11587
bg64
tp11588
Rp11589
(dp11590
bag1858
(g13
g64
tp11591
Rp11592
(dp11593
bag2
(g1853
g64
tp11594
Rp11595
(dp11596
bag69
(g2115
g64
tp11597
Rp11598
(dp11599
bag2
(g3840
g64
tp11600
Rp11601
(dp11602
bag2
(g3507
g64
tp11603
Rp11604
(dp11605
bag2
(g3360
g64
tp11606
Rp11607
(dp11608
bag2
(g2580
g64
tp11609
Rp11610
(dp11611
bag2
(g2247
g64
tp11612
Rp11613
(dp11614
bag2
(g2049
g64
tp11615
Rp11616
(dp11617
bag2
(g1787
g64
tp11618
Rp11619
(dp11620
bag69
(g55
g64
tp11621
Rp11622
(dp11623
bag2
(g233
g64
tp11624
Rp11625
(dp11626
bag69
(g203
g64
tp11627
Rp11628
(dp11629
bag2
(g164
g64
tp11630
Rp11631
(dp11632
bag2
(g137
g64
tp11633
Rp11634
(dp11635
bag69
(g122
g64
tp11636
Rp11637
(dp11638
bag69
(g13
g64
tp11639
Rp11640
(dp11641
bag69
(g113
g64
tp11642
Rp11643
(dp11644
bag2
(g104
g64
tp11645
Rp11646
(dp11647
bag2
(g251
g64
tp11648
Rp11649
(dp11650
bag2
(g61
g64
tp11651
Rp11652
(dp11653
bag2
(g329
g64
tp11654
Rp11655
(dp11656
bag2
(g374
g64
tp11657
Rp11658
(dp11659
bag2
(g692
g64
tp11660
Rp11661
(dp11662
bag2
(g992
g64
tp11663
Rp11664
(dp11665
bag2
(g1166
g64
tp11666
Rp11667
(dp11668
bag2
(g1325
g64
tp11669
Rp11670
(dp11671
bag2
(g5883
g64
tp11672
Rp11673
(dp11674
bag2
(g6249
g64
tp11675
Rp11676
(dp11677
bag2
(g6528
g64
tp11678
Rp11679
(dp11680
bag2
(g6996
g64
tp11681
Rp11682
(dp11683
bag2
(g8073
g64
tp11684
Rp11685
(dp11686
bag2
(g8274
g64
tp11687
Rp11688
(dp11689
bag2
(g8715
g64
tp11690
Rp11691
(dp11692
bag69
(g6342
g64
tp11693
Rp11694
(dp11695
ba(lp11696
g69
(g5976
g64
tp11697
Rp11698
(dp11699
batp11700
a((lp11701
g2
(g3
(g4
(g5
(I35
I1152
tp11702
Rp11703
(dp11704
bg11454
tp11705
Rp11706
(dp11707
bg6069
g1917
g1923
g4
(g5
(I63
I2816
tp11708
Rp11709
(dp11710
bg11442
tp11711
Rp11712
(dp11713
bg13
tp11714
Rp11715
(dp11716
bg64
tp11717
Rp11718
(dp11719
bag1858
(g13
g64
tp11720
Rp11721
(dp11722
bag2
(g1853
g64
tp11723
Rp11724
(dp11725
bag69
(g2115
g64
tp11726
Rp11727
(dp11728
bag2
(g3840
g64
tp11729
Rp11730
(dp11731
bag2
(g3507
g64
tp11732
Rp11733
(dp11734
bag2
(g3360
g64
tp11735
Rp11736
(dp11737
bag2
(g2580
g64
tp11738
Rp11739
(dp11740
bag2
(g2247
g64
tp11741
Rp11742
(dp11743
bag2
(g2049
g64
tp11744
Rp11745
(dp11746
bag2
(g1787
g64
tp11747
Rp11748
(dp11749
bag69
(g55
g64
tp11750
Rp11751
(dp11752
bag2
(g233
g64
tp11753
Rp11754
(dp11755
bag69
(g203
g64
tp11756
Rp11757
(dp11758
bag2
(g164
g64
tp11759
Rp11760
(dp11761
bag2
(g137
g64
tp11762
Rp11763
(dp11764
bag69
(g122
g64
tp11765
Rp11766
(dp11767
bag69
(g13
g64
tp11768
Rp11769
(dp11770
bag69
(g113
g64
tp11771
Rp11772
(dp11773
bag2
(g104
g64
tp11774
Rp11775
(dp11776
bag2
(g251
g64
tp11777
Rp11778
(dp11779
bag2
(g61
g64
tp11780
Rp11781
(dp11782
bag2
(g329
g64
tp11783
Rp11784
(dp11785
bag2
(g374
g64
tp11786
Rp11787
(dp11788
bag2
(g692
g64
tp11789
Rp11790
(dp11791
bag2
(g992
g64
tp11792
Rp11793
(dp11794
bag2
(g1166
g64
tp11795
Rp11796
(dp11797
bag2
(g1325
g64
tp11798
Rp11799
(dp11800
bag2
(g5883
g64
tp11801
Rp11802
(dp11803
bag2
(g6249
g64
tp11804
Rp11805
(dp11806
bag2
(g6528
g64
tp11807
Rp11808
(dp11809
bag2
(g6996
g64
tp11810
Rp11811
(dp11812
bag2
(g8073
g64
tp11813
Rp11814
(dp11815
bag2
(g8274
g64
tp11816
Rp11817
(dp11818
bag2
(g8715
g64
tp11819
Rp11820
(dp11821
bag69
(g6342
g64
tp11822
Rp11823
(dp11824
ba(lp11825
g69
(g5976
g64
tp11826
Rp11827
(dp11828
batp11829
a((lp11830
g2
(g11460
g64
tp11831
Rp11832
(dp11833
bag2
(g1853
g64
tp11834
Rp11835
(dp11836
bag69
(g2115
g64
tp11837
Rp11838
(dp11839
bag2
(g3840
g64
tp11840
Rp11841
(dp11842
bag2
(g3507
g64
tp11843
Rp11844
(dp11845
bag2
(g3360
g64
tp11846
Rp11847
(dp11848
bag2
(g2580
g64
tp11849
Rp11850
(dp11851
bag2
(g2247
g64
tp11852
Rp11853
(dp11854
bag2
(g2049
g64
tp11855
Rp11856
(dp11857
bag2
(g1787
g64
tp11858
Rp11859
(dp11860
bag69
(g55
g64
tp11861
Rp11862
(dp11863
bag2
(g233
g64
tp11864
Rp11865
(dp11866
bag69
(g203
g64
tp11867
Rp11868
(dp11869
bag2
(g164
g64
tp11870
Rp11871
(dp11872
bag2
(g137
g64
tp11873
Rp11874
(dp11875
bag69
(g122
g64
tp11876
Rp11877
(dp11878
bag69
(g13
g64
tp11879
Rp11880
(dp11881
bag69
(g113
g64
tp11882
Rp11883
(dp11884
bag2
(g104
g64
tp11885
Rp11886
(dp11887
bag2
(g251
g64
tp11888
Rp11889
(dp11890
bag2
(g61
g64
tp11891
Rp11892
(dp11893
bag2
(g329
g64
tp11894
Rp11895
(dp11896
bag2
(g374
g64
tp11897
Rp11898
(dp11899
bag2
(g692
g64
tp11900
Rp11901
(dp11902
bag2
(g992
g64
tp11903
Rp11904
(dp11905
bag2
(g1166
g64
tp11906
Rp11907
(dp11908
bag2
(g1325
g64
tp11909
Rp11910
(dp11911
bag2
(g5883
g64
tp11912
Rp11913
(dp11914
bag2
(g6249
g64
tp11915
Rp11916
(dp11917
bag2
(g6528
g64
tp11918
Rp11919
(dp11920
bag2
(g6996
g64
tp11921
Rp11922
(dp11923
bag2
(g8073
g64
tp11924
Rp11925
(dp11926
bag2
(g8274
g64
tp11927
Rp11928
(dp11929
bag2
(g8715
g64
tp11930
Rp11931
(dp11932
bag69
(g6342
g64
tp11933
Rp11934
(dp11935
ba(lp11936
g69
(g5976
g64
tp11937
Rp11938
(dp11939
batp11940
a((lp11941
g2
(g3
(g98
g2046
g248
g4
(g11574
g191
tp11942
Rp11943
(dp11944
bg6246
g4
(g11580
g1301
tp11945
Rp11946
(dp11947
btp11948
Rp11949
(dp11950
bg64
tp11951
Rp11952
(dp11953
bag2
(g11460
g64
tp11954
Rp11955
(dp11956
bag2
(g1853
g64
tp11957
Rp11958
(dp11959
bag69
(g2115
g64
tp11960
Rp11961
(dp11962
bag2
(g3840
g64
tp11963
Rp11964
(dp11965
bag2
(g3507
g64
tp11966
Rp11967
(dp11968
bag2
(g3360
g64
tp11969
Rp11970
(dp11971
bag2
(g2580
g64
tp11972
Rp11973
(dp11974
bag2
(g2247
g64
tp11975
Rp11976
(dp11977
bag2
(g2049
g64
tp11978
Rp11979
(dp11980
bag2
(g1787
g64
tp11981
Rp11982
(dp11983
bag69
(g55
g64
tp11984
Rp11985
(dp11986
bag2
(g233
g64
tp11987
Rp11988
(dp11989
bag69
(g203
g64
tp11990
Rp11991
(dp11992
bag2
(g164
g64
tp11993
Rp11994
(dp11995
bag2
(g137
g64
tp11996
Rp11997
(dp11998
bag69
(g122
g64
tp11999
Rp12000
(dp12001
bag69
(g13
g64
tp12002
Rp12003
(dp12004
bag69
(g113
g64
tp12005
Rp12006
(dp12007
bag2
(g104
g64
tp12008
Rp12009
(dp12010
bag2
(g251
g64
tp12011
Rp12012
(dp12013
bag2
(g61
g64
tp12014
Rp12015
(dp12016
bag2
(g329
g64
tp12017
Rp12018
(dp12019
bag2
(g374
g64
tp12020
Rp12021
(dp12022
bag2
(g692
g64
tp12023
Rp12024
(dp12025
bag2
(g992
g64
tp12026
Rp12027
(dp12028
bag2
(g1166
g64
tp12029
Rp12030
(dp12031
bag2
(g1325
g64
tp12032
Rp12033
(dp12034
bag2
(g5883
g64
tp12035
Rp12036
(dp12037
bag2
(g6249
g64
tp12038
Rp12039
(dp12040
bag2
(g6528
g64
tp12041
Rp12042
(dp12043
bag2
(g6996
g64
tp12044
Rp12045
(dp12046
bag2
(g8073
g64
tp12047
Rp12048
(dp12049
bag2
(g8274
g64
tp12050
Rp12051
(dp12052
bag2
(g8715
g64
tp12053
Rp12054
(dp12055
bag69
(g6342
g64
tp12056
Rp12057
(dp12058
ba(lp12059
g69
(g5976
g64
tp12060
Rp12061
(dp12062
batp12063
a((lp12064
g2
(g3
(g71
g77
g2112
g6339
g4
(g11703
g191
tp12065
Rp12066
(dp12067
bg4
(g11709
g1301
tp12068
Rp12069
(dp12070
btp12071
Rp12072
(dp12073
bg64
tp12074
Rp12075
(dp12076
bag2
(g11460
g64
tp12077
Rp12078
(dp12079
bag2
(g1853
g64
tp12080
Rp12081
(dp12082
bag69
(g2115
g64
tp12083
Rp12084
(dp12085
bag2
(g3840
g64
tp12086
Rp12087
(dp12088
bag2
(g3507
g64
tp12089
Rp12090
(dp12091
bag2
(g3360
g64
tp12092
Rp12093
(dp12094
bag2
(g2580
g64
tp12095
Rp12096
(dp12097
bag2
(g2247
g64
tp12098
Rp12099
(dp12100
bag2
(g2049
g64
tp12101
Rp12102
(dp12103
bag2
(g1787
g64
tp12104
Rp12105
(dp12106
bag69
(g55
g64
tp12107
Rp12108
(dp12109
bag2
(g233
g64
tp12110
Rp12111
(dp12112
bag69
(g203
g64
tp12113
Rp12114
(dp12115
bag2
(g164
g64
tp12116
Rp12117
(dp12118
bag2
(g137
g64
tp12119
Rp12120
(dp12121
bag69
(g122
g64
tp12122
Rp12123
(dp12124
bag69
(g13
g64
tp12125
Rp12126
(dp12127
bag69
(g113
g64
tp12128
Rp12129
(dp12130
bag2
(g104
g64
tp12131
Rp12132
(dp12133
bag2
(g251
g64
tp12134
Rp12135
(dp12136
bag2
(g61
g64
tp12137
Rp12138
(dp12139
bag2
(g329
g64
tp12140
Rp12141
(dp12142
bag2
(g374
g64
tp12143
Rp12144
(dp12145
bag2
(g692
g64
tp12146
Rp12147
(dp12148
bag2
(g992
g64
tp12149
Rp12150
(dp12151
bag2
(g1166
g64
tp12152
Rp12153
(dp12154
bag2
(g1325
g64
tp12155
Rp12156
(dp12157
bag2
(g5883
g64
tp12158
Rp12159
(dp12160
bag2
(g6249
g64
tp12161
Rp12162
(dp12163
bag2
(g6528
g64
tp12164
Rp12165
(dp12166
bag2
(g6996
g64
tp12167
Rp12168
(dp12169
bag2
(g8073
g64
tp12170
Rp12171
(dp12172
bag2
(g8274
g64
tp12173
Rp12174
(dp12175
bag2
(g8715
g64
tp12176
Rp12177
(dp12178
bag69
(g6342
g64
tp12179
Rp12180
(dp12181
ba(lp12182
g69
(g5976
g64
tp12183
Rp12184
(dp12185
batp12186
a((lp12187
g69
(g55
g64
tp12188
Rp12189
(dp12190
bag2
(g11460
g64
tp12191
Rp12192
(dp12193
bag2
(g1853
g64
tp12194
Rp12195
(dp12196
bag69
(g2115
g64
tp12197
Rp12198
(dp12199
bag2
(g3840
g64
tp12200
Rp12201
(dp12202
bag2
(g3507
g64
tp12203
Rp12204
(dp12205
bag2
(g3360
g64
tp12206
Rp12207
(dp12208
bag2
(g2580
g64
tp12209
Rp12210
(dp12211
bag2
(g2247
g64
tp12212
Rp12213
(dp12214
bag2
(g2049
g64
tp12215
Rp12216
(dp12217
bag2
(g1787
g64
tp12218
Rp12219
(dp12220
bag69
(g55
g64
tp12221
Rp12222
(dp12223
bag2
(g233
g64
tp12224
Rp12225
(dp12226
bag69
(g203
g64
tp12227
Rp12228
(dp12229
bag2
(g164
g64
tp12230
Rp12231
(dp12232
bag2
(g137
g64
tp12233
Rp12234
(dp12235
bag69
(g122
g64
tp12236
Rp12237
(dp12238
bag69
(g13
g64
tp12239
Rp12240
(dp12241
bag69
(g113
g64
tp12242
Rp12243
(dp12244
bag2
(g104
g64
tp12245
Rp12246
(dp12247
bag2
(g251
g64
tp12248
Rp12249
(dp12250
bag2
(g61
g64
tp12251
Rp12252
(dp12253
bag2
(g329
g64
tp12254
Rp12255
(dp12256
bag2
(g374
g64
tp12257
Rp12258
(dp12259
bag2
(g692
g64
tp12260
Rp12261
(dp12262
bag2
(g992
g64
tp12263
Rp12264
(dp12265
bag2
(g1166
g64
tp12266
Rp12267
(dp12268
bag2
(g1325
g64
tp12269
Rp12270
(dp12271
bag2
(g5883
g64
tp12272
Rp12273
(dp12274
bag2
(g6249
g64
tp12275
Rp12276
(dp12277
bag2
(g6528
g64
tp12278
Rp12279
(dp12280
bag2
(g6996
g64
tp12281
Rp12282
(dp12283
bag2
(g8073
g64
tp12284
Rp12285
(dp12286
bag2
(g8274
g64
tp12287
Rp12288
(dp12289
bag2
(g8715
g64
tp12290
Rp12291
(dp12292
bag69
(g6342
g64
tp12293
Rp12294
(dp12295
ba(lp12296
g69
(g5976
g64
tp12297
Rp12298
(dp12299
batp12300
a((lp12301
g2
(g3
(g2241
g4
(g5
(I931
I25344
tp12302
Rp12303
(dp12304
bg1301
tp12305
Rp12306
(dp12307
bg6525
g4
(g5
(I125
I2688
tp12308
Rp12309
(dp12310
bg191
tp12311
Rp12312
(dp12313
bg4
(g11580
g3810
tp12314
Rp12315
(dp12316
bg58
tp12317
Rp12318
(dp12319
bg64
tp12320
Rp12321
(dp12322
bag69
(g12072
g64
tp12323
Rp12324
(dp12325
bag2
(g11460
g64
tp12326
Rp12327
(dp12328
bag2
(g1853
g64
tp12329
Rp12330
(dp12331
bag69
(g2115
g64
tp12332
Rp12333
(dp12334
bag2
(g3840
g64
tp12335
Rp12336
(dp12337
bag2
(g3507
g64
tp12338
Rp12339
(dp12340
bag2
(g3360
g64
tp12341
Rp12342
(dp12343
bag2
(g2580
g64
tp12344
Rp12345
(dp12346
bag2
(g2247
g64
tp12347
Rp12348
(dp12349
bag2
(g2049
g64
tp12350
Rp12351
(dp12352
bag2
(g1787
g64
tp12353
Rp12354
(dp12355
bag69
(g55
g64
tp12356
Rp12357
(dp12358
bag2
(g233
g64
tp12359
Rp12360
(dp12361
bag69
(g203
g64
tp12362
Rp12363
(dp12364
bag2
(g164
g64
tp12365
Rp12366
(dp12367
bag2
(g137
g64
tp12368
Rp12369
(dp12370
bag69
(g122
g64
tp12371
Rp12372
(dp12373
bag69
(g13
g64
tp12374
Rp12375
(dp12376
bag69
(g113
g64
tp12377
Rp12378
(dp12379
bag2
(g104
g64
tp12380
Rp12381
(dp12382
bag2
(g251
g64
tp12383
Rp12384
(dp12385
bag2
(g61
g64
tp12386
Rp12387
(dp12388
bag2
(g329
g64
tp12389
Rp12390
(dp12391
bag2
(g374
g64
tp12392
Rp12393
(dp12394
bag2
(g692
g64
tp12395
Rp12396
(dp12397
bag2
(g992
g64
tp12398
Rp12399
(dp12400
bag2
(g1166
g64
tp12401
Rp12402
(dp12403
bag2
(g1325
g64
tp12404
Rp12405
(dp12406
bag2
(g5883
g64
tp12407
Rp12408
(dp12409
bag2
(g6249
g64
tp12410
Rp12411
(dp12412
bag2
(g6528
g64
tp12413
Rp12414
(dp12415
bag2
(g6996
g64
tp12416
Rp12417
(dp12418
bag2
(g8073
g64
tp12419
Rp12420
(dp12421
bag2
(g8274
g64
tp12422
Rp12423
(dp12424
bag2
(g8715
g64
tp12425
Rp12426
(dp12427
bag69
(g6342
g64
tp12428
Rp12429
(dp12430
ba(lp12431
g69
(g5976
g64
tp12432
Rp12433
(dp12434
batp12435
a((lp12436
g2
(g11949
g64
tp12437
Rp12438
(dp12439
bag2
(g11460
g64
tp12440
Rp12441
(dp12442
bag2
(g1853
g64
tp12443
Rp12444
(dp12445
bag69
(g2115
g64
tp12446
Rp12447
(dp12448
bag2
(g3840
g64
tp12449
Rp12450
(dp12451
bag2
(g3507
g64
tp12452
Rp12453
(dp12454
bag2
(g3360
g64
tp12455
Rp12456
(dp12457
bag2
(g2580
g64
tp12458
Rp12459
(dp12460
bag2
(g2247
g64
tp12461
Rp12462
(dp12463
bag2
(g2049
g64
tp12464
Rp12465
(dp12466
bag2
(g1787
g64
tp12467
Rp12468
(dp12469
bag69
(g55
g64
tp12470
Rp12471
(dp12472
bag2
(g233
g64
tp12473
Rp12474
(dp12475
bag69
(g203
g64
tp12476
Rp12477
(dp12478
bag2
(g164
g64
tp12479
Rp12480
(dp12481
bag2
(g137
g64
tp12482
Rp12483
(dp12484
bag69
(g122
g64
tp12485
Rp12486
(dp12487
bag69
(g13
g64
tp12488
Rp12489
(dp12490
bag69
(g113
g64
tp12491
Rp12492
(dp12493
bag2
(g104
g64
tp12494
Rp12495
(dp12496
bag2
(g251
g64
tp12497
Rp12498
(dp12499
bag2
(g61
g64
tp12500
Rp12501
(dp12502
bag2
(g329
g64
tp12503
Rp12504
(dp12505
bag2
(g374
g64
tp12506
Rp12507
(dp12508
bag2
(g692
g64
tp12509
Rp12510
(dp12511
bag2
(g992
g64
tp12512
Rp12513
(dp12514
bag2
(g1166
g64
tp12515
Rp12516
(dp12517
bag2
(g1325
g64
tp12518
Rp12519
(dp12520
bag2
(g5883
g64
tp12521
Rp12522
(dp12523
bag2
(g6249
g64
tp12524
Rp12525
(dp12526
bag2
(g6528
g64
tp12527
Rp12528
(dp12529
bag2
(g6996
g64
tp12530
Rp12531
(dp12532
bag2
(g8073
g64
tp12533
Rp12534
(dp12535
bag2
(g8274
g64
tp12536
Rp12537
(dp12538
bag2
(g8715
g64
tp12539
Rp12540
(dp12541
bag69
(g6342
g64
tp12542
Rp12543
(dp12544
ba(lp12545
g69
(g5976
g64
tp12546
Rp12547
(dp12548
batp12549
a((lp12550
g2
(g12318
g64
tp12551
Rp12552
(dp12553
bag2
(g11949
g64
tp12554
Rp12555
(dp12556
bag2
(g11460
g64
tp12557
Rp12558
(dp12559
bag2
(g1853
g64
tp12560
Rp12561
(dp12562
bag69
(g2115
g64
tp12563
Rp12564
(dp12565
bag2
(g3840
g64
tp12566
Rp12567
(dp12568
bag2
(g3507
g64
tp12569
Rp12570
(dp12571
bag2
(g3360
g64
tp12572
Rp12573
(dp12574
bag2
(g2580
g64
tp12575
Rp12576
(dp12577
bag2
(g2247
g64
tp12578
Rp12579
(dp12580
bag2
(g2049
g64
tp12581
Rp12582
(dp12583
bag2
(g1787
g64
tp12584
Rp12585
(dp12586
bag69
(g55
g64
tp12587
Rp12588
(dp12589
bag2
(g233
g64
tp12590
Rp12591
(dp12592
bag69
(g203
g64
tp12593
Rp12594
(dp12595
bag2
(g164
g64
tp12596
Rp12597
(dp12598
bag2
(g137
g64
tp12599
Rp12600
(dp12601
bag69
(g122
g64
tp12602
Rp12603
(dp12604
bag69
(g13
g64
tp12605
Rp12606
(dp12607
bag69
(g113
g64
tp12608
Rp12609
(dp12610
bag2
(g104
g64
tp12611
Rp12612
(dp12613
bag2
(g251
g64
tp12614
Rp12615
(dp12616
bag2
(g61
g64
tp12617
Rp12618
(dp12619
bag2
(g329
g64
tp12620
Rp12621
(dp12622
bag2
(g374
g64
tp12623
Rp12624
(dp12625
bag2
(g692
g64
tp12626
Rp12627
(dp12628
bag2
(g992
g64
tp12629
Rp12630
(dp12631
bag2
(g1166
g64
tp12632
Rp12633
(dp12634
bag2
(g1325
g64
tp12635
Rp12636
(dp12637
bag2
(g5883
g64
tp12638
Rp12639
(dp12640
bag2
(g6249
g64
tp12641
Rp12642
(dp12643
bag2
(g6528
g64
tp12644
Rp12645
(dp12646
bag2
(g6996
g64
tp12647
Rp12648
(dp12649
bag2
(g8073
g64
tp12650
Rp12651
(dp12652
bag2
(g8274
g64
tp12653
Rp12654
(dp12655
bag2
(g8715
g64
tp12656
Rp12657
(dp12658
bag69
(g6342
g64
tp12659
Rp12660
(dp12661
ba(lp12662
g69
(g5976
g64
tp12663
Rp12664
(dp12665
batp12666
a((lp12667
g2
(g11949
g64
tp12668
Rp12669
(dp12670
bag2
(g12318
g64
tp12671
Rp12672
(dp12673
bag2
(g11949
g64
tp12674
Rp12675
(dp12676
bag2
(g11460
g64
tp12677
Rp12678
(dp12679
bag2
(g1853
g64
tp12680
Rp12681
(dp12682
bag69
(g2115
g64
tp12683
Rp12684
(dp12685
bag2
(g3840
g64
tp12686
Rp12687
(dp12688
bag2
(g3507
g64
tp12689
Rp12690
(dp12691
bag2
(g3360
g64
tp12692
Rp12693
(dp12694
bag2
(g2580
g64
tp12695
Rp12696
(dp12697
bag2
(g2247
g64
tp12698
Rp12699
(dp12700
bag2
(g2049
g64
tp12701
Rp12702
(dp12703
bag2
(g1787
g64
tp12704
Rp12705
(dp12706
bag69
(g55
g64
tp12707
Rp12708
(dp12709
bag2
(g233
g64
tp12710
Rp12711
(dp12712
bag69
(g203
g64
tp12713
Rp12714
(dp12715
bag2
(g164
g64
tp12716
Rp12717
(dp12718
bag2
(g137
g64
tp12719
Rp12720
(dp12721
bag69
(g122
g64
tp12722
Rp12723
(dp12724
bag69
(g13
g64
tp12725
Rp12726
(dp12727
bag69
(g113
g64
tp12728
Rp12729
(dp12730
bag2
(g104
g64
tp12731
Rp12732
(dp12733
bag2
(g251
g64
tp12734
Rp12735
(dp12736
bag2
(g61
g64
tp12737
Rp12738
(dp12739
bag2
(g329
g64
tp12740
Rp12741
(dp12742
bag2
(g374
g64
tp12743
Rp12744
(dp12745
bag2
(g692
g64
tp12746
Rp12747
(dp12748
bag2
(g992
g64
tp12749
Rp12750
(dp12751
bag2
(g1166
g64
tp12752
Rp12753
(dp12754
bag2
(g1325
g64
tp12755
Rp12756
(dp12757
bag2
(g5883
g64
tp12758
Rp12759
(dp12760
bag2
(g6249
g64
tp12761
Rp12762
(dp12763
bag2
(g6528
g64
tp12764
Rp12765
(dp12766
bag2
(g6996
g64
tp12767
Rp12768
(dp12769
bag2
(g8073
g64
tp12770
Rp12771
(dp12772
bag2
(g8274
g64
tp12773
Rp12774
(dp12775
bag2
(g8715
g64
tp12776
Rp12777
(dp12778
bag69
(g6342
g64
tp12779
Rp12780
(dp12781
ba(lp12782
g69
(g5976
g64
tp12783
Rp12784
(dp12785
batp12786
a((lp12787
g2
(g329
g64
tp12788
Rp12789
(dp12790
bag2
(g12318
g64
tp12791
Rp12792
(dp12793
bag2
(g11949
g64
tp12794
Rp12795
(dp12796
bag2
(g11460
g64
tp12797
Rp12798
(dp12799
bag2
(g1853
g64
tp12800
Rp12801
(dp12802
bag69
(g2115
g64
tp12803
Rp12804
(dp12805
bag2
(g3840
g64
tp12806
Rp12807
(dp12808
bag2
(g3507
g64
tp12809
Rp12810
(dp12811
bag2
(g3360
g64
tp12812
Rp12813
(dp12814
bag2
(g2580
g64
tp12815
Rp12816
(dp12817
bag2
(g2247
g64
tp12818
Rp12819
(dp12820
bag2
(g2049
g64
tp12821
Rp12822
(dp12823
bag2
(g1787
g64
tp12824
Rp12825
(dp12826
bag69
(g55
g64
tp12827
Rp12828
(dp12829
bag2
(g233
g64
tp12830
Rp12831
(dp12832
bag69
(g203
g64
tp12833
Rp12834
(dp12835
bag2
(g164
g64
tp12836
Rp12837
(dp12838
bag2
(g137
g64
tp12839
Rp12840
(dp12841
bag69
(g122
g64
tp12842
Rp12843
(dp12844
bag69
(g13
g64
tp12845
Rp12846
(dp12847
bag69
(g113
g64
tp12848
Rp12849
(dp12850
bag2
(g104
g64
tp12851
Rp12852
(dp12853
bag2
(g251
g64
tp12854
Rp12855
(dp12856
bag2
(g61
g64
tp12857
Rp12858
(dp12859
bag2
(g329
g64
tp12860
Rp12861
(dp12862
bag2
(g374
g64
tp12863
Rp12864
(dp12865
bag2
(g692
g64
tp12866
Rp12867
(dp12868
bag2
(g992
g64
tp12869
Rp12870
(dp12871
bag2
(g1166
g64
tp12872
Rp12873
(dp12874
bag2
(g1325
g64
tp12875
Rp12876
(dp12877
bag2
(g5883
g64
tp12878
Rp12879
(dp12880
bag2
(g6249
g64
tp12881
Rp12882
(dp12883
bag2
(g6528
g64
tp12884
Rp12885
(dp12886
bag2
(g6996
g64
tp12887
Rp12888
(dp12889
bag2
(g8073
g64
tp12890
Rp12891
(dp12892
bag2
(g8274
g64
tp12893
Rp12894
(dp12895
bag2
(g8715
g64
tp12896
Rp12897
(dp12898
bag69
(g6342
g64
tp12899
Rp12900
(dp12901
ba(lp12902
g69
(g5976
g64
tp12903
Rp12904
(dp12905
batp12906
a((lp12907
g2
(g3
(g2571
g4
(g5
(I-63
I704
tp12908
Rp12909
(dp12910
bg3810
tp12911
Rp12912
(dp12913
bg4
(g5
(I5
I1344
tp12914
Rp12915
(dp12916
bg191
tp12917
Rp12918
(dp12919
bg4
(g5
(I161
I12672
tp12920
Rp12921
(dp12922
bg1301
tp12923
Rp12924
(dp12925
bg6993
tp12926
Rp12927
(dp12928
bg64
tp12929
Rp12930
(dp12931
bag69
(g383
g64
tp12932
Rp12933
(dp12934
bag2
(g12318
g64
tp12935
Rp12936
(dp12937
bag2
(g11949
g64
tp12938
Rp12939
(dp12940
bag2
(g11460
g64
tp12941
Rp12942
(dp12943
bag2
(g1853
g64
tp12944
Rp12945
(dp12946
bag69
(g2115
g64
tp12947
Rp12948
(dp12949
bag2
(g3840
g64
tp12950
Rp12951
(dp12952
bag2
(g3507
g64
tp12953
Rp12954
(dp12955
bag2
(g3360
g64
tp12956
Rp12957
(dp12958
bag2
(g2580
g64
tp12959
Rp12960
(dp12961
bag2
(g2247
g64
tp12962
Rp12963
(dp12964
bag2
(g2049
g64
tp12965
Rp12966
(dp12967
bag2
(g1787
g64
tp12968
Rp12969
(dp12970
bag69
(g55
g64
tp12971
Rp12972
(dp12973
bag2
(g233
g64
tp12974
Rp12975
(dp12976
bag69
(g203
g64
tp12977
Rp12978
(dp12979
bag2
(g164
g64
tp12980
Rp12981
(dp12982
bag2
(g137
g64
tp12983
Rp12984
(dp12985
bag69
(g122
g64
tp12986
Rp12987
(dp12988
bag69
(g13
g64
tp12989
Rp12990
(dp12991
bag69
(g113
g64
tp12992
Rp12993
(dp12994
bag2
(g104
g64
tp12995
Rp12996
(dp12997
bag2
(g251
g64
tp12998
Rp12999
(dp13000
bag2
(g61
g64
tp13001
Rp13002
(dp13003
bag2
(g329
g64
tp13004
Rp13005
(dp13006
bag2
(g374
g64
tp13007
Rp13008
(dp13009
bag2
(g692
g64
tp13010
Rp13011
(dp13012
bag2
(g992
g64
tp13013
Rp13014
(dp13015
bag2
(g1166
g64
tp13016
Rp13017
(dp13018
bag2
(g1325
g64
tp13019
Rp13020
(dp13021
bag2
(g5883
g64
tp13022
Rp13023
(dp13024
bag2
(g6249
g64
tp13025
Rp13026
(dp13027
bag2
(g6528
g64
tp13028
Rp13029
(dp13030
bag2
(g6996
g64
tp13031
Rp13032
(dp13033
bag2
(g8073
g64
tp13034
Rp13035
(dp13036
bag2
(g8274
g64
tp13037
Rp13038
(dp13039
bag2
(g8715
g64
tp13040
Rp13041
(dp13042
bag69
(g6342
g64
tp13043
Rp13044
(dp13045
ba(lp13046
g69
(g5976
g64
tp13047
Rp13048
(dp13049
batp13050
a((lp13051
g2
(g329
g64
tp13052
Rp13053
(dp13054
bag2
(g12318
g64
tp13055
Rp13056
(dp13057
bag2
(g11949
g64
tp13058
Rp13059
(dp13060
bag2
(g11460
g64
tp13061
Rp13062
(dp13063
bag2
(g1853
g64
tp13064
Rp13065
(dp13066
bag69
(g2115
g64
tp13067
Rp13068
(dp13069
bag2
(g3840
g64
tp13070
Rp13071
(dp13072
bag2
(g3507
g64
tp13073
Rp13074
(dp13075
bag2
(g3360
g64
tp13076
Rp13077
(dp13078
bag2
(g2580
g64
tp13079
Rp13080
(dp13081
bag2
(g2247
g64
tp13082
Rp13083
(dp13084
bag2
(g2049
g64
tp13085
Rp13086
(dp13087
bag2
(g1787
g64
tp13088
Rp13089
(dp13090
bag69
(g55
g64
tp13091
Rp13092
(dp13093
bag2
(g233
g64
tp13094
Rp13095
(dp13096
bag69
(g203
g64
tp13097
Rp13098
(dp13099
bag2
(g164
g64
tp13100
Rp13101
(dp13102
bag2
(g137
g64
tp13103
Rp13104
(dp13105
bag69
(g122
g64
tp13106
Rp13107
(dp13108
bag69
(g13
g64
tp13109
Rp13110
(dp13111
bag69
(g113
g64
tp13112
Rp13113
(dp13114
bag2
(g104
g64
tp13115
Rp13116
(dp13117
bag2
(g251
g64
tp13118
Rp13119
(dp13120
bag2
(g61
g64
tp13121
Rp13122
(dp13123
bag2
(g329
g64
tp13124
Rp13125
(dp13126
bag2
(g374
g64
tp13127
Rp13128
(dp13129
bag2
(g692
g64
tp13130
Rp13131
(dp13132
bag2
(g992
g64
tp13133
Rp13134
(dp13135
bag2
(g1166
g64
tp13136
Rp13137
(dp13138
bag2
(g1325
g64
tp13139
Rp13140
(dp13141
bag2
(g5883
g64
tp13142
Rp13143
(dp13144
bag2
(g6249
g64
tp13145
Rp13146
(dp13147
bag2
(g6528
g64
tp13148
Rp13149
(dp13150
bag2
(g6996
g64
tp13151
Rp13152
(dp13153
bag2
(g8073
g64
tp13154
Rp13155
(dp13156
bag2
(g8274
g64
tp13157
Rp13158
(dp13159
bag2
(g8715
g64
tp13160
Rp13161
(dp13162
bag69
(g6342
g64
tp13163
Rp13164
(dp13165
ba(lp13166
g69
(g5976
g64
tp13167
Rp13168
(dp13169
batp13170
a((lp13171
g2
(g12927
g64
tp13172
Rp13173
(dp13174
bag2
(g12318
g64
tp13175
Rp13176
(dp13177
bag2
(g11949
g64
tp13178
Rp13179
(dp13180
bag2
(g11460
g64
tp13181
Rp13182
(dp13183
bag2
(g1853
g64
tp13184
Rp13185
(dp13186
bag69
(g2115
g64
tp13187
Rp13188
(dp13189
bag2
(g3840
g64
tp13190
Rp13191
(dp13192
bag2
(g3507
g64
tp13193
Rp13194
(dp13195
bag2
(g3360
g64
tp13196
Rp13197
(dp13198
bag2
(g2580
g64
tp13199
Rp13200
(dp13201
bag2
(g2247
g64
tp13202
Rp13203
(dp13204
bag2
(g2049
g64
tp13205
Rp13206
(dp13207
bag2
(g1787
g64
tp13208
Rp13209
(dp13210
bag69
(g55
g64
tp13211
Rp13212
(dp13213
bag2
(g233
g64
tp13214
Rp13215
(dp13216
bag69
(g203
g64
tp13217
Rp13218
(dp13219
bag2
(g164
g64
tp13220
Rp13221
(dp13222
bag2
(g137
g64
tp13223
Rp13224
(dp13225
bag69
(g122
g64
tp13226
Rp13227
(dp13228
bag69
(g13
g64
tp13229
Rp13230
(dp13231
bag69
(g113
g64
tp13232
Rp13233
(dp13234
bag2
(g104
g64
tp13235
Rp13236
(dp13237
bag2
(g251
g64
tp13238
Rp13239
(dp13240
bag2
(g61
g64
tp13241
Rp13242
(dp13243
bag2
(g329
g64
tp13244
Rp13245
(dp13246
bag2
(g374
g64
tp13247
Rp13248
(dp13249
bag2
(g692
g64
tp13250
Rp13251
(dp13252
bag2
(g992
g64
tp13253
Rp13254
(dp13255
bag2
(g1166
g64
tp13256
Rp13257
(dp13258
bag2
(g1325
g64
tp13259
Rp13260
(dp13261
bag2
(g5883
g64
tp13262
Rp13263
(dp13264
bag2
(g6249
g64
tp13265
Rp13266
(dp13267
bag2
(g6528
g64
tp13268
Rp13269
(dp13270
bag2
(g6996
g64
tp13271
Rp13272
(dp13273
bag2
(g8073
g64
tp13274
Rp13275
(dp13276
bag2
(g8274
g64
tp13277
Rp13278
(dp13279
bag2
(g8715
g64
tp13280
Rp13281
(dp13282
bag69
(g6342
g64
tp13283
Rp13284
(dp13285
ba(lp13286
g69
(g5976
g64
tp13287
Rp13288
(dp13289
batp13290
a((lp13291
g2
(g11949
g64
tp13292
Rp13293
(dp13294
bag2
(g12927
g64
tp13295
Rp13296
(dp13297
bag2
(g12318
g64
tp13298
Rp13299
(dp13300
bag2
(g11949
g64
tp13301
Rp13302
(dp13303
bag2
(g11460
g64
tp13304
Rp13305
(dp13306
bag2
(g1853
g64
tp13307
Rp13308
(dp13309
bag69
(g2115
g64
tp13310
Rp13311
(dp13312
bag2
(g3840
g64
tp13313
Rp13314
(dp13315
bag2
(g3507
g64
tp13316
Rp13317
(dp13318
bag2
(g3360
g64
tp13319
Rp13320
(dp13321
bag2
(g2580
g64
tp13322
Rp13323
(dp13324
bag2
(g2247
g64
tp13325
Rp13326
(dp13327
bag2
(g2049
g64
tp13328
Rp13329
(dp13330
bag2
(g1787
g64
tp13331
Rp13332
(dp13333
bag69
(g55
g64
tp13334
Rp13335
(dp13336
bag2
(g233
g64
tp13337
Rp13338
(dp13339
bag69
(g203
g64
tp13340
Rp13341
(dp13342
bag2
(g164
g64
tp13343
Rp13344
(dp13345
bag2
(g137
g64
tp13346
Rp13347
(dp13348
bag69
(g122
g64
tp13349
Rp13350
(dp13351
bag69
(g13
g64
tp13352
Rp13353
(dp13354
bag69
(g113
g64
tp13355
Rp13356
(dp13357
bag2
(g104
g64
tp13358
Rp13359
(dp13360
bag2
(g251
g64
tp13361
Rp13362
(dp13363
bag2
(g61
g64
tp13364
Rp13365
(dp13366
bag2
(g329
g64
tp13367
Rp13368
(dp13369
bag2
(g374
g64
tp13370
Rp13371
(dp13372
bag2
(g692
g64
tp13373
Rp13374
(dp13375
bag2
(g992
g64
tp13376
Rp13377
(dp13378
bag2
(g1166
g64
tp13379
Rp13380
(dp13381
bag2
(g1325
g64
tp13382
Rp13383
(dp13384
bag2
(g5883
g64
tp13385
Rp13386
(dp13387
bag2
(g6249
g64
tp13388
Rp13389
(dp13390
bag2
(g6528
g64
tp13391
Rp13392
(dp13393
bag2
(g6996
g64
tp13394
Rp13395
(dp13396
bag2
(g8073
g64
tp13397
Rp13398
(dp13399
bag2
(g8274
g64
tp13400
Rp13401
(dp13402
bag2
(g8715
g64
tp13403
Rp13404
(dp13405
bag69
(g6342
g64
tp13406
Rp13407
(dp13408
ba(lp13409
g69
(g5976
g64
tp13410
Rp13411
(dp13412
batp13413
a((lp13414
g2
(g12927
g64
tp13415
Rp13416
(dp13417
bag69
(g12072
g64
tp13418
Rp13419
(dp13420
bag2
(g12927
g64
tp13421
Rp13422
(dp13423
bag2
(g12318
g64
tp13424
Rp13425
(dp13426
bag2
(g11949
g64
tp13427
Rp13428
(dp13429
bag2
(g11460
g64
tp13430
Rp13431
(dp13432
bag2
(g1853
g64
tp13433
Rp13434
(dp13435
bag69
(g2115
g64
tp13436
Rp13437
(dp13438
bag2
(g3840
g64
tp13439
Rp13440
(dp13441
bag2
(g3507
g64
tp13442
Rp13443
(dp13444
bag2
(g3360
g64
tp13445
Rp13446
(dp13447
bag2
(g2580
g64
tp13448
Rp13449
(dp13450
bag2
(g2247
g64
tp13451
Rp13452
(dp13453
bag2
(g2049
g64
tp13454
Rp13455
(dp13456
bag2
(g1787
g64
tp13457
Rp13458
(dp13459
bag69
(g55
g64
tp13460
Rp13461
(dp13462
bag2
(g233
g64
tp13463
Rp13464
(dp13465
bag69
(g203
g64
tp13466
Rp13467
(dp13468
bag2
(g164
g64
tp13469
Rp13470
(dp13471
bag2
(g137
g64
tp13472
Rp13473
(dp13474
bag69
(g122
g64
tp13475
Rp13476
(dp13477
bag69
(g13
g64
tp13478
Rp13479
(dp13480
bag69
(g113
g64
tp13481
Rp13482
(dp13483
bag2
(g104
g64
tp13484
Rp13485
(dp13486
bag2
(g251
g64
tp13487
Rp13488
(dp13489
bag2
(g61
g64
tp13490
Rp13491
(dp13492
bag2
(g329
g64
tp13493
Rp13494
(dp13495
bag2
(g374
g64
tp13496
Rp13497
(dp13498
bag2
(g692
g64
tp13499
Rp13500
(dp13501
bag2
(g992
g64
tp13502
Rp13503
(dp13504
bag2
(g1166
g64
tp13505
Rp13506
(dp13507
bag2
(g1325
g64
tp13508
Rp13509
(dp13510
bag2
(g5883
g64
tp13511
Rp13512
(dp13513
bag2
(g6249
g64
tp13514
Rp13515
(dp13516
bag2
(g6528
g64
tp13517
Rp13518
(dp13519
bag2
(g6996
g64
tp13520
Rp13521
(dp13522
bag2
(g8073
g64
tp13523
Rp13524
(dp13525
bag2
(g8274
g64
tp13526
Rp13527
(dp13528
bag2
(g8715
g64
tp13529
Rp13530
(dp13531
bag69
(g6342
g64
tp13532
Rp13533
(dp13534
ba(lp13535
g69
(g5976
g64
tp13536
Rp13537
(dp13538
batp13539
a((lp13540
g2
(g11949
g64
tp13541
Rp13542
(dp13543
bag2
(g12927
g64
tp13544
Rp13545
(dp13546
bag2
(g12318
g64
tp13547
Rp13548
(dp13549
bag2
(g11949
g64
tp13550
Rp13551
(dp13552
bag2
(g11460
g64
tp13553
Rp13554
(dp13555
bag2
(g1853
g64
tp13556
Rp13557
(dp13558
bag69
(g2115
g64
tp13559
Rp13560
(dp13561
bag2
(g3840
g64
tp13562
Rp13563
(dp13564
bag2
(g3507
g64
tp13565
Rp13566
(dp13567
bag2
(g3360
g64
tp13568
Rp13569
(dp13570
bag2
(g2580
g64
tp13571
Rp13572
(dp13573
bag2
(g2247
g64
tp13574
Rp13575
(dp13576
bag2
(g2049
g64
tp13577
Rp13578
(dp13579
bag2
(g1787
g64
tp13580
Rp13581
(dp13582
bag69
(g55
g64
tp13583
Rp13584
(dp13585
bag2
(g233
g64
tp13586
Rp13587
(dp13588
bag69
(g203
g64
tp13589
Rp13590
(dp13591
bag2
(g164
g64
tp13592
Rp13593
(dp13594
bag2
(g137
g64
tp13595
Rp13596
(dp13597
bag69
(g122
g64
tp13598
Rp13599
(dp13600
bag69
(g13
g64
tp13601
Rp13602
(dp13603
bag69
(g113
g64
tp13604
Rp13605
(dp13606
bag2
(g104
g64
tp13607
Rp13608
(dp13609
bag2
(g251
g64
tp13610
Rp13611
(dp13612
bag2
(g61
g64
tp13613
Rp13614
(dp13615
bag2
(g329
g64
tp13616
Rp13617
(dp13618
bag2
(g374
g64
tp13619
Rp13620
(dp13621
bag2
(g692
g64
tp13622
Rp13623
(dp13624
bag2
(g992
g64
tp13625
Rp13626
(dp13627
bag2
(g1166
g64
tp13628
Rp13629
(dp13630
bag2
(g1325
g64
tp13631
Rp13632
(dp13633
bag2
(g5883
g64
tp13634
Rp13635
(dp13636
bag2
(g6249
g64
tp13637
Rp13638
(dp13639
bag2
(g6528
g64
tp13640
Rp13641
(dp13642
bag2
(g6996
g64
tp13643
Rp13644
(dp13645
bag2
(g8073
g64
tp13646
Rp13647
(dp13648
bag2
(g8274
g64
tp13649
Rp13650
(dp13651
bag2
(g8715
g64
tp13652
Rp13653
(dp13654
bag69
(g6342
g64
tp13655
Rp13656
(dp13657
ba(lp13658
g69
(g5976
g64
tp13659
Rp13660
(dp13661
batp13662
a((lp13663
g2
(g12927
g64
tp13664
Rp13665
(dp13666
bag2
(g12927
g64
tp13667
Rp13668
(dp13669
bag2
(g12318
g64
tp13670
Rp13671
(dp13672
bag2
(g11949
g64
tp13673
Rp13674
(dp13675
bag2
(g11460
g64
tp13676
Rp13677
(dp13678
bag2
(g1853
g64
tp13679
Rp13680
(dp13681
bag69
(g2115
g64
tp13682
Rp13683
(dp13684
bag2
(g3840
g64
tp13685
Rp13686
(dp13687
bag2
(g3507
g64
tp13688
Rp13689
(dp13690
bag2
(g3360
g64
tp13691
Rp13692
(dp13693
bag2
(g2580
g64
tp13694
Rp13695
(dp13696
bag2
(g2247
g64
tp13697
Rp13698
(dp13699
bag2
(g2049
g64
tp13700
Rp13701
(dp13702
bag2
(g1787
g64
tp13703
Rp13704
(dp13705
bag69
(g55
g64
tp13706
Rp13707
(dp13708
bag2
(g233
g64
tp13709
Rp13710
(dp13711
bag69
(g203
g64
tp13712
Rp13713
(dp13714
bag2
(g164
g64
tp13715
Rp13716
(dp13717
bag2
(g137
g64
tp13718
Rp13719
(dp13720
bag69
(g122
g64
tp13721
Rp13722
(dp13723
bag69
(g13
g64
tp13724
Rp13725
(dp13726
bag69
(g113
g64
tp13727
Rp13728
(dp13729
bag2
(g104
g64
tp13730
Rp13731
(dp13732
bag2
(g251
g64
tp13733
Rp13734
(dp13735
bag2
(g61
g64
tp13736
Rp13737
(dp13738
bag2
(g329
g64
tp13739
Rp13740
(dp13741
bag2
(g374
g64
tp13742
Rp13743
(dp13744
bag2
(g692
g64
tp13745
Rp13746
(dp13747
bag2
(g992
g64
tp13748
Rp13749
(dp13750
bag2
(g1166
g64
tp13751
Rp13752
(dp13753
bag2
(g1325
g64
tp13754
Rp13755
(dp13756
bag2
(g5883
g64
tp13757
Rp13758
(dp13759
bag2
(g6249
g64
tp13760
Rp13761
(dp13762
bag2
(g6528
g64
tp13763
Rp13764
(dp13765
bag2
(g6996
g64
tp13766
Rp13767
(dp13768
bag2
(g8073
g64
tp13769
Rp13770
(dp13771
bag2
(g8274
g64
tp13772
Rp13773
(dp13774
bag2
(g8715
g64
tp13775
Rp13776
(dp13777
bag69
(g6342
g64
tp13778
Rp13779
(dp13780
ba(lp13781
g69
(g5976
g64
tp13782
Rp13783
(dp13784
batp13785
a((lp13786
g2
(g3
(g98
g4
(g11448
g191
tp13787
Rp13788
(dp13789
bg989
g8271
g3504
g4
(g11436
g1301
tp13790
Rp13791
(dp13792
btp13793
Rp13794
(dp13795
bg64
tp13796
Rp13797
(dp13798
bag2
(g12927
g64
tp13799
Rp13800
(dp13801
bag2
(g12318
g64
tp13802
Rp13803
(dp13804
bag2
(g11949
g64
tp13805
Rp13806
(dp13807
bag2
(g11460
g64
tp13808
Rp13809
(dp13810
bag2
(g1853
g64
tp13811
Rp13812
(dp13813
bag69
(g2115
g64
tp13814
Rp13815
(dp13816
bag2
(g3840
g64
tp13817
Rp13818
(dp13819
bag2
(g3507
g64
tp13820
Rp13821
(dp13822
bag2
(g3360
g64
tp13823
Rp13824
(dp13825
bag2
(g2580
g64
tp13826
Rp13827
(dp13828
bag2
(g2247
g64
tp13829
Rp13830
(dp13831
bag2
(g2049
g64
tp13832
Rp13833
(dp13834
bag2
(g1787
g64
tp13835
Rp13836
(dp13837
bag69
(g55
g64
tp13838
Rp13839
(dp13840
bag2
(g233
g64
tp13841
Rp13842
(dp13843
bag69
(g203
g64
tp13844
Rp13845
(dp13846
bag2
(g164
g64
tp13847
Rp13848
(dp13849
bag2
(g137
g64
tp13850
Rp13851
(dp13852
bag69
(g122
g64
tp13853
Rp13854
(dp13855
bag69
(g13
g64
tp13856
Rp13857
(dp13858
bag69
(g113
g64
tp13859
Rp13860
(dp13861
bag2
(g104
g64
tp13862
Rp13863
(dp13864
bag2
(g251
g64
tp13865
Rp13866
(dp13867
bag2
(g61
g64
tp13868
Rp13869
(dp13870
bag2
(g329
g64
tp13871
Rp13872
(dp13873
bag2
(g374
g64
tp13874
Rp13875
(dp13876
bag2
(g692
g64
tp13877
Rp13878
(dp13879
bag2
(g992
g64
tp13880
Rp13881
(dp13882
bag2
(g1166
g64
tp13883
Rp13884
(dp13885
bag2
(g1325
g64
tp13886
Rp13887
(dp13888
bag2
(g5883
g64
tp13889
Rp13890
(dp13891
bag2
(g6249
g64
tp13892
Rp13893
(dp13894
bag2
(g6528
g64
tp13895
Rp13896
(dp13897
bag2
(g6996
g64
tp13898
Rp13899
(dp13900
bag2
(g8073
g64
tp13901
Rp13902
(dp13903
bag2
(g8274
g64
tp13904
Rp13905
(dp13906
bag2
(g8715
g64
tp13907
Rp13908
(dp13909
bag69
(g6342
g64
tp13910
Rp13911
(dp13912
ba(lp13913
g69
(g5976
g64
tp13914
Rp13915
(dp13916
batp13917
a((lp13918
g2
(g13794
g64
tp13919
Rp13920
(dp13921
bag2
(g12927
g64
tp13922
Rp13923
(dp13924
bag2
(g12318
g64
tp13925
Rp13926
(dp13927
bag2
(g11949
g64
tp13928
Rp13929
(dp13930
bag2
(g11460
g64
tp13931
Rp13932
(dp13933
bag2
(g1853
g64
tp13934
Rp13935
(dp13936
bag69
(g2115
g64
tp13937
Rp13938
(dp13939
bag2
(g3840
g64
tp13940
Rp13941
(dp13942
bag2
(g3507
g64
tp13943
Rp13944
(dp13945
bag2
(g3360
g64
tp13946
Rp13947
(dp13948
bag2
(g2580
g64
tp13949
Rp13950
(dp13951
bag2
(g2247
g64
tp13952
Rp13953
(dp13954
bag2
(g2049
g64
tp13955
Rp13956
(dp13957
bag2
(g1787
g64
tp13958
Rp13959
(dp13960
bag69
(g55
g64
tp13961
Rp13962
(dp13963
bag2
(g233
g64
tp13964
Rp13965
(dp13966
bag69
(g203
g64
tp13967
Rp13968
(dp13969
bag2
(g164
g64
tp13970
Rp13971
(dp13972
bag2
(g137
g64
tp13973
Rp13974
(dp13975
bag69
(g122
g64
tp13976
Rp13977
(dp13978
bag69
(g13
g64
tp13979
Rp13980
(dp13981
bag69
(g113
g64
tp13982
Rp13983
(dp13984
bag2
(g104
g64
tp13985
Rp13986
(dp13987
bag2
(g251
g64
tp13988
Rp13989
(dp13990
bag2
(g61
g64
tp13991
Rp13992
(dp13993
bag2
(g329
g64
tp13994
Rp13995
(dp13996
bag2
(g374
g64
tp13997
Rp13998
(dp13999
bag2
(g692
g64
tp14000
Rp14001
(dp14002
bag2
(g992
g64
tp14003
Rp14004
(dp14005
bag2
(g1166
g64
tp14006
Rp14007
(dp14008
bag2
(g1325
g64
tp14009
Rp14010
(dp14011
bag2
(g5883
g64
tp14012
Rp14013
(dp14014
bag2
(g6249
g64
tp14015
Rp14016
(dp14017
bag2
(g6528
g64
tp14018
Rp14019
(dp14020
bag2
(g6996
g64
tp14021
Rp14022
(dp14023
bag2
(g8073
g64
tp14024
Rp14025
(dp14026
bag2
(g8274
g64
tp14027
Rp14028
(dp14029
bag2
(g8715
g64
tp14030
Rp14031
(dp14032
bag69
(g6342
g64
tp14033
Rp14034
(dp14035
ba(lp14036
g69
(g5976
g64
tp14037
Rp14038
(dp14039
batp14040
a((lp14041
g2
(g11586
g64
tp14042
Rp14043
(dp14044
bag2
(g55
g64
tp14045
Rp14046
(dp14047
bag2
(g13794
g64
tp14048
Rp14049
(dp14050
bag2
(g12927
g64
tp14051
Rp14052
(dp14053
bag2
(g12318
g64
tp14054
Rp14055
(dp14056
bag2
(g11949
g64
tp14057
Rp14058
(dp14059
bag2
(g11460
g64
tp14060
Rp14061
(dp14062
bag2
(g1853
g64
tp14063
Rp14064
(dp14065
bag69
(g2115
g64
tp14066
Rp14067
(dp14068
bag2
(g3840
g64
tp14069
Rp14070
(dp14071
bag2
(g3507
g64
tp14072
Rp14073
(dp14074
bag2
(g3360
g64
tp14075
Rp14076
(dp14077
bag2
(g2580
g64
tp14078
Rp14079
(dp14080
bag2
(g2247
g64
tp14081
Rp14082
(dp14083
bag2
(g2049
g64
tp14084
Rp14085
(dp14086
bag2
(g1787
g64
tp14087
Rp14088
(dp14089
bag69
(g55
g64
tp14090
Rp14091
(dp14092
bag2
(g233
g64
tp14093
Rp14094
(dp14095
bag69
(g203
g64
tp14096
Rp14097
(dp14098
bag2
(g164
g64
tp14099
Rp14100
(dp14101
bag2
(g137
g64
tp14102
Rp14103
(dp14104
bag69
(g122
g64
tp14105
Rp14106
(dp14107
bag69
(g13
g64
tp14108
Rp14109
(dp14110
bag69
(g113
g64
tp14111
Rp14112
(dp14113
bag2
(g104
g64
tp14114
Rp14115
(dp14116
bag2
(g251
g64
tp14117
Rp14118
(dp14119
bag2
(g61
g64
tp14120
Rp14121
(dp14122
bag2
(g329
g64
tp14123
Rp14124
(dp14125
bag2
(g374
g64
tp14126
Rp14127
(dp14128
bag2
(g692
g64
tp14129
Rp14130
(dp14131
bag2
(g992
g64
tp14132
Rp14133
(dp14134
bag2
(g1166
g64
tp14135
Rp14136
(dp14137
bag2
(g1325
g64
tp14138
Rp14139
(dp14140
bag2
(g5883
g64
tp14141
Rp14142
(dp14143
bag2
(g6249
g64
tp14144
Rp14145
(dp14146
bag2
(g6528
g64
tp14147
Rp14148
(dp14149
bag2
(g6996
g64
tp14150
Rp14151
(dp14152
bag2
(g8073
g64
tp14153
Rp14154
(dp14155
bag2
(g8274
g64
tp14156
Rp14157
(dp14158
bag2
(g8715
g64
tp14159
Rp14160
(dp14161
bag69
(g6342
g64
tp14162
Rp14163
(dp14164
ba(lp14165
g69
(g5976
g64
tp14166
Rp14167
(dp14168
batp14169
a((lp14170
g69
(g55
g64
tp14171
Rp14172
(dp14173
bag2
(g13794
g64
tp14174
Rp14175
(dp14176
bag2
(g12927
g64
tp14177
Rp14178
(dp14179
bag2
(g12318
g64
tp14180
Rp14181
(dp14182
bag2
(g11949
g64
tp14183
Rp14184
(dp14185
bag2
(g11460
g64
tp14186
Rp14187
(dp14188
bag2
(g1853
g64
tp14189
Rp14190
(dp14191
bag69
(g2115
g64
tp14192
Rp14193
(dp14194
bag2
(g3840
g64
tp14195
Rp14196
(dp14197
bag2
(g3507
g64
tp14198
Rp14199
(dp14200
bag2
(g3360
g64
tp14201
Rp14202
(dp14203
bag2
(g2580
g64
tp14204
Rp14205
(dp14206
bag2
(g2247
g64
tp14207
Rp14208
(dp14209
bag2
(g2049
g64
tp14210
Rp14211
(dp14212
bag2
(g1787
g64
tp14213
Rp14214
(dp14215
bag69
(g55
g64
tp14216
Rp14217
(dp14218
bag2
(g233
g64
tp14219
Rp14220
(dp14221
bag69
(g203
g64
tp14222
Rp14223
(dp14224
bag2
(g164
g64
tp14225
Rp14226
(dp14227
bag2
(g137
g64
tp14228
Rp14229
(dp14230
bag69
(g122
g64
tp14231
Rp14232
(dp14233
bag69
(g13
g64
tp14234
Rp14235
(dp14236
bag69
(g113
g64
tp14237
Rp14238
(dp14239
bag2
(g104
g64
tp14240
Rp14241
(dp14242
bag2
(g251
g64
tp14243
Rp14244
(dp14245
bag2
(g61
g64
tp14246
Rp14247
(dp14248
bag2
(g329
g64
tp14249
Rp14250
(dp14251
bag2
(g374
g64
tp14252
Rp14253
(dp14254
bag2
(g692
g64
tp14255
Rp14256
(dp14257
bag2
(g992
g64
tp14258
Rp14259
(dp14260
bag2
(g1166
g64
tp14261
Rp14262
(dp14263
bag2
(g1325
g64
tp14264
Rp14265
(dp14266
bag2
(g5883
g64
tp14267
Rp14268
(dp14269
bag2
(g6249
g64
tp14270
Rp14271
(dp14272
bag2
(g6528
g64
tp14273
Rp14274
(dp14275
bag2
(g6996
g64
tp14276
Rp14277
(dp14278
bag2
(g8073
g64
tp14279
Rp14280
(dp14281
bag2
(g8274
g64
tp14282
Rp14283
(dp14284
bag2
(g8715
g64
tp14285
Rp14286
(dp14287
bag69
(g6342
g64
tp14288
Rp14289
(dp14290
ba(lp14291
g69
(g5976
g64
tp14292
Rp14293
(dp14294
batp14295
a((lp14296
g2
(g11586
g64
tp14297
Rp14298
(dp14299
bag2
(g791
g64
tp14300
Rp14301
(dp14302
bag2
(g13794
g64
tp14303
Rp14304
(dp14305
bag2
(g12927
g64
tp14306
Rp14307
(dp14308
bag2
(g12318
g64
tp14309
Rp14310
(dp14311
bag2
(g11949
g64
tp14312
Rp14313
(dp14314
bag2
(g11460
g64
tp14315
Rp14316
(dp14317
bag2
(g1853
g64
tp14318
Rp14319
(dp14320
bag69
(g2115
g64
tp14321
Rp14322
(dp14323
bag2
(g3840
g64
tp14324
Rp14325
(dp14326
bag2
(g3507
g64
tp14327
Rp14328
(dp14329
bag2
(g3360
g64
tp14330
Rp14331
(dp14332
bag2
(g2580
g64
tp14333
Rp14334
(dp14335
bag2
(g2247
g64
tp14336
Rp14337
(dp14338
bag2
(g2049
g64
tp14339
Rp14340
(dp14341
bag2
(g1787
g64
tp14342
Rp14343
(dp14344
bag69
(g55
g64
tp14345
Rp14346
(dp14347
bag2
(g233
g64
tp14348
Rp14349
(dp14350
bag69
(g203
g64
tp14351
Rp14352
(dp14353
bag2
(g164
g64
tp14354
Rp14355
(dp14356
bag2
(g137
g64
tp14357
Rp14358
(dp14359
bag69
(g122
g64
tp14360
Rp14361
(dp14362
bag69
(g13
g64
tp14363
Rp14364
(dp14365
bag69
(g113
g64
tp14366
Rp14367
(dp14368
bag2
(g104
g64
tp14369
Rp14370
(dp14371
bag2
(g251
g64
tp14372
Rp14373
(dp14374
bag2
(g61
g64
tp14375
Rp14376
(dp14377
bag2
(g329
g64
tp14378
Rp14379
(dp14380
bag2
(g374
g64
tp14381
Rp14382
(dp14383
bag2
(g692
g64
tp14384
Rp14385
(dp14386
bag2
(g992
g64
tp14387
Rp14388
(dp14389
bag2
(g1166
g64
tp14390
Rp14391
(dp14392
bag2
(g1325
g64
tp14393
Rp14394
(dp14395
bag2
(g5883
g64
tp14396
Rp14397
(dp14398
bag2
(g6249
g64
tp14399
Rp14400
(dp14401
bag2
(g6528
g64
tp14402
Rp14403
(dp14404
bag2
(g6996
g64
tp14405
Rp14406
(dp14407
bag2
(g8073
g64
tp14408
Rp14409
(dp14410
bag2
(g8274
g64
tp14411
Rp14412
(dp14413
bag2
(g8715
g64
tp14414
Rp14415
(dp14416
bag69
(g6342
g64
tp14417
Rp14418
(dp14419
ba(lp14420
g69
(g5976
g64
tp14421
Rp14422
(dp14423
batp14424
a((lp14425
g2
(g11586
g64
tp14426
Rp14427
(dp14428
bag69
(g12072
g64
tp14429
Rp14430
(dp14431
bag2
(g13794
g64
tp14432
Rp14433
(dp14434
bag2
(g12927
g64
tp14435
Rp14436
(dp14437
bag2
(g12318
g64
tp14438
Rp14439
(dp14440
bag2
(g11949
g64
tp14441
Rp14442
(dp14443
bag2
(g11460
g64
tp14444
Rp14445
(dp14446
bag2
(g1853
g64
tp14447
Rp14448
(dp14449
bag69
(g2115
g64
tp14450
Rp14451
(dp14452
bag2
(g3840
g64
tp14453
Rp14454
(dp14455
bag2
(g3507
g64
tp14456
Rp14457
(dp14458
bag2
(g3360
g64
tp14459
Rp14460
(dp14461
bag2
(g2580
g64
tp14462
Rp14463
(dp14464
bag2
(g2247
g64
tp14465
Rp14466
(dp14467
bag2
(g2049
g64
tp14468
Rp14469
(dp14470
bag2
(g1787
g64
tp14471
Rp14472
(dp14473
bag69
(g55
g64
tp14474
Rp14475
(dp14476
bag2
(g233
g64
tp14477
Rp14478
(dp14479
bag69
(g203
g64
tp14480
Rp14481
(dp14482
bag2
(g164
g64
tp14483
Rp14484
(dp14485
bag2
(g137
g64
tp14486
Rp14487
(dp14488
bag69
(g122
g64
tp14489
Rp14490
(dp14491
bag69
(g13
g64
tp14492
Rp14493
(dp14494
bag69
(g113
g64
tp14495
Rp14496
(dp14497
bag2
(g104
g64
tp14498
Rp14499
(dp14500
bag2
(g251
g64
tp14501
Rp14502
(dp14503
bag2
(g61
g64
tp14504
Rp14505
(dp14506
bag2
(g329
g64
tp14507
Rp14508
(dp14509
bag2
(g374
g64
tp14510
Rp14511
(dp14512
bag2
(g692
g64
tp14513
Rp14514
(dp14515
bag2
(g992
g64
tp14516
Rp14517
(dp14518
bag2
(g1166
g64
tp14519
Rp14520
(dp14521
bag2
(g1325
g64
tp14522
Rp14523
(dp14524
bag2
(g5883
g64
tp14525
Rp14526
(dp14527
bag2
(g6249
g64
tp14528
Rp14529
(dp14530
bag2
(g6528
g64
tp14531
Rp14532
(dp14533
bag2
(g6996
g64
tp14534
Rp14535
(dp14536
bag2
(g8073
g64
tp14537
Rp14538
(dp14539
bag2
(g8274
g64
tp14540
Rp14541
(dp14542
bag2
(g8715
g64
tp14543
Rp14544
(dp14545
bag69
(g6342
g64
tp14546
Rp14547
(dp14548
ba(lp14549
g69
(g5976
g64
tp14550
Rp14551
(dp14552
batp14553
a((lp14554
g2
(g11949
g64
tp14555
Rp14556
(dp14557
bag2
(g13794
g64
tp14558
Rp14559
(dp14560
bag2
(g12927
g64
tp14561
Rp14562
(dp14563
bag2
(g12318
g64
tp14564
Rp14565
(dp14566
bag2
(g11949
g64
tp14567
Rp14568
(dp14569
bag2
(g11460
g64
tp14570
Rp14571
(dp14572
bag2
(g1853
g64
tp14573
Rp14574
(dp14575
bag69
(g2115
g64
tp14576
Rp14577
(dp14578
bag2
(g3840
g64
tp14579
Rp14580
(dp14581
bag2
(g3507
g64
tp14582
Rp14583
(dp14584
bag2
(g3360
g64
tp14585
Rp14586
(dp14587
bag2
(g2580
g64
tp14588
Rp14589
(dp14590
bag2
(g2247
g64
tp14591
Rp14592
(dp14593
bag2
(g2049
g64
tp14594
Rp14595
(dp14596
bag2
(g1787
g64
tp14597
Rp14598
(dp14599
bag69
(g55
g64
tp14600
Rp14601
(dp14602
bag2
(g233
g64
tp14603
Rp14604
(dp14605
bag69
(g203
g64
tp14606
Rp14607
(dp14608
bag2
(g164
g64
tp14609
Rp14610
(dp14611
bag2
(g137
g64
tp14612
Rp14613
(dp14614
bag69
(g122
g64
tp14615
Rp14616
(dp14617
bag69
(g13
g64
tp14618
Rp14619
(dp14620
bag69
(g113
g64
tp14621
Rp14622
(dp14623
bag2
(g104
g64
tp14624
Rp14625
(dp14626
bag2
(g251
g64
tp14627
Rp14628
(dp14629
bag2
(g61
g64
tp14630
Rp14631
(dp14632
bag2
(g329
g64
tp14633
Rp14634
(dp14635
bag2
(g374
g64
tp14636
Rp14637
(dp14638
bag2
(g692
g64
tp14639
Rp14640
(dp14641
bag2
(g992
g64
tp14642
Rp14643
(dp14644
bag2
(g1166
g64
tp14645
Rp14646
(dp14647
bag2
(g1325
g64
tp14648
Rp14649
(dp14650
bag2
(g5883
g64
tp14651
Rp14652
(dp14653
bag2
(g6249
g64
tp14654
Rp14655
(dp14656
bag2
(g6528
g64
tp14657
Rp14658
(dp14659
bag2
(g6996
g64
tp14660
Rp14661
(dp14662
bag2
(g8073
g64
tp14663
Rp14664
(dp14665
bag2
(g8274
g64
tp14666
Rp14667
(dp14668
bag2
(g8715
g64
tp14669
Rp14670
(dp14671
bag69
(g6342
g64
tp14672
Rp14673
(dp14674
ba(lp14675
g69
(g5976
g64
tp14676
Rp14677
(dp14678
batp14679
a((lp14680
g2
(g3
(g8064
g4
(g5
(I63
I5632
tp14681
Rp14682
(dp14683
bg3810
tp14684
Rp14685
(dp14686
bg3351
g4
(g5
(I-185
I2688
tp14687
Rp14688
(dp14689
bg191
tp14690
Rp14691
(dp14692
bg4
(g5
(I-329
I6336
tp14693
Rp14694
(dp14695
bg1301
tp14696
Rp14697
(dp14698
btp14699
Rp14700
(dp14701
bg64
tp14702
Rp14703
(dp14704
bag69
(g12072
g64
tp14705
Rp14706
(dp14707
bag2
(g13794
g64
tp14708
Rp14709
(dp14710
bag2
(g12927
g64
tp14711
Rp14712
(dp14713
bag2
(g12318
g64
tp14714
Rp14715
(dp14716
bag2
(g11949
g64
tp14717
Rp14718
(dp14719
bag2
(g11460
g64
tp14720
Rp14721
(dp14722
bag2
(g1853
g64
tp14723
Rp14724
(dp14725
bag69
(g2115
g64
tp14726
Rp14727
(dp14728
bag2
(g3840
g64
tp14729
Rp14730
(dp14731
bag2
(g3507
g64
tp14732
Rp14733
(dp14734
bag2
(g3360
g64
tp14735
Rp14736
(dp14737
bag2
(g2580
g64
tp14738
Rp14739
(dp14740
bag2
(g2247
g64
tp14741
Rp14742
(dp14743
bag2
(g2049
g64
tp14744
Rp14745
(dp14746
bag2
(g1787
g64
tp14747
Rp14748
(dp14749
bag69
(g55
g64
tp14750
Rp14751
(dp14752
bag2
(g233
g64
tp14753
Rp14754
(dp14755
bag69
(g203
g64
tp14756
Rp14757
(dp14758
bag2
(g164
g64
tp14759
Rp14760
(dp14761
bag2
(g137
g64
tp14762
Rp14763
(dp14764
bag69
(g122
g64
tp14765
Rp14766
(dp14767
bag69
(g13
g64
tp14768
Rp14769
(dp14770
bag69
(g113
g64
tp14771
Rp14772
(dp14773
bag2
(g104
g64
tp14774
Rp14775
(dp14776
bag2
(g251
g64
tp14777
Rp14778
(dp14779
bag2
(g61
g64
tp14780
Rp14781
(dp14782
bag2
(g329
g64
tp14783
Rp14784
(dp14785
bag2
(g374
g64
tp14786
Rp14787
(dp14788
bag2
(g692
g64
tp14789
Rp14790
(dp14791
bag2
(g992
g64
tp14792
Rp14793
(dp14794
bag2
(g1166
g64
tp14795
Rp14796
(dp14797
bag2
(g1325
g64
tp14798
Rp14799
(dp14800
bag2
(g5883
g64
tp14801
Rp14802
(dp14803
bag2
(g6249
g64
tp14804
Rp14805
(dp14806
bag2
(g6528
g64
tp14807
Rp14808
(dp14809
bag2
(g6996
g64
tp14810
Rp14811
(dp14812
bag2
(g8073
g64
tp14813
Rp14814
(dp14815
bag2
(g8274
g64
tp14816
Rp14817
(dp14818
bag2
(g8715
g64
tp14819
Rp14820
(dp14821
bag69
(g6342
g64
tp14822
Rp14823
(dp14824
ba(lp14825
g69
(g5976
g64
tp14826
Rp14827
(dp14828
batp14829
a((lp14830
g2
(g11949
g64
tp14831
Rp14832
(dp14833
bag2
(g13794
g64
tp14834
Rp14835
(dp14836
bag2
(g12927
g64
tp14837
Rp14838
(dp14839
bag2
(g12318
g64
tp14840
Rp14841
(dp14842
bag2
(g11949
g64
tp14843
Rp14844
(dp14845
bag2
(g11460
g64
tp14846
Rp14847
(dp14848
bag2
(g1853
g64
tp14849
Rp14850
(dp14851
bag69
(g2115
g64
tp14852
Rp14853
(dp14854
bag2
(g3840
g64
tp14855
Rp14856
(dp14857
bag2
(g3507
g64
tp14858
Rp14859
(dp14860
bag2
(g3360
g64
tp14861
Rp14862
(dp14863
bag2
(g2580
g64
tp14864
Rp14865
(dp14866
bag2
(g2247
g64
tp14867
Rp14868
(dp14869
bag2
(g2049
g64
tp14870
Rp14871
(dp14872
bag2
(g1787
g64
tp14873
Rp14874
(dp14875
bag69
(g55
g64
tp14876
Rp14877
(dp14878
bag2
(g233
g64
tp14879
Rp14880
(dp14881
bag69
(g203
g64
tp14882
Rp14883
(dp14884
bag2
(g164
g64
tp14885
Rp14886
(dp14887
bag2
(g137
g64
tp14888
Rp14889
(dp14890
bag69
(g122
g64
tp14891
Rp14892
(dp14893
bag69
(g13
g64
tp14894
Rp14895
(dp14896
bag69
(g113
g64
tp14897
Rp14898
(dp14899
bag2
(g104
g64
tp14900
Rp14901
(dp14902
bag2
(g251
g64
tp14903
Rp14904
(dp14905
bag2
(g61
g64
tp14906
Rp14907
(dp14908
bag2
(g329
g64
tp14909
Rp14910
(dp14911
bag2
(g374
g64
tp14912
Rp14913
(dp14914
bag2
(g692
g64
tp14915
Rp14916
(dp14917
bag2
(g992
g64
tp14918
Rp14919
(dp14920
bag2
(g1166
g64
tp14921
Rp14922
(dp14923
bag2
(g1325
g64
tp14924
Rp14925
(dp14926
bag2
(g5883
g64
tp14927
Rp14928
(dp14929
bag2
(g6249
g64
tp14930
Rp14931
(dp14932
bag2
(g6528
g64
tp14933
Rp14934
(dp14935
bag2
(g6996
g64
tp14936
Rp14937
(dp14938
bag2
(g8073
g64
tp14939
Rp14940
(dp14941
bag2
(g8274
g64
tp14942
Rp14943
(dp14944
bag2
(g8715
g64
tp14945
Rp14946
(dp14947
bag69
(g6342
g64
tp14948
Rp14949
(dp14950
ba(lp14951
g69
(g5976
g64
tp14952
Rp14953
(dp14954
batp14955
a((lp14956
g2
(g14700
g64
tp14957
Rp14958
(dp14959
bag2
(g13794
g64
tp14960
Rp14961
(dp14962
bag2
(g12927
g64
tp14963
Rp14964
(dp14965
bag2
(g12318
g64
tp14966
Rp14967
(dp14968
bag2
(g11949
g64
tp14969
Rp14970
(dp14971
bag2
(g11460
g64
tp14972
Rp14973
(dp14974
bag2
(g1853
g64
tp14975
Rp14976
(dp14977
bag69
(g2115
g64
tp14978
Rp14979
(dp14980
bag2
(g3840
g64
tp14981
Rp14982
(dp14983
bag2
(g3507
g64
tp14984
Rp14985
(dp14986
bag2
(g3360
g64
tp14987
Rp14988
(dp14989
bag2
(g2580
g64
tp14990
Rp14991
(dp14992
bag2
(g2247
g64
tp14993
Rp14994
(dp14995
bag2
(g2049
g64
tp14996
Rp14997
(dp14998
bag2
(g1787
g64
tp14999
Rp15000
(dp15001
bag69
(g55
g64
tp15002
Rp15003
(dp15004
bag2
(g233
g64
tp15005
Rp15006
(dp15007
bag69
(g203
g64
tp15008
Rp15009
(dp15010
bag2
(g164
g64
tp15011
Rp15012
(dp15013
bag2
(g137
g64
tp15014
Rp15015
(dp15016
bag69
(g122
g64
tp15017
Rp15018
(dp15019
bag69
(g13
g64
tp15020
Rp15021
(dp15022
bag69
(g113
g64
tp15023
Rp15024
(dp15025
bag2
(g104
g64
tp15026
Rp15027
(dp15028
bag2
(g251
g64
tp15029
Rp15030
(dp15031
bag2
(g61
g64
tp15032
Rp15033
(dp15034
bag2
(g329
g64
tp15035
Rp15036
(dp15037
bag2
(g374
g64
tp15038
Rp15039
(dp15040
bag2
(g692
g64
tp15041
Rp15042
(dp15043
bag2
(g992
g64
tp15044
Rp15045
(dp15046
bag2
(g1166
g64
tp15047
Rp15048
(dp15049
bag2
(g1325
g64
tp15050
Rp15051
(dp15052
bag2
(g5883
g64
tp15053
Rp15054
(dp15055
bag2
(g6249
g64
tp15056
Rp15057
(dp15058
bag2
(g6528
g64
tp15059
Rp15060
(dp15061
bag2
(g6996
g64
tp15062
Rp15063
(dp15064
bag2
(g8073
g64
tp15065
Rp15066
(dp15067
bag2
(g8274
g64
tp15068
Rp15069
(dp15070
bag2
(g8715
g64
tp15071
Rp15072
(dp15073
bag69
(g6342
g64
tp15074
Rp15075
(dp15076
ba(lp15077
g69
(g5976
g64
tp15078
Rp15079
(dp15080
batp15081
a((lp15082
g2
(g11949
g64
tp15083
Rp15084
(dp15085
bag2
(g14700
g64
tp15086
Rp15087
(dp15088
bag2
(g13794
g64
tp15089
Rp15090
(dp15091
bag2
(g12927
g64
tp15092
Rp15093
(dp15094
bag2
(g12318
g64
tp15095
Rp15096
(dp15097
bag2
(g11949
g64
tp15098
Rp15099
(dp15100
bag2
(g11460
g64
tp15101
Rp15102
(dp15103
bag2
(g1853
g64
tp15104
Rp15105
(dp15106
bag69
(g2115
g64
tp15107
Rp15108
(dp15109
bag2
(g3840
g64
tp15110
Rp15111
(dp15112
bag2
(g3507
g64
tp15113
Rp15114
(dp15115
bag2
(g3360
g64
tp15116
Rp15117
(dp15118
bag2
(g2580
g64
tp15119
Rp15120
(dp15121
bag2
(g2247
g64
tp15122
Rp15123
(dp15124
bag2
(g2049
g64
tp15125
Rp15126
(dp15127
bag2
(g1787
g64
tp15128
Rp15129
(dp15130
bag69
(g55
g64
tp15131
Rp15132
(dp15133
bag2
(g233
g64
tp15134
Rp15135
(dp15136
bag69
(g203
g64
tp15137
Rp15138
(dp15139
bag2
(g164
g64
tp15140
Rp15141
(dp15142
bag2
(g137
g64
tp15143
Rp15144
(dp15145
bag69
(g122
g64
tp15146
Rp15147
(dp15148
bag69
(g13
g64
tp15149
Rp15150
(dp15151
bag69
(g113
g64
tp15152
Rp15153
(dp15154
bag2
(g104
g64
tp15155
Rp15156
(dp15157
bag2
(g251
g64
tp15158
Rp15159
(dp15160
bag2
(g61
g64
tp15161
Rp15162
(dp15163
bag2
(g329
g64
tp15164
Rp15165
(dp15166
bag2
(g374
g64
tp15167
Rp15168
(dp15169
bag2
(g692
g64
tp15170
Rp15171
(dp15172
bag2
(g992
g64
tp15173
Rp15174
(dp15175
bag2
(g1166
g64
tp15176
Rp15177
(dp15178
bag2
(g1325
g64
tp15179
Rp15180
(dp15181
bag2
(g5883
g64
tp15182
Rp15183
(dp15184
bag2
(g6249
g64
tp15185
Rp15186
(dp15187
bag2
(g6528
g64
tp15188
Rp15189
(dp15190
bag2
(g6996
g64
tp15191
Rp15192
(dp15193
bag2
(g8073
g64
tp15194
Rp15195
(dp15196
bag2
(g8274
g64
tp15197
Rp15198
(dp15199
bag2
(g8715
g64
tp15200
Rp15201
(dp15202
bag69
(g6342
g64
tp15203
Rp15204
(dp15205
ba(lp15206
g69
(g5976
g64
tp15207
Rp15208
(dp15209
batp15210
a((lp15211
g2
(g1166
g64
tp15212
Rp15213
(dp15214
bag2
(g14700
g64
tp15215
Rp15216
(dp15217
bag2
(g13794
g64
tp15218
Rp15219
(dp15220
bag2
(g12927
g64
tp15221
Rp15222
(dp15223
bag2
(g12318
g64
tp15224
Rp15225
(dp15226
bag2
(g11949
g64
tp15227
Rp15228
(dp15229
bag2
(g11460
g64
tp15230
Rp15231
(dp15232
bag2
(g1853
g64
tp15233
Rp15234
(dp15235
bag69
(g2115
g64
tp15236
Rp15237
(dp15238
bag2
(g3840
g64
tp15239
Rp15240
(dp15241
bag2
(g3507
g64
tp15242
Rp15243
(dp15244
bag2
(g3360
g64
tp15245
Rp15246
(dp15247
bag2
(g2580
g64
tp15248
Rp15249
(dp15250
bag2
(g2247
g64
tp15251
Rp15252
(dp15253
bag2
(g2049
g64
tp15254
Rp15255
(dp15256
bag2
(g1787
g64
tp15257
Rp15258
(dp15259
bag69
(g55
g64
tp15260
Rp15261
(dp15262
bag2
(g233
g64
tp15263
Rp15264
(dp15265
bag69
(g203
g64
tp15266
Rp15267
(dp15268
bag2
(g164
g64
tp15269
Rp15270
(dp15271
bag2
(g137
g64
tp15272
Rp15273
(dp15274
bag69
(g122
g64
tp15275
Rp15276
(dp15277
bag69
(g13
g64
tp15278
Rp15279
(dp15280
bag69
(g113
g64
tp15281
Rp15282
(dp15283
bag2
(g104
g64
tp15284
Rp15285
(dp15286
bag2
(g251
g64
tp15287
Rp15288
(dp15289
bag2
(g61
g64
tp15290
Rp15291
(dp15292
bag2
(g329
g64
tp15293
Rp15294
(dp15295
bag2
(g374
g64
tp15296
Rp15297
(dp15298
bag2
(g692
g64
tp15299
Rp15300
(dp15301
bag2
(g992
g64
tp15302
Rp15303
(dp15304
bag2
(g1166
g64
tp15305
Rp15306
(dp15307
bag2
(g1325
g64
tp15308
Rp15309
(dp15310
bag2
(g5883
g64
tp15311
Rp15312
(dp15313
bag2
(g6249
g64
tp15314
Rp15315
(dp15316
bag2
(g6528
g64
tp15317
Rp15318
(dp15319
bag2
(g6996
g64
tp15320
Rp15321
(dp15322
bag2
(g8073
g64
tp15323
Rp15324
(dp15325
bag2
(g8274
g64
tp15326
Rp15327
(dp15328
bag2
(g8715
g64
tp15329
Rp15330
(dp15331
bag69
(g6342
g64
tp15332
Rp15333
(dp15334
ba(lp15335
g69
(g5976
g64
tp15336
Rp15337
(dp15338
batp15339
a((lp15340
g2
(g3
(g4
(g5
(I-19621
I6336
tp15341
Rp15342
(dp15343
bg9
(g13
g10980
tp15344
Rp15345
(dp15346
btp15347
Rp15348
(dp15349
bg4
(g5
(I62
I105
tp15350
Rp15351
(dp15352
bg191
tp15353
Rp15354
(dp15355
bg4
(g5
(I315
I1408
tp15356
Rp15357
(dp15358
bg9
(g13
g38
(I18
tp15359
Rp15360
(dp15361
btp15362
Rp15363
(dp15364
btp15365
Rp15366
(dp15367
bg8694
g4
(g5
(I29
I3465
tp15368
Rp15369
(dp15370
bg1301
tp15371
Rp15372
(dp15373
bg4
(g5
(I50299
I5544
tp15374
Rp15375
(dp15376
bg8685
tp15377
Rp15378
(dp15379
bg4
(g5
(I-36941
I5544
tp15380
Rp15381
(dp15382
bg3810
tp15383
Rp15384
(dp15385
bg3837
tp15386
Rp15387
(dp15388
bg64
tp15389
Rp15390
(dp15391
bag69
(g1241
g64
tp15392
Rp15393
(dp15394
bag2
(g14700
g64
tp15395
Rp15396
(dp15397
bag2
(g13794
g64
tp15398
Rp15399
(dp15400
bag2
(g12927
g64
tp15401
Rp15402
(dp15403
bag2
(g12318
g64
tp15404
Rp15405
(dp15406
bag2
(g11949
g64
tp15407
Rp15408
(dp15409
bag2
(g11460
g64
tp15410
Rp15411
(dp15412
bag2
(g1853
g64
tp15413
Rp15414
(dp15415
bag69
(g2115
g64
tp15416
Rp15417
(dp15418
bag2
(g3840
g64
tp15419
Rp15420
(dp15421
bag2
(g3507
g64
tp15422
Rp15423
(dp15424
bag2
(g3360
g64
tp15425
Rp15426
(dp15427
bag2
(g2580
g64
tp15428
Rp15429
(dp15430
bag2
(g2247
g64
tp15431
Rp15432
(dp15433
bag2
(g2049
g64
tp15434
Rp15435
(dp15436
bag2
(g1787
g64
tp15437
Rp15438
(dp15439
bag69
(g55
g64
tp15440
Rp15441
(dp15442
bag2
(g233
g64
tp15443
Rp15444
(dp15445
bag69
(g203
g64
tp15446
Rp15447
(dp15448
bag2
(g164
g64
tp15449
Rp15450
(dp15451
bag2
(g137
g64
tp15452
Rp15453
(dp15454
bag69
(g122
g64
tp15455
Rp15456
(dp15457
bag69
(g13
g64
tp15458
Rp15459
(dp15460
bag69
(g113
g64
tp15461
Rp15462
(dp15463
bag2
(g104
g64
tp15464
Rp15465
(dp15466
bag2
(g251
g64
tp15467
Rp15468
(dp15469
bag2
(g61
g64
tp15470
Rp15471
(dp15472
bag2
(g329
g64
tp15473
Rp15474
(dp15475
bag2
(g374
g64
tp15476
Rp15477
(dp15478
bag2
(g692
g64
tp15479
Rp15480
(dp15481
bag2
(g992
g64
tp15482
Rp15483
(dp15484
bag2
(g1166
g64
tp15485
Rp15486
(dp15487
bag2
(g1325
g64
tp15488
Rp15489
(dp15490
bag2
(g5883
g64
tp15491
Rp15492
(dp15493
bag2
(g6249
g64
tp15494
Rp15495
(dp15496
bag2
(g6528
g64
tp15497
Rp15498
(dp15499
bag2
(g6996
g64
tp15500
Rp15501
(dp15502
bag2
(g8073
g64
tp15503
Rp15504
(dp15505
bag2
(g8274
g64
tp15506
Rp15507
(dp15508
bag2
(g8715
g64
tp15509
Rp15510
(dp15511
bag69
(g6342
g64
tp15512
Rp15513
(dp15514
ba(lp15515
g69
(g5976
g64
tp15516
Rp15517
(dp15518
batp15519
a.