(lp0
((lp1
csympy.core.relational
LessThan
p2
(csympy.core.add
Add
p3
(csympy.core.numbers
Integer
p4
(I-2
tp5
Rp6
(dp7
bcsympy.core.power
Pow
p8
(csympy.core.symbol
Symbol
p9
(S'x'
p10
tp11
Rp12
(dp13
S'_assumptions'
p14
ccopy_reg
_reconstructor
p15
(csympy.core.assumptions
StdFactKB
p16
c__builtin__
dict
p17
(dp18
S'real'
p19
NsS'irrational'
p20
NsS'antihermitian'
p21
NsS'nonpositive'
p22
NsS'negative'
p23
NsS'hermitian'
p24
NsS'bounded'
p25
NsS'integer'
p26
NsS'imaginary'
p27
NsS'odd'
p28
NsS'even'
p29
NsS'commutative'
p30
I01
sS'positive'
p31
NsS'zero'
p32
NsS'nonnegative'
p33
NsS'rational'
p34
Nstp35
Rp36
sbg4
(I4
tp37
Rp38
(dp39
btp40
Rp41
(dp42
bcsympy.core.mul
Mul
p43
(g6
g8
(g12
g4
(I5
tp44
Rp45
(dp46
btp47
Rp48
(dp49
btp50
Rp51
(dp52
bg8
(g12
g4
(I6
tp53
Rp54
(dp55
btp56
Rp57
(dp58
btp59
Rp60
(dp61
bcsympy.core.numbers
Zero
p62
(tRp63
(dp64
btp65
Rp66
(dp67
bag2
(g3
(g8
(g12
g4
(I2
tp68
Rp69
(dp70
btp71
Rp72
(dp73
bg43
(csympy.core.numbers
NegativeOne
p74
(tRp75
(dp76
bg12
tp77
Rp78
(dp79
btp80
Rp81
(dp82
bg63
tp83
Rp84
(dp85
bag2
(g43
(g75
g72
tp86
Rp87
(dp88
bg63
tp89
Rp90
(dp91
bag2
(g3
(g72
g43
(g69
g57
tp92
Rp93
(dp94
bg43
(g75
g8
(g12
g4
(I7
tp95
Rp96
(dp97
btp98
Rp99
(dp100
btp101
Rp102
(dp103
bg43
(g75
g48
tp104
Rp105
(dp106
btp107
Rp108
(dp109
bg63
tp110
Rp111
(dp112
bag2
(g78
g63
tp113
Rp114
(dp115
bacsympy.core.relational
StrictGreaterThan
p116
(g72
g63
tp117
Rp118
(dp119
bag116
(g3
(g72
g43
(g75
g8
(g12
g4
(I3
tp120
Rp121
(dp122
btp123
Rp124
(dp125
btp126
Rp127
(dp128
btp129
Rp130
(dp131
bg63
tp132
Rp133
(dp134
bag116
(g3
(csympy.core.numbers
Rational
p135
(I-15707963
I5000000
tp136
Rp137
(dp138
bg12
tp139
Rp140
(dp141
bg63
tp142
Rp143
(dp144
bag116
(g3
(g135
(I31415927
I10000000
tp145
Rp146
(dp147
bg78
tp148
Rp149
(dp150
bg63
tp151
Rp152
(dp153
bag2
(g3
(g75
g12
tp154
Rp155
(dp156
bg63
tp157
Rp158
(dp159
ba(lp160
g2
(g12
g63
tp161
Rp162
(dp163
batp164
a((lp165
g2
(g3
(g43
(g75
g8
(g12
g4
(I8
tp166
Rp167
(dp168
btp169
Rp170
(dp171
btp172
Rp173
(dp174
bg57
g99
g43
(g69
g72
tp175
Rp176
(dp177
bg105
tp178
Rp179
(dp180
bg63
tp181
Rp182
(dp183
bag116
(g3
(g69
g43
(g75
g41
tp184
Rp185
(dp186
bg43
(g69
g48
tp187
Rp188
(dp189
bg43
(g75
g57
tp190
Rp191
(dp192
btp193
Rp194
(dp195
bg63
tp196
Rp197
(dp198
bag2
(g81
g63
tp199
Rp200
(dp201
bag2
(g87
g63
tp202
Rp203
(dp204
bag2
(g108
g63
tp205
Rp206
(dp207
bag2
(g78
g63
tp208
Rp209
(dp210
bag116
(g72
g63
tp211
Rp212
(dp213
bag116
(g130
g63
tp214
Rp215
(dp216
bag116
(g140
g63
tp217
Rp218
(dp219
bag116
(g149
g63
tp220
Rp221
(dp222
bag2
(g155
g63
tp223
Rp224
(dp225
ba(lp226
g2
(g12
g63
tp227
Rp228
(dp229
batp230
a.