(lp0
((lp1
csympy.core.relational
LessThan
p2
(csympy.core.mul
Mul
p3
(csympy.core.numbers
NegativeOne
p4
(tRp5
(dp6
bcsympy.core.power
Pow
p7
(csympy.core.symbol
Symbol
p8
(S'x'
p9
tp10
Rp11
(dp12
S'_assumptions'
p13
ccopy_reg
_reconstructor
p14
(csympy.core.assumptions
StdFactKB
p15
c__builtin__
dict
p16
(dp17
S'real'
p18
NsS'irrational'
p19
NsS'antihermitian'
p20
NsS'nonpositive'
p21
NsS'unbounded'
p22
NsS'negative'
p23
NsS'hermitian'
p24
NsS'bounded'
p25
NsS'integer'
p26
NsS'imaginary'
p27
NsS'odd'
p28
NsS'even'
p29
NsS'commutative'
p30
I01
sS'positive'
p31
NsS'zero'
p32
NsS'nonnegative'
p33
NsS'rational'
p34
Nstp35
Rp36
sbcsympy.core.numbers
Integer
p37
(I2
tp38
Rp39
(dp40
btp41
Rp42
(dp43
btp44
Rp45
(dp46
bcsympy.core.numbers
Zero
p47
(tRp48
(dp49
btp50
Rp51
(dp52
bag2
(csympy.core.add
Add
p53
(g42
g3
(csympy.core.numbers
Rational
p54
(I1
I10
tp55
Rp56
(dp57
bg7
(g11
g37
(I3
tp58
Rp59
(dp60
btp61
Rp62
(dp63
btp64
Rp65
(dp66
btp67
Rp68
(dp69
bg48
tp70
Rp71
(dp72
bag2
(g42
g48
tp73
Rp74
(dp75
bacsympy.core.relational
StrictGreaterThan
p76
(g11
g48
tp77
Rp78
(dp79
bag76
(g11
g48
tp80
Rp81
(dp82
bacsympy.core.relational
Equality
p83
(g53
(g3
(g37
(I-4
tp84
Rp85
(dp86
bg7
(g11
g37
(I4
tp87
Rp88
(dp89
btp90
Rp91
(dp92
btp93
Rp94
(dp95
bg42
tp96
Rp97
(dp98
bg48
tp99
Rp100
(dp101
bag2
(g3
(g5
g11
tp102
Rp103
(dp104
bg48
tp105
Rp106
(dp107
bacsympy.core.relational
Unequality
p108
(g11
g48
tp109
Rp110
(dp111
bag76
(g11
g48
tp112
Rp113
(dp114
bag76
(g53
(g39
g103
tp115
Rp116
(dp117
bg48
tp118
Rp119
(dp120
ba(lp121
csympy.logic.boolalg
BooleanTrue
p122
(tRp123
(dp124
batp125
a((lp126
g2
(g45
g48
tp127
Rp128
(dp129
bag76
(g11
g48
tp130
Rp131
(dp132
bag108
(g11
g48
tp133
Rp134
(dp135
bag2
(g103
g48
tp136
Rp137
(dp138
bag76
(g11
g48
tp139
Rp140
(dp141
bag83
(g97
g48
tp142
Rp143
(dp144
bag2
(g103
g48
tp145
Rp146
(dp147
bag108
(g11
g48
tp148
Rp149
(dp150
bag76
(g11
g48
tp151
Rp152
(dp153
bag76
(g116
g48
tp154
Rp155
(dp156
ba(lp157
g123
atp158
a((lp159
g2
(g11
g48
tp160
Rp161
(dp162
bag76
(g45
g48
tp163
Rp164
(dp165
bag108
(g11
g48
tp166
Rp167
(dp168
bag2
(g103
g48
tp169
Rp170
(dp171
bag76
(g11
g48
tp172
Rp173
(dp174
bag83
(g97
g48
tp175
Rp176
(dp177
bag2
(g103
g48
tp178
Rp179
(dp180
bag108
(g11
g48
tp181
Rp182
(dp183
bag76
(g11
g48
tp184
Rp185
(dp186
bag76
(g116
g48
tp187
Rp188
(dp189
ba(lp190
g123
atp191
a((lp192
g2
(g45
g48
tp193
Rp194
(dp195
bag76
(g42
g48
tp196
Rp197
(dp198
bag76
(g11
g48
tp199
Rp200
(dp201
bag2
(g103
g48
tp202
Rp203
(dp204
bag76
(g11
g48
tp205
Rp206
(dp207
bag83
(g97
g48
tp208
Rp209
(dp210
bag2
(g103
g48
tp211
Rp212
(dp213
bag108
(g11
g48
tp214
Rp215
(dp216
bag76
(g11
g48
tp217
Rp218
(dp219
bag76
(g116
g48
tp220
Rp221
(dp222
ba(lp223
g123
atp224
a((lp225
g2
(g3
(g56
g62
tp226
Rp227
(dp228
bg48
tp229
Rp230
(dp231
bag76
(g42
g48
tp232
Rp233
(dp234
bag76
(g11
g48
tp235
Rp236
(dp237
bag108
(g11
g48
tp238
Rp239
(dp240
bag2
(g103
g48
tp241
Rp242
(dp243
bag76
(g11
g48
tp244
Rp245
(dp246
bag83
(g97
g48
tp247
Rp248
(dp249
bag2
(g103
g48
tp250
Rp251
(dp252
bag108
(g11
g48
tp253
Rp254
(dp255
bag76
(g11
g48
tp256
Rp257
(dp258
bag76
(g116
g48
tp259
Rp260
(dp261
ba(lp262
g123
atp263
a((lp264
g2
(g42
g48
tp265
Rp266
(dp267
bag76
(g11
g48
tp268
Rp269
(dp270
bag108
(g11
g48
tp271
Rp272
(dp273
bag2
(g103
g48
tp274
Rp275
(dp276
bag76
(g11
g48
tp277
Rp278
(dp279
bag83
(g97
g48
tp280
Rp281
(dp282
bag2
(g103
g48
tp283
Rp284
(dp285
bag108
(g11
g48
tp286
Rp287
(dp288
bag76
(g11
g48
tp289
Rp290
(dp291
bag76
(g116
g48
tp292
Rp293
(dp294
ba(lp295
g123
atp296
a((lp297
g2
(g45
g48
tp298
Rp299
(dp300
bag2
(g68
g48
tp301
Rp302
(dp303
bag2
(g42
g48
tp304
Rp305
(dp306
bag76
(g103
g48
tp307
Rp308
(dp309
bag2
(g103
g48
tp310
Rp311
(dp312
bag76
(g11
g48
tp313
Rp314
(dp315
bag83
(g97
g48
tp316
Rp317
(dp318
bag2
(g103
g48
tp319
Rp320
(dp321
bag108
(g11
g48
tp322
Rp323
(dp324
bag76
(g11
g48
tp325
Rp326
(dp327
bag76
(g116
g48
tp328
Rp329
(dp330
ba(lp331
g123
atp332
a((lp333
g2
(g42
g48
tp334
Rp335
(dp336
bag76
(g103
g48
tp337
Rp338
(dp339
bag76
(g45
g48
tp340
Rp341
(dp342
bag2
(g103
g48
tp343
Rp344
(dp345
bag76
(g11
g48
tp346
Rp347
(dp348
bag83
(g97
g48
tp349
Rp350
(dp351
bag2
(g103
g48
tp352
Rp353
(dp354
bag108
(g11
g48
tp355
Rp356
(dp357
bag76
(g11
g48
tp358
Rp359
(dp360
bag76
(g116
g48
tp361
Rp362
(dp363
ba(lp364
g123
atp365
a((lp366
g2
(g11
g48
tp367
Rp368
(dp369
bag76
(g103
g48
tp370
Rp371
(dp372
bag76
(g45
g48
tp373
Rp374
(dp375
bag2
(g103
g48
tp376
Rp377
(dp378
bag76
(g11
g48
tp379
Rp380
(dp381
bag83
(g97
g48
tp382
Rp383
(dp384
bag2
(g103
g48
tp385
Rp386
(dp387
bag108
(g11
g48
tp388
Rp389
(dp390
bag76
(g11
g48
tp391
Rp392
(dp393
bag76
(g116
g48
tp394
Rp395
(dp396
ba(lp397
g123
atp398
a((lp399
g2
(g42
g48
tp400
Rp401
(dp402
bag76
(g103
g48
tp403
Rp404
(dp405
bag76
(g11
g48
tp406
Rp407
(dp408
bag2
(g103
g48
tp409
Rp410
(dp411
bag76
(g11
g48
tp412
Rp413
(dp414
bag83
(g97
g48
tp415
Rp416
(dp417
bag2
(g103
g48
tp418
Rp419
(dp420
bag108
(g11
g48
tp421
Rp422
(dp423
bag76
(g11
g48
tp424
Rp425
(dp426
bag76
(g116
g48
tp427
Rp428
(dp429
ba(lp430
g123
atp431
a((lp432
g2
(g103
g48
tp433
Rp434
(dp435
bag76
(g42
g48
tp436
Rp437
(dp438
bag76
(g11
g48
tp439
Rp440
(dp441
bag2
(g103
g48
tp442
Rp443
(dp444
bag76
(g11
g48
tp445
Rp446
(dp447
bag83
(g97
g48
tp448
Rp449
(dp450
bag2
(g103
g48
tp451
Rp452
(dp453
bag108
(g11
g48
tp454
Rp455
(dp456
bag76
(g11
g48
tp457
Rp458
(dp459
bag76
(g116
g48
tp460
Rp461
(dp462
ba(lp463
g123
atp464
a((lp465
g2
(g103
g48
tp466
Rp467
(dp468
bag108
(g11
g48
tp469
Rp470
(dp471
bag76
(g11
g48
tp472
Rp473
(dp474
bag2
(g103
g48
tp475
Rp476
(dp477
bag76
(g11
g48
tp478
Rp479
(dp480
bag83
(g97
g48
tp481
Rp482
(dp483
bag2
(g103
g48
tp484
Rp485
(dp486
bag108
(g11
g48
tp487
Rp488
(dp489
bag76
(g11
g48
tp490
Rp491
(dp492
bag76
(g116
g48
tp493
Rp494
(dp495
ba(lp496
g123
atp497
a((lp498
g83
(g11
g48
tp499
Rp500
(dp501
bag76
(g103
g48
tp502
Rp503
(dp504
bag76
(g11
g48
tp505
Rp506
(dp507
bag2
(g103
g48
tp508
Rp509
(dp510
bag76
(g11
g48
tp511
Rp512
(dp513
bag83
(g97
g48
tp514
Rp515
(dp516
bag2
(g103
g48
tp517
Rp518
(dp519
bag108
(g11
g48
tp520
Rp521
(dp522
bag76
(g11
g48
tp523
Rp524
(dp525
bag76
(g116
g48
tp526
Rp527
(dp528
ba(lp529
g123
atp530
a((lp531
g2
(g42
g48
tp532
Rp533
(dp534
bag76
(g103
g48
tp535
Rp536
(dp537
bag108
(g11
g48
tp538
Rp539
(dp540
bag76
(g11
g48
tp541
Rp542
(dp543
bag2
(g103
g48
tp544
Rp545
(dp546
bag76
(g11
g48
tp547
Rp548
(dp549
bag83
(g97
g48
tp550
Rp551
(dp552
bag2
(g103
g48
tp553
Rp554
(dp555
bag108
(g11
g48
tp556
Rp557
(dp558
bag76
(g11
g48
tp559
Rp560
(dp561
bag76
(g116
g48
tp562
Rp563
(dp564
ba(lp565
g123
atp566
a((lp567
g2
(g103
g48
tp568
Rp569
(dp570
bag76
(g42
g48
tp571
Rp572
(dp573
bag108
(g11
g48
tp574
Rp575
(dp576
bag76
(g11
g48
tp577
Rp578
(dp579
bag2
(g103
g48
tp580
Rp581
(dp582
bag76
(g11
g48
tp583
Rp584
(dp585
bag83
(g97
g48
tp586
Rp587
(dp588
bag2
(g103
g48
tp589
Rp590
(dp591
bag108
(g11
g48
tp592
Rp593
(dp594
bag76
(g11
g48
tp595
Rp596
(dp597
bag76
(g116
g48
tp598
Rp599
(dp600
ba(lp601
g123
atp602
a((lp603
g2
(g227
g48
tp604
Rp605
(dp606
bag76
(g103
g48
tp607
Rp608
(dp609
bag76
(g45
g48
tp610
Rp611
(dp612
bag108
(g11
g48
tp613
Rp614
(dp615
bag76
(g11
g48
tp616
Rp617
(dp618
bag2
(g103
g48
tp619
Rp620
(dp621
bag76
(g11
g48
tp622
Rp623
(dp624
bag83
(g97
g48
tp625
Rp626
(dp627
bag2
(g103
g48
tp628
Rp629
(dp630
bag108
(g11
g48
tp631
Rp632
(dp633
bag76
(g11
g48
tp634
Rp635
(dp636
bag76
(g116
g48
tp637
Rp638
(dp639
ba(lp640
g123
atp641
a((lp642
g2
(g45
g48
tp643
Rp644
(dp645
bag76
(g103
g48
tp646
Rp647
(dp648
bag108
(g11
g48
tp649
Rp650
(dp651
bag76
(g11
g48
tp652
Rp653
(dp654
bag2
(g103
g48
tp655
Rp656
(dp657
bag76
(g11
g48
tp658
Rp659
(dp660
bag83
(g97
g48
tp661
Rp662
(dp663
bag2
(g103
g48
tp664
Rp665
(dp666
bag108
(g11
g48
tp667
Rp668
(dp669
bag76
(g11
g48
tp670
Rp671
(dp672
bag76
(g116
g48
tp673
Rp674
(dp675
ba(lp676
g123
atp677
a((lp678
g76
(g103
g48
tp679
Rp680
(dp681
bag76
(g11
g48
tp682
Rp683
(dp684
bag76
(g11
g48
tp685
Rp686
(dp687
bag2
(g103
g48
tp688
Rp689
(dp690
bag76
(g11
g48
tp691
Rp692
(dp693
bag83
(g97
g48
tp694
Rp695
(dp696
bag2
(g103
g48
tp697
Rp698
(dp699
bag108
(g11
g48
tp700
Rp701
(dp702
bag76
(g11
g48
tp703
Rp704
(dp705
bag76
(g116
g48
tp706
Rp707
(dp708
ba(lp709
g123
atp710
a((lp711
g2
(g42
g48
tp712
Rp713
(dp714
bag2
(g11
g48
tp715
Rp716
(dp717
bag76
(g103
g48
tp718
Rp719
(dp720
bag76
(g11
g48
tp721
Rp722
(dp723
bag2
(g103
g48
tp724
Rp725
(dp726
bag76
(g11
g48
tp727
Rp728
(dp729
bag83
(g97
g48
tp730
Rp731
(dp732
bag2
(g103
g48
tp733
Rp734
(dp735
bag108
(g11
g48
tp736
Rp737
(dp738
bag76
(g11
g48
tp739
Rp740
(dp741
bag76
(g116
g48
tp742
Rp743
(dp744
ba(lp745
g123
atp746
a((lp747
g2
(g11
g48
tp748
Rp749
(dp750
bag108
(g11
g48
tp751
Rp752
(dp753
bag76
(g11
g48
tp754
Rp755
(dp756
bag2
(g103
g48
tp757
Rp758
(dp759
bag76
(g11
g48
tp760
Rp761
(dp762
bag83
(g97
g48
tp763
Rp764
(dp765
bag2
(g103
g48
tp766
Rp767
(dp768
bag108
(g11
g48
tp769
Rp770
(dp771
bag76
(g11
g48
tp772
Rp773
(dp774
bag76
(g116
g48
tp775
Rp776
(dp777
ba(lp778
g123
atp779
a((lp780
g83
(g11
g48
tp781
Rp782
(dp783
bag76
(g11
g48
tp784
Rp785
(dp786
bag76
(g11
g48
tp787
Rp788
(dp789
bag2
(g103
g48
tp790
Rp791
(dp792
bag76
(g11
g48
tp793
Rp794
(dp795
bag83
(g97
g48
tp796
Rp797
(dp798
bag2
(g103
g48
tp799
Rp800
(dp801
bag108
(g11
g48
tp802
Rp803
(dp804
bag76
(g11
g48
tp805
Rp806
(dp807
bag76
(g116
g48
tp808
Rp809
(dp810
ba(lp811
g123
atp812
a((lp813
g83
(g45
g48
tp814
Rp815
(dp816
bag76
(g103
g48
tp817
Rp818
(dp819
bag76
(g11
g48
tp820
Rp821
(dp822
bag2
(g103
g48
tp823
Rp824
(dp825
bag76
(g11
g48
tp826
Rp827
(dp828
bag83
(g97
g48
tp829
Rp830
(dp831
bag2
(g103
g48
tp832
Rp833
(dp834
bag108
(g11
g48
tp835
Rp836
(dp837
bag76
(g11
g48
tp838
Rp839
(dp840
bag76
(g116
g48
tp841
Rp842
(dp843
ba(lp844
g123
atp845
a((lp846
g2
(g45
g48
tp847
Rp848
(dp849
bag76
(g11
g48
tp850
Rp851
(dp852
bag108
(g45
g48
tp853
Rp854
(dp855
bag76
(g11
g48
tp856
Rp857
(dp858
bag2
(g103
g48
tp859
Rp860
(dp861
bag76
(g11
g48
tp862
Rp863
(dp864
bag83
(g97
g48
tp865
Rp866
(dp867
bag2
(g103
g48
tp868
Rp869
(dp870
bag108
(g11
g48
tp871
Rp872
(dp873
bag76
(g11
g48
tp874
Rp875
(dp876
bag76
(g116
g48
tp877
Rp878
(dp879
ba(lp880
g123
atp881
a((lp882
g2
(g11
g48
tp883
Rp884
(dp885
bag76
(g45
g48
tp886
Rp887
(dp888
bag76
(g11
g48
tp889
Rp890
(dp891
bag2
(g103
g48
tp892
Rp893
(dp894
bag76
(g11
g48
tp895
Rp896
(dp897
bag83
(g97
g48
tp898
Rp899
(dp900
bag2
(g103
g48
tp901
Rp902
(dp903
bag108
(g11
g48
tp904
Rp905
(dp906
bag76
(g11
g48
tp907
Rp908
(dp909
bag76
(g116
g48
tp910
Rp911
(dp912
ba(lp913
g123
atp914
a((lp915
g2
(g42
g48
tp916
Rp917
(dp918
bag76
(g103
g48
tp919
Rp920
(dp921
bag108
(g42
g48
tp922
Rp923
(dp924
bag76
(g11
g48
tp925
Rp926
(dp927
bag2
(g103
g48
tp928
Rp929
(dp930
bag76
(g11
g48
tp931
Rp932
(dp933
bag83
(g97
g48
tp934
Rp935
(dp936
bag2
(g103
g48
tp937
Rp938
(dp939
bag108
(g11
g48
tp940
Rp941
(dp942
bag76
(g11
g48
tp943
Rp944
(dp945
bag76
(g116
g48
tp946
Rp947
(dp948
ba(lp949
g123
atp950
a((lp951
g2
(g45
g48
tp952
Rp953
(dp954
bag76
(g11
g48
tp955
Rp956
(dp957
bag108
(g42
g48
tp958
Rp959
(dp960
bag76
(g11
g48
tp961
Rp962
(dp963
bag2
(g103
g48
tp964
Rp965
(dp966
bag76
(g11
g48
tp967
Rp968
(dp969
bag83
(g97
g48
tp970
Rp971
(dp972
bag2
(g103
g48
tp973
Rp974
(dp975
bag108
(g11
g48
tp976
Rp977
(dp978
bag76
(g11
g48
tp979
Rp980
(dp981
bag76
(g116
g48
tp982
Rp983
(dp984
ba(lp985
g123
atp986
a((lp987
g2
(g103
g48
tp988
Rp989
(dp990
bag76
(g103
g48
tp991
Rp992
(dp993
bag76
(g11
g48
tp994
Rp995
(dp996
bag2
(g103
g48
tp997
Rp998
(dp999
bag76
(g11
g48
tp1000
Rp1001
(dp1002
bag83
(g97
g48
tp1003
Rp1004
(dp1005
bag2
(g103
g48
tp1006
Rp1007
(dp1008
bag108
(g11
g48
tp1009
Rp1010
(dp1011
bag76
(g11
g48
tp1012
Rp1013
(dp1014
bag76
(g116
g48
tp1015
Rp1016
(dp1017
ba(lp1018
g123
atp1019
a((lp1020
g2
(g45
g48
tp1021
Rp1022
(dp1023
bag76
(g11
g48
tp1024
Rp1025
(dp1026
bag76
(g11
g48
tp1027
Rp1028
(dp1029
bag2
(g103
g48
tp1030
Rp1031
(dp1032
bag76
(g11
g48
tp1033
Rp1034
(dp1035
bag83
(g97
g48
tp1036
Rp1037
(dp1038
bag2
(g103
g48
tp1039
Rp1040
(dp1041
bag108
(g11
g48
tp1042
Rp1043
(dp1044
bag76
(g11
g48
tp1045
Rp1046
(dp1047
bag76
(g116
g48
tp1048
Rp1049
(dp1050
ba(lp1051
g123
atp1052
a((lp1053
g2
(g103
g48
tp1054
Rp1055
(dp1056
bag76
(g11
g48
tp1057
Rp1058
(dp1059
bag76
(g11
g48
tp1060
Rp1061
(dp1062
bag2
(g103
g48
tp1063
Rp1064
(dp1065
bag76
(g11
g48
tp1066
Rp1067
(dp1068
bag83
(g97
g48
tp1069
Rp1070
(dp1071
bag2
(g103
g48
tp1072
Rp1073
(dp1074
bag108
(g11
g48
tp1075
Rp1076
(dp1077
bag76
(g11
g48
tp1078
Rp1079
(dp1080
bag76
(g116
g48
tp1081
Rp1082
(dp1083
ba(lp1084
g123
atp1085
a((lp1086
g2
(g45
g48
tp1087
Rp1088
(dp1089
bag76
(g42
g48
tp1090
Rp1091
(dp1092
bag76
(g11
g48
tp1093
Rp1094
(dp1095
bag76
(g11
g48
tp1096
Rp1097
(dp1098
bag2
(g103
g48
tp1099
Rp1100
(dp1101
bag76
(g11
g48
tp1102
Rp1103
(dp1104
bag83
(g97
g48
tp1105
Rp1106
(dp1107
bag2
(g103
g48
tp1108
Rp1109
(dp1110
bag108
(g11
g48
tp1111
Rp1112
(dp1113
bag76
(g11
g48
tp1114
Rp1115
(dp1116
bag76
(g116
g48
tp1117
Rp1118
(dp1119
ba(lp1120
g123
atp1121
a((lp1122
g2
(g53
(g3
(g54
(I42921
I100000
tp1123
Rp1124
(dp1125
bg62
tp1126
Rp1127
(dp1128
bg3
(g56
g91
tp1129
Rp1130
(dp1131
btp1132
Rp1133
(dp1134
bg48
tp1135
Rp1136
(dp1137
bag76
(g103
g48
tp1138
Rp1139
(dp1140
bag76
(g11
g48
tp1141
Rp1142
(dp1143
bag2
(g103
g48
tp1144
Rp1145
(dp1146
bag76
(g11
g48
tp1147
Rp1148
(dp1149
bag83
(g97
g48
tp1150
Rp1151
(dp1152
bag2
(g103
g48
tp1153
Rp1154
(dp1155
bag108
(g11
g48
tp1156
Rp1157
(dp1158
bag76
(g11
g48
tp1159
Rp1160
(dp1161
bag76
(g116
g48
tp1162
Rp1163
(dp1164
ba(lp1165
g123
atp1166
a((lp1167
g2
(g103
g48
tp1168
Rp1169
(dp1170
bacsympy.logic.boolalg
BooleanFalse
p1171
(tRp1172
(dp1173
bag76
(g11
g48
tp1174
Rp1175
(dp1176
bag2
(g103
g48
tp1177
Rp1178
(dp1179
bag76
(g11
g48
tp1180
Rp1181
(dp1182
bag83
(g97
g48
tp1183
Rp1184
(dp1185
bag2
(g103
g48
tp1186
Rp1187
(dp1188
bag108
(g11
g48
tp1189
Rp1190
(dp1191
bag76
(g11
g48
tp1192
Rp1193
(dp1194
bag76
(g116
g48
tp1195
Rp1196
(dp1197
ba(lp1198
g123
atp1199
a((lp1200
g123
ag76
(g103
g48
tp1201
Rp1202
(dp1203
bag76
(g11
g48
tp1204
Rp1205
(dp1206
bag2
(g103
g48
tp1207
Rp1208
(dp1209
bag76
(g11
g48
tp1210
Rp1211
(dp1212
bag83
(g97
g48
tp1213
Rp1214
(dp1215
bag2
(g103
g48
tp1216
Rp1217
(dp1218
bag108
(g11
g48
tp1219
Rp1220
(dp1221
bag76
(g11
g48
tp1222
Rp1223
(dp1224
bag76
(g116
g48
tp1225
Rp1226
(dp1227
ba(lp1228
g123
atp1229
a((lp1230
g2
(g103
g48
tp1231
Rp1232
(dp1233
bag1172
ag76
(g11
g48
tp1234
Rp1235
(dp1236
bag76
(g11
g48
tp1237
Rp1238
(dp1239
bag2
(g103
g48
tp1240
Rp1241
(dp1242
bag76
(g11
g48
tp1243
Rp1244
(dp1245
bag83
(g97
g48
tp1246
Rp1247
(dp1248
bag2
(g103
g48
tp1249
Rp1250
(dp1251
bag108
(g11
g48
tp1252
Rp1253
(dp1254
bag76
(g11
g48
tp1255
Rp1256
(dp1257
bag76
(g116
g48
tp1258
Rp1259
(dp1260
ba(lp1261
g123
atp1262
a((lp1263
g2
(g103
g48
tp1264
Rp1265
(dp1266
bag2
(g103
g48
tp1267
Rp1268
(dp1269
bag76
(g11
g48
tp1270
Rp1271
(dp1272
bag2
(g103
g48
tp1273
Rp1274
(dp1275
bag76
(g11
g48
tp1276
Rp1277
(dp1278
bag83
(g97
g48
tp1279
Rp1280
(dp1281
bag2
(g103
g48
tp1282
Rp1283
(dp1284
bag108
(g11
g48
tp1285
Rp1286
(dp1287
bag76
(g11
g48
tp1288
Rp1289
(dp1290
bag76
(g116
g48
tp1291
Rp1292
(dp1293
ba(lp1294
g123
atp1295
a((lp1296
g2
(g103
g48
tp1297
Rp1298
(dp1299
bag1172
ag2
(g103
g48
tp1300
Rp1301
(dp1302
bag76
(g11
g48
tp1303
Rp1304
(dp1305
bag2
(g103
g48
tp1306
Rp1307
(dp1308
bag76
(g11
g48
tp1309
Rp1310
(dp1311
bag83
(g97
g48
tp1312
Rp1313
(dp1314
bag2
(g103
g48
tp1315
Rp1316
(dp1317
bag108
(g11
g48
tp1318
Rp1319
(dp1320
bag76
(g11
g48
tp1321
Rp1322
(dp1323
bag76
(g116
g48
tp1324
Rp1325
(dp1326
ba(lp1327
g123
atp1328
a((lp1329
g123
ag76
(g103
g48
tp1330
Rp1331
(dp1332
bag2
(g103
g48
tp1333
Rp1334
(dp1335
bag76
(g11
g48
tp1336
Rp1337
(dp1338
bag2
(g103
g48
tp1339
Rp1340
(dp1341
bag76
(g11
g48
tp1342
Rp1343
(dp1344
bag83
(g97
g48
tp1345
Rp1346
(dp1347
bag2
(g103
g48
tp1348
Rp1349
(dp1350
bag108
(g11
g48
tp1351
Rp1352
(dp1353
bag76
(g11
g48
tp1354
Rp1355
(dp1356
bag76
(g116
g48
tp1357
Rp1358
(dp1359
ba(lp1360
g123
atp1361
a.