(lp0
((lp1
csympy.core.relational
LessThan
p2
(csympy.core.add
Add
p3
(csympy.core.mul
Mul
p4
(csympy.core.numbers
Integer
p5
(I-8
tp6
Rp7
(dp8
bcsympy.core.power
Pow
p9
(csympy.core.symbol
Symbol
p10
(S'x'
p11
tp12
Rp13
(dp14
S'_assumptions'
p15
ccopy_reg
_reconstructor
p16
(csympy.core.assumptions
StdFactKB
p17
c__builtin__
dict
p18
(dp19
S'real'
p20
NsS'irrational'
p21
NsS'antihermitian'
p22
NsS'nonpositive'
p23
NsS'unbounded'
p24
NsS'negative'
p25
NsS'hermitian'
p26
NsS'bounded'
p27
NsS'integer'
p28
NsS'imaginary'
p29
NsS'odd'
p30
NsS'even'
p31
NsS'commutative'
p32
I01
sS'positive'
p33
NsS'zero'
p34
NsS'nonnegative'
p35
NsS'rational'
p36
Nstp37
Rp38
sbg5
(I4
tp39
Rp40
(dp41
btp42
Rp43
(dp44
btp45
Rp46
(dp47
bg4
(g5
(I-12
tp48
Rp49
(dp50
bg9
(g13
g5
(I2
tp51
Rp52
(dp53
btp54
Rp55
(dp56
btp57
Rp58
(dp59
btp60
Rp61
(dp62
bcsympy.core.numbers
Zero
p63
(tRp64
(dp65
btp66
Rp67
(dp68
bacsympy.core.relational
StrictGreaterThan
p69
(g4
(g40
g13
tp70
Rp71
(dp72
bg64
tp73
Rp74
(dp75
bag2
(g4
(g5
(I-4
tp76
Rp77
(dp78
bg13
tp79
Rp80
(dp81
bg64
tp82
Rp83
(dp84
bag2
(g4
(csympy.core.numbers
NegativeOne
p85
(tRp86
(dp87
bg13
tp88
Rp89
(dp90
bg64
tp91
Rp92
(dp93
bag69
(g71
g64
tp94
Rp95
(dp96
bacsympy.core.relational
Equality
p97
(g3
(g5
(I-75
tp98
Rp99
(dp100
bg4
(g5
(I-79
tp101
Rp102
(dp103
bg55
tp104
Rp105
(dp106
btp107
Rp108
(dp109
bg64
tp110
Rp111
(dp112
bag97
(g3
(g5
(I-3
tp113
Rp114
(dp115
bg55
tp116
Rp117
(dp118
bg64
tp119
Rp120
(dp121
bag2
(g3
(g86
g13
tp122
Rp123
(dp124
bg64
tp125
Rp126
(dp127
bag2
(g89
g64
tp128
Rp129
(dp130
bag2
(g89
g64
tp131
Rp132
(dp133
ba(lp134
g2
(g13
g64
tp135
Rp136
(dp137
batp138
a((lp139
g2
(g71
g64
tp140
Rp141
(dp142
bag69
(g61
g64
tp143
Rp144
(dp145
bag2
(g80
g64
tp146
Rp147
(dp148
bag2
(g89
g64
tp149
Rp150
(dp151
bag69
(g71
g64
tp152
Rp153
(dp154
bag97
(g108
g64
tp155
Rp156
(dp157
bag97
(g117
g64
tp158
Rp159
(dp160
bag2
(g123
g64
tp161
Rp162
(dp163
bag2
(g89
g64
tp164
Rp165
(dp166
bag2
(g89
g64
tp167
Rp168
(dp169
ba(lp170
g2
(g13
g64
tp171
Rp172
(dp173
batp174
a((lp175
g2
(g3
(g114
g4
(g86
g55
tp176
Rp177
(dp178
btp179
Rp180
(dp181
bg64
tp182
Rp183
(dp184
bag2
(g61
g64
tp185
Rp186
(dp187
bag2
(g80
g64
tp188
Rp189
(dp190
bag2
(g89
g64
tp191
Rp192
(dp193
bag69
(g71
g64
tp194
Rp195
(dp196
bag97
(g108
g64
tp197
Rp198
(dp199
bag97
(g117
g64
tp200
Rp201
(dp202
bag2
(g123
g64
tp203
Rp204
(dp205
bag2
(g89
g64
tp206
Rp207
(dp208
bag2
(g89
g64
tp209
Rp210
(dp211
ba(lp212
g2
(g13
g64
tp213
Rp214
(dp215
batp216
a((lp217
g2
(g61
g64
tp218
Rp219
(dp220
bag69
(g3
(g5
(I3
tp221
Rp222
(dp223
bg55
tp224
Rp225
(dp226
bg64
tp227
Rp228
(dp229
bag2
(g61
g64
tp230
Rp231
(dp232
bag2
(g80
g64
tp233
Rp234
(dp235
bag2
(g89
g64
tp236
Rp237
(dp238
bag69
(g71
g64
tp239
Rp240
(dp241
bag97
(g108
g64
tp242
Rp243
(dp244
bag97
(g117
g64
tp245
Rp246
(dp247
bag2
(g123
g64
tp248
Rp249
(dp250
bag2
(g89
g64
tp251
Rp252
(dp253
bag2
(g89
g64
tp254
Rp255
(dp256
ba(lp257
g2
(g13
g64
tp258
Rp259
(dp260
batp261
a((lp262
g2
(g225
g64
tp263
Rp264
(dp265
bag69
(g61
g64
tp266
Rp267
(dp268
bag2
(g61
g64
tp269
Rp270
(dp271
bag2
(g80
g64
tp272
Rp273
(dp274
bag2
(g89
g64
tp275
Rp276
(dp277
bag69
(g71
g64
tp278
Rp279
(dp280
bag97
(g108
g64
tp281
Rp282
(dp283
bag97
(g117
g64
tp284
Rp285
(dp286
bag2
(g123
g64
tp287
Rp288
(dp289
bag2
(g89
g64
tp290
Rp291
(dp292
bag2
(g89
g64
tp293
Rp294
(dp295
ba(lp296
g2
(g13
g64
tp297
Rp298
(dp299
batp300
a((lp301
g2
(g180
g64
tp302
Rp303
(dp304
bag2
(g61
g64
tp305
Rp306
(dp307
bag2
(g80
g64
tp308
Rp309
(dp310
bag2
(g89
g64
tp311
Rp312
(dp313
bag69
(g71
g64
tp314
Rp315
(dp316
bag97
(g108
g64
tp317
Rp318
(dp319
bag97
(g117
g64
tp320
Rp321
(dp322
bag2
(g123
g64
tp323
Rp324
(dp325
bag2
(g89
g64
tp326
Rp327
(dp328
bag2
(g89
g64
tp329
Rp330
(dp331
ba(lp332
g2
(g13
g64
tp333
Rp334
(dp335
batp336
a((lp337
g2
(g61
g64
tp338
Rp339
(dp340
bag2
(g180
g64
tp341
Rp342
(dp343
bag2
(g61
g64
tp344
Rp345
(dp346
bag2
(g80
g64
tp347
Rp348
(dp349
bag2
(g89
g64
tp350
Rp351
(dp352
bag69
(g71
g64
tp353
Rp354
(dp355
bag97
(g108
g64
tp356
Rp357
(dp358
bag97
(g117
g64
tp359
Rp360
(dp361
bag2
(g123
g64
tp362
Rp363
(dp364
bag2
(g89
g64
tp365
Rp366
(dp367
bag2
(g89
g64
tp368
Rp369
(dp370
ba(lp371
g2
(g13
g64
tp372
Rp373
(dp374
batp375
a((lp376
g2
(g3
(g86
g89
tp377
Rp378
(dp379
bg64
tp380
Rp381
(dp382
bag2
(g180
g64
tp383
Rp384
(dp385
bag2
(g61
g64
tp386
Rp387
(dp388
bag2
(g80
g64
tp389
Rp390
(dp391
bag2
(g89
g64
tp392
Rp393
(dp394
bag69
(g71
g64
tp395
Rp396
(dp397
bag97
(g108
g64
tp398
Rp399
(dp400
bag97
(g117
g64
tp401
Rp402
(dp403
bag2
(g123
g64
tp404
Rp405
(dp406
bag2
(g89
g64
tp407
Rp408
(dp409
bag2
(g89
g64
tp410
Rp411
(dp412
ba(lp413
g2
(g13
g64
tp414
Rp415
(dp416
batp417
a((lp418
g2
(g378
g64
tp419
Rp420
(dp421
bag2
(g180
g64
tp422
Rp423
(dp424
bag2
(g61
g64
tp425
Rp426
(dp427
bag2
(g80
g64
tp428
Rp429
(dp430
bag2
(g89
g64
tp431
Rp432
(dp433
bag69
(g71
g64
tp434
Rp435
(dp436
bag97
(g108
g64
tp437
Rp438
(dp439
bag97
(g117
g64
tp440
Rp441
(dp442
bag2
(g123
g64
tp443
Rp444
(dp445
bag2
(g89
g64
tp446
Rp447
(dp448
bag2
(g89
g64
tp449
Rp450
(dp451
ba(lp452
g2
(g13
g64
tp453
Rp454
(dp455
batp456
a((lp457
g2
(g378
g64
tp458
Rp459
(dp460
bag2
(g378
g64
tp461
Rp462
(dp463
bag2
(g180
g64
tp464
Rp465
(dp466
bag2
(g61
g64
tp467
Rp468
(dp469
bag2
(g80
g64
tp470
Rp471
(dp472
bag2
(g89
g64
tp473
Rp474
(dp475
bag69
(g71
g64
tp476
Rp477
(dp478
bag97
(g108
g64
tp479
Rp480
(dp481
bag97
(g117
g64
tp482
Rp483
(dp484
bag2
(g123
g64
tp485
Rp486
(dp487
bag2
(g89
g64
tp488
Rp489
(dp490
bag2
(g89
g64
tp491
Rp492
(dp493
ba(lp494
g2
(g13
g64
tp495
Rp496
(dp497
batp498
a((lp499
g2
(g80
g64
tp500
Rp501
(dp502
bag2
(g378
g64
tp503
Rp504
(dp505
bag2
(g180
g64
tp506
Rp507
(dp508
bag2
(g61
g64
tp509
Rp510
(dp511
bag2
(g80
g64
tp512
Rp513
(dp514
bag2
(g89
g64
tp515
Rp516
(dp517
bag69
(g71
g64
tp518
Rp519
(dp520
bag97
(g108
g64
tp521
Rp522
(dp523
bag97
(g117
g64
tp524
Rp525
(dp526
bag2
(g123
g64
tp527
Rp528
(dp529
bag2
(g89
g64
tp530
Rp531
(dp532
bag2
(g89
g64
tp533
Rp534
(dp535
ba(lp536
g2
(g13
g64
tp537
Rp538
(dp539
batp540
a((lp541
g2
(g3
(g5
(I-231
tp542
Rp543
(dp544
bg4
(g5
(I-315
tp545
Rp546
(dp547
bg55
tp548
Rp549
(dp550
bg4
(g5
(I-105
tp551
Rp552
(dp553
bg43
tp554
Rp555
(dp556
bg4
(g5
(I-5
tp557
Rp558
(dp559
bg9
(g13
g5
(I6
tp560
Rp561
(dp562
btp563
Rp564
(dp565
btp566
Rp567
(dp568
btp569
Rp570
(dp571
bg64
tp572
Rp573
(dp574
bag2
(g378
g64
tp575
Rp576
(dp577
bag2
(g180
g64
tp578
Rp579
(dp580
bag2
(g61
g64
tp581
Rp582
(dp583
bag2
(g80
g64
tp584
Rp585
(dp586
bag2
(g89
g64
tp587
Rp588
(dp589
bag69
(g71
g64
tp590
Rp591
(dp592
bag97
(g108
g64
tp593
Rp594
(dp595
bag97
(g117
g64
tp596
Rp597
(dp598
bag2
(g123
g64
tp599
Rp600
(dp601
bag2
(g89
g64
tp602
Rp603
(dp604
bag2
(g89
g64
tp605
Rp606
(dp607
ba(lp608
g2
(g13
g64
tp609
Rp610
(dp611
batp612
a((lp613
g2
(g3
(g5
(I231
tp614
Rp615
(dp616
bg4
(g5
(I5
tp617
Rp618
(dp619
bg564
tp620
Rp621
(dp622
bg4
(g5
(I105
tp623
Rp624
(dp625
bg43
tp626
Rp627
(dp628
bg4
(g5
(I315
tp629
Rp630
(dp631
bg55
tp632
Rp633
(dp634
btp635
Rp636
(dp637
bg64
tp638
Rp639
(dp640
bag2
(g378
g64
tp641
Rp642
(dp643
bag2
(g180
g64
tp644
Rp645
(dp646
bag2
(g61
g64
tp647
Rp648
(dp649
bag2
(g80
g64
tp650
Rp651
(dp652
bag2
(g89
g64
tp653
Rp654
(dp655
bag69
(g71
g64
tp656
Rp657
(dp658
bag97
(g108
g64
tp659
Rp660
(dp661
bag97
(g117
g64
tp662
Rp663
(dp664
bag2
(g123
g64
tp665
Rp666
(dp667
bag2
(g89
g64
tp668
Rp669
(dp670
bag2
(g89
g64
tp671
Rp672
(dp673
ba(lp674
g2
(g13
g64
tp675
Rp676
(dp677
batp678
a((lp679
g2
(g3
(g4
(g5
(I-924
tp680
Rp681
(dp682
bg55
tp683
Rp684
(dp685
bg4
(csympy.core.numbers
Rational
p686
(I-3276
I5
tp687
Rp688
(dp689
bg564
tp690
Rp691
(dp692
bg4
(g5
(I-40
tp693
Rp694
(dp695
bg9
(g13
g5
(I8
tp696
Rp697
(dp698
btp699
Rp700
(dp701
btp702
Rp703
(dp704
bg4
(g5
(I-1568
tp705
Rp706
(dp707
bg43
tp708
Rp709
(dp710
btp711
Rp712
(dp713
bg64
tp714
Rp715
(dp716
bag69
(g71
g64
tp717
Rp718
(dp719
bag2
(g378
g64
tp720
Rp721
(dp722
bag2
(g180
g64
tp723
Rp724
(dp725
bag2
(g61
g64
tp726
Rp727
(dp728
bag2
(g80
g64
tp729
Rp730
(dp731
bag2
(g89
g64
tp732
Rp733
(dp734
bag69
(g71
g64
tp735
Rp736
(dp737
bag97
(g108
g64
tp738
Rp739
(dp740
bag97
(g117
g64
tp741
Rp742
(dp743
bag2
(g123
g64
tp744
Rp745
(dp746
bag2
(g89
g64
tp747
Rp748
(dp749
bag2
(g89
g64
tp750
Rp751
(dp752
ba(lp753
g2
(g13
g64
tp754
Rp755
(dp756
batp757
a.