(lp0
((lp1
csympy.core.relational
LessThan
p2
(csympy.core.add
Add
p3
(csympy.core.numbers
Integer
p4
(I228
tp5
Rp6
(dp7
bcsympy.core.mul
Mul
p8
(csympy.core.numbers
Rational
p9
(I-591237
I1250
tp10
Rp11
(dp12
bcsympy.core.power
Pow
p13
(csympy.core.symbol
Symbol
p14
(S'x'
p15
tp16
Rp17
(dp18
S'_assumptions'
p19
ccopy_reg
_reconstructor
p20
(csympy.core.assumptions
StdFactKB
p21
c__builtin__
dict
p22
(dp23
S'real'
p24
NsS'irrational'
p25
NsS'antihermitian'
p26
NsS'nonpositive'
p27
NsS'unbounded'
p28
NsS'negative'
p29
NsS'hermitian'
p30
NsS'bounded'
p31
NsS'integer'
p32
NsS'imaginary'
p33
NsS'odd'
p34
NsS'even'
p35
NsS'commutative'
p36
I01
sS'positive'
p37
NsS'zero'
p38
NsS'nonnegative'
p39
NsS'rational'
p40
Nstp41
Rp42
sbg4
(I3
tp43
Rp44
(dp45
btp46
Rp47
(dp48
btp49
Rp50
(dp51
bg8
(g4
(I848
tp52
Rp53
(dp54
bg13
(g17
g4
(I2
tp55
Rp56
(dp57
btp58
Rp59
(dp60
btp61
Rp62
(dp63
bg8
(g4
(I640
tp64
Rp65
(dp66
bg13
(g17
g4
(I4
tp67
Rp68
(dp69
btp70
Rp71
(dp72
btp73
Rp74
(dp75
bg8
(g9
(I-11233503
I25000
tp76
Rp77
(dp78
bg17
tp79
Rp80
(dp81
btp82
Rp83
(dp84
bcsympy.core.numbers
Zero
p85
(tRp86
(dp87
btp88
Rp89
(dp90
bacsympy.core.relational
StrictGreaterThan
p91
(g3
(csympy.core.numbers
NegativeOne
p92
(tRp93
(dp94
bg17
tp95
Rp96
(dp97
bg86
tp98
Rp99
(dp100
bag91
(g17
g86
tp101
Rp102
(dp103
bag2
(g3
(g9
(I-15
I4
tp104
Rp105
(dp106
bg17
tp107
Rp108
(dp109
bg86
tp110
Rp111
(dp112
bag91
(g3
(g9
(I44
I3
tp113
Rp114
(dp115
bg8
(g9
(I40
I3
tp116
Rp117
(dp118
bg59
tp119
Rp120
(dp121
btp122
Rp123
(dp124
bg86
tp125
Rp126
(dp127
bag2
(g3
(g9
(I-44
I3
tp128
Rp129
(dp130
bg8
(g9
(I-40
I3
tp131
Rp132
(dp133
bg59
tp134
Rp135
(dp136
btp137
Rp138
(dp139
bg86
tp140
Rp141
(dp142
bag91
(g3
(g6
g8
(g4
(I240
tp143
Rp144
(dp145
bg59
tp146
Rp147
(dp148
btp149
Rp150
(dp151
bg86
tp152
Rp153
(dp154
bag2
(g3
(g4
(I-228
tp155
Rp156
(dp157
bg8
(g4
(I-240
tp158
Rp159
(dp160
bg59
tp161
Rp162
(dp163
btp164
Rp165
(dp166
bg86
tp167
Rp168
(dp169
bag91
(g3
(g4
(I606
tp170
Rp171
(dp172
bg8
(g65
g59
tp173
Rp174
(dp175
btp176
Rp177
(dp178
bg86
tp179
Rp180
(dp181
bag2
(g3
(g4
(I-606
tp182
Rp183
(dp184
bg8
(g4
(I-640
tp185
Rp186
(dp187
bg59
tp188
Rp189
(dp190
btp191
Rp192
(dp193
bg86
tp194
Rp195
(dp196
ba(lp197
g91
(g8
(g93
g17
tp198
Rp199
(dp200
bg86
tp201
Rp202
(dp203
batp204
a((lp205
g2
(g3
(g156
g8
(g4
(I-848
tp206
Rp207
(dp208
bg59
tp209
Rp210
(dp211
bg8
(g9
(I591237
I1250
tp212
Rp213
(dp214
bg47
tp215
Rp216
(dp217
bg8
(g9
(I11233503
I25000
tp218
Rp219
(dp220
bg17
tp221
Rp222
(dp223
bg8
(g186
g71
tp224
Rp225
(dp226
btp227
Rp228
(dp229
bg86
tp230
Rp231
(dp232
bag91
(g96
g86
tp233
Rp234
(dp235
bag91
(g17
g86
tp236
Rp237
(dp238
bag2
(g108
g86
tp239
Rp240
(dp241
bag91
(g123
g86
tp242
Rp243
(dp244
bag2
(g138
g86
tp245
Rp246
(dp247
bag91
(g150
g86
tp248
Rp249
(dp250
bag2
(g165
g86
tp251
Rp252
(dp253
bag91
(g177
g86
tp254
Rp255
(dp256
bag2
(g192
g86
tp257
Rp258
(dp259
ba(lp260
g91
(g199
g86
tp261
Rp262
(dp263
batp264
a((lp265
g2
(g228
g86
tp266
Rp267
(dp268
bag91
(g83
g86
tp269
Rp270
(dp271
bag91
(g3
(g4
(I-150
tp272
Rp273
(dp274
bg8
(g4
(I-160
tp275
Rp276
(dp277
bg59
tp278
Rp279
(dp280
bg8
(g9
(I591237
I2000
tp281
Rp282
(dp283
bg17
tp284
Rp285
(dp286
bg8
(g9
(I197079
I625
tp287
Rp288
(dp289
bg47
tp290
Rp291
(dp292
btp293
Rp294
(dp295
bg86
tp296
Rp297
(dp298
bag91
(g96
g86
tp299
Rp300
(dp301
bag91
(g17
g86
tp302
Rp303
(dp304
bag2
(g108
g86
tp305
Rp306
(dp307
bag91
(g123
g86
tp308
Rp309
(dp310
bag2
(g138
g86
tp311
Rp312
(dp313
bag91
(g150
g86
tp314
Rp315
(dp316
bag2
(g165
g86
tp317
Rp318
(dp319
bag91
(g177
g86
tp320
Rp321
(dp322
bag2
(g192
g86
tp323
Rp324
(dp325
ba(lp326
g91
(g199
g86
tp327
Rp328
(dp329
batp330
a((lp331
g2
(g83
g86
tp332
Rp333
(dp334
bag2
(g294
g86
tp335
Rp336
(dp337
bag91
(g96
g86
tp338
Rp339
(dp340
bag91
(g17
g86
tp341
Rp342
(dp343
bag2
(g108
g86
tp344
Rp345
(dp346
bag91
(g123
g86
tp347
Rp348
(dp349
bag2
(g138
g86
tp350
Rp351
(dp352
bag91
(g150
g86
tp353
Rp354
(dp355
bag2
(g165
g86
tp356
Rp357
(dp358
bag91
(g177
g86
tp359
Rp360
(dp361
bag2
(g192
g86
tp362
Rp363
(dp364
ba(lp365
g91
(g199
g86
tp366
Rp367
(dp368
batp369
a((lp370
g2
(g83
g86
tp371
Rp372
(dp373
bag2
(g96
g86
tp374
Rp375
(dp376
bag91
(g17
g86
tp377
Rp378
(dp379
bag2
(g108
g86
tp380
Rp381
(dp382
bag91
(g123
g86
tp383
Rp384
(dp385
bag2
(g138
g86
tp386
Rp387
(dp388
bag91
(g150
g86
tp389
Rp390
(dp391
bag2
(g165
g86
tp392
Rp393
(dp394
bag91
(g177
g86
tp395
Rp396
(dp397
bag2
(g192
g86
tp398
Rp399
(dp400
ba(lp401
g91
(g199
g86
tp402
Rp403
(dp404
batp405
a((lp406
g2
(g96
g86
tp407
Rp408
(dp409
bag91
(g83
g86
tp410
Rp411
(dp412
bag91
(g17
g86
tp413
Rp414
(dp415
bag2
(g108
g86
tp416
Rp417
(dp418
bag91
(g123
g86
tp419
Rp420
(dp421
bag2
(g138
g86
tp422
Rp423
(dp424
bag91
(g150
g86
tp425
Rp426
(dp427
bag2
(g165
g86
tp428
Rp429
(dp430
bag91
(g177
g86
tp431
Rp432
(dp433
bag2
(g192
g86
tp434
Rp435
(dp436
ba(lp437
g91
(g199
g86
tp438
Rp439
(dp440
batp441
a((lp442
g2
(g228
g86
tp443
Rp444
(dp445
bag91
(g96
g86
tp446
Rp447
(dp448
bag91
(g83
g86
tp449
Rp450
(dp451
bag91
(g17
g86
tp452
Rp453
(dp454
bag2
(g108
g86
tp455
Rp456
(dp457
bag91
(g123
g86
tp458
Rp459
(dp460
bag2
(g138
g86
tp461
Rp462
(dp463
bag91
(g150
g86
tp464
Rp465
(dp466
bag2
(g165
g86
tp467
Rp468
(dp469
bag91
(g177
g86
tp470
Rp471
(dp472
bag2
(g192
g86
tp473
Rp474
(dp475
ba(lp476
g91
(g199
g86
tp477
Rp478
(dp479
batp480
a((lp481
g2
(g3
(g183
g8
(g4
(I-1280
tp482
Rp483
(dp484
bg71
tp485
Rp486
(dp487
bg8
(g9
(I59714937
I50000
tp488
Rp489
(dp490
bg17
tp491
Rp492
(dp493
bg8
(g9
(I788316
I625
tp494
Rp495
(dp496
bg47
tp497
Rp498
(dp499
bg8
(g4
(I-1856
tp500
Rp501
(dp502
bg59
tp503
Rp504
(dp505
btp506
Rp507
(dp508
bg86
tp509
Rp510
(dp511
bag91
(g96
g86
tp512
Rp513
(dp514
bag91
(g83
g86
tp515
Rp516
(dp517
bag91
(g17
g86
tp518
Rp519
(dp520
bag2
(g108
g86
tp521
Rp522
(dp523
bag91
(g123
g86
tp524
Rp525
(dp526
bag2
(g138
g86
tp527
Rp528
(dp529
bag91
(g150
g86
tp530
Rp531
(dp532
bag2
(g165
g86
tp533
Rp534
(dp535
bag91
(g177
g86
tp536
Rp537
(dp538
bag2
(g192
g86
tp539
Rp540
(dp541
ba(lp542
g91
(g199
g86
tp543
Rp544
(dp545
batp546
a((lp547
g2
(g507
g86
tp548
Rp549
(dp550
bag91
(g83
g86
tp551
Rp552
(dp553
bag91
(g17
g86
tp554
Rp555
(dp556
bag2
(g108
g86
tp557
Rp558
(dp559
bag91
(g123
g86
tp560
Rp561
(dp562
bag2
(g138
g86
tp563
Rp564
(dp565
bag91
(g150
g86
tp566
Rp567
(dp568
bag2
(g165
g86
tp569
Rp570
(dp571
bag91
(g177
g86
tp572
Rp573
(dp574
bag2
(g192
g86
tp575
Rp576
(dp577
ba(lp578
g91
(g199
g86
tp579
Rp580
(dp581
batp582
a((lp583
g2
(g228
g86
tp584
Rp585
(dp586
bag2
(g507
g86
tp587
Rp588
(dp589
bag91
(g83
g86
tp590
Rp591
(dp592
bag91
(g17
g86
tp593
Rp594
(dp595
bag2
(g108
g86
tp596
Rp597
(dp598
bag91
(g123
g86
tp599
Rp600
(dp601
bag2
(g138
g86
tp602
Rp603
(dp604
bag91
(g150
g86
tp605
Rp606
(dp607
bag2
(g165
g86
tp608
Rp609
(dp610
bag91
(g177
g86
tp611
Rp612
(dp613
bag2
(g192
g86
tp614
Rp615
(dp616
ba(lp617
g91
(g199
g86
tp618
Rp619
(dp620
batp621
a((lp622
g2
(g3
(g4
(I-76
tp623
Rp624
(dp625
bg8
(g4
(I-80
tp626
Rp627
(dp628
bg59
tp629
Rp630
(dp631
btp632
Rp633
(dp634
bg86
tp635
Rp636
(dp637
bag2
(g199
g86
tp638
Rp639
(dp640
bag2
(g192
g86
tp641
Rp642
(dp643
bag91
(g177
g86
tp644
Rp645
(dp646
bag2
(g165
g86
tp647
Rp648
(dp649
bag91
(g150
g86
tp650
Rp651
(dp652
bag2
(g138
g86
tp653
Rp654
(dp655
bag91
(g123
g86
tp656
Rp657
(dp658
bag2
(g108
g86
tp659
Rp660
(dp661
bag91
(g17
g86
tp662
Rp663
(dp664
bag91
(g83
g86
tp665
Rp666
(dp667
bag2
(g507
g86
tp668
Rp669
(dp670
ba(lp671
g91
(g228
g86
tp672
Rp673
(dp674
batp675
a((lp676
g2
(g96
g86
tp677
Rp678
(dp679
bag2
(g228
g86
tp680
Rp681
(dp682
bag2
(g507
g86
tp683
Rp684
(dp685
bag91
(g83
g86
tp686
Rp687
(dp688
bag91
(g17
g86
tp689
Rp690
(dp691
bag2
(g108
g86
tp692
Rp693
(dp694
bag91
(g123
g86
tp695
Rp696
(dp697
bag2
(g138
g86
tp698
Rp699
(dp700
bag91
(g150
g86
tp701
Rp702
(dp703
bag2
(g165
g86
tp704
Rp705
(dp706
bag91
(g177
g86
tp707
Rp708
(dp709
bag2
(g192
g86
tp710
Rp711
(dp712
ba(lp713
g91
(g199
g86
tp714
Rp715
(dp716
batp717
a((lp718
g2
(g3
(g4
(I-3
tp719
Rp720
(dp721
bg8
(g93
g59
tp722
Rp723
(dp724
btp725
Rp726
(dp727
bg86
tp728
Rp729
(dp730
bag2
(g228
g86
tp731
Rp732
(dp733
bag2
(g507
g86
tp734
Rp735
(dp736
bag91
(g83
g86
tp737
Rp738
(dp739
bag91
(g17
g86
tp740
Rp741
(dp742
bag2
(g108
g86
tp743
Rp744
(dp745
bag91
(g123
g86
tp746
Rp747
(dp748
bag2
(g138
g86
tp749
Rp750
(dp751
bag91
(g150
g86
tp752
Rp753
(dp754
bag2
(g165
g86
tp755
Rp756
(dp757
bag91
(g177
g86
tp758
Rp759
(dp760
bag2
(g192
g86
tp761
Rp762
(dp763
ba(lp764
g91
(g199
g86
tp765
Rp766
(dp767
batp768
a((lp769
g2
(g3
(g44
g59
tp770
Rp771
(dp772
bg86
tp773
Rp774
(dp775
bag2
(g228
g86
tp776
Rp777
(dp778
bag2
(g507
g86
tp779
Rp780
(dp781
bag91
(g83
g86
tp782
Rp783
(dp784
bag91
(g17
g86
tp785
Rp786
(dp787
bag2
(g108
g86
tp788
Rp789
(dp790
bag91
(g123
g86
tp791
Rp792
(dp793
bag2
(g138
g86
tp794
Rp795
(dp796
bag91
(g150
g86
tp797
Rp798
(dp799
bag2
(g165
g86
tp800
Rp801
(dp802
bag91
(g177
g86
tp803
Rp804
(dp805
bag2
(g192
g86
tp806
Rp807
(dp808
ba(lp809
g91
(g199
g86
tp810
Rp811
(dp812
batp813
a((lp814
g2
(g3
(g9
(I-1368
I5
tp815
Rp816
(dp817
bg8
(g4
(I-96
tp818
Rp819
(dp820
bg71
tp821
Rp822
(dp823
bg8
(g4
(I1140
tp824
Rp825
(dp826
bg17
tp827
Rp828
(dp829
bg8
(g65
g13
(g17
g4
(I5
tp830
Rp831
(dp832
btp833
Rp834
(dp835
btp836
Rp837
(dp838
bg8
(g4
(I1808
tp839
Rp840
(dp841
bg47
tp842
Rp843
(dp844
bg8
(g9
(I-1896
I5
tp845
Rp846
(dp847
bg59
tp848
Rp849
(dp850
btp851
Rp852
(dp853
bg86
tp854
Rp855
(dp856
bag2
(g199
g86
tp857
Rp858
(dp859
bag2
(g192
g86
tp860
Rp861
(dp862
bag91
(g177
g86
tp863
Rp864
(dp865
bag2
(g165
g86
tp866
Rp867
(dp868
bag91
(g150
g86
tp869
Rp870
(dp871
bag2
(g138
g86
tp872
Rp873
(dp874
bag91
(g123
g86
tp875
Rp876
(dp877
bag2
(g108
g86
tp878
Rp879
(dp880
bag91
(g17
g86
tp881
Rp882
(dp883
bag91
(g83
g86
tp884
Rp885
(dp886
bag2
(g507
g86
tp887
Rp888
(dp889
ba(lp890
g91
(g228
g86
tp891
Rp892
(dp893
batp894
a((lp895
g2
(g3
(g9
(I1368
I5
tp896
Rp897
(dp898
bg8
(g4
(I-1808
tp899
Rp900
(dp901
bg47
tp902
Rp903
(dp904
bg8
(g9
(I1896
I5
tp905
Rp906
(dp907
bg59
tp908
Rp909
(dp910
bg8
(g186
g834
tp911
Rp912
(dp913
bg8
(g4
(I-1140
tp914
Rp915
(dp916
bg17
tp917
Rp918
(dp919
bg8
(g4
(I96
tp920
Rp921
(dp922
bg71
tp923
Rp924
(dp925
btp926
Rp927
(dp928
bg86
tp929
Rp930
(dp931
bag2
(g199
g86
tp932
Rp933
(dp934
bag2
(g192
g86
tp935
Rp936
(dp937
bag91
(g177
g86
tp938
Rp939
(dp940
bag2
(g165
g86
tp941
Rp942
(dp943
bag91
(g150
g86
tp944
Rp945
(dp946
bag2
(g138
g86
tp947
Rp948
(dp949
bag91
(g123
g86
tp950
Rp951
(dp952
bag2
(g108
g86
tp953
Rp954
(dp955
bag91
(g17
g86
tp956
Rp957
(dp958
bag91
(g83
g86
tp959
Rp960
(dp961
bag2
(g507
g86
tp962
Rp963
(dp964
ba(lp965
g91
(g228
g86
tp966
Rp967
(dp968
batp969
a((lp970
g2
(g852
g86
tp971
Rp972
(dp973
bag91
(g927
g86
tp974
Rp975
(dp976
bag91
(g3
(g4
(I180
tp977
Rp978
(dp979
bg8
(g4
(I64
tp980
Rp981
(dp982
bg71
tp983
Rp984
(dp985
bg8
(g4
(I450
tp986
Rp987
(dp988
bg17
tp989
Rp990
(dp991
bg8
(g4
(I480
tp992
Rp993
(dp994
bg47
tp995
Rp996
(dp997
bg8
(g4
(I252
tp998
Rp999
(dp1000
bg59
tp1001
Rp1002
(dp1003
btp1004
Rp1005
(dp1006
bg86
tp1007
Rp1008
(dp1009
bag2
(g199
g86
tp1010
Rp1011
(dp1012
bag2
(g192
g86
tp1013
Rp1014
(dp1015
bag91
(g177
g86
tp1016
Rp1017
(dp1018
bag2
(g165
g86
tp1019
Rp1020
(dp1021
bag91
(g150
g86
tp1022
Rp1023
(dp1024
bag2
(g138
g86
tp1025
Rp1026
(dp1027
bag91
(g123
g86
tp1028
Rp1029
(dp1030
bag2
(g108
g86
tp1031
Rp1032
(dp1033
bag91
(g17
g86
tp1034
Rp1035
(dp1036
bag91
(g83
g86
tp1037
Rp1038
(dp1039
bag2
(g507
g86
tp1040
Rp1041
(dp1042
ba(lp1043
g91
(g228
g86
tp1044
Rp1045
(dp1046
batp1047
a((lp1048
g2
(g927
g86
tp1049
Rp1050
(dp1051
bag91
(g1005
g86
tp1052
Rp1053
(dp1054
bag91
(g852
g86
tp1055
Rp1056
(dp1057
bag2
(g199
g86
tp1058
Rp1059
(dp1060
bag2
(g192
g86
tp1061
Rp1062
(dp1063
bag91
(g177
g86
tp1064
Rp1065
(dp1066
bag2
(g165
g86
tp1067
Rp1068
(dp1069
bag91
(g150
g86
tp1070
Rp1071
(dp1072
bag2
(g138
g86
tp1073
Rp1074
(dp1075
bag91
(g123
g86
tp1076
Rp1077
(dp1078
bag2
(g108
g86
tp1079
Rp1080
(dp1081
bag91
(g17
g86
tp1082
Rp1083
(dp1084
bag91
(g83
g86
tp1085
Rp1086
(dp1087
bag2
(g507
g86
tp1088
Rp1089
(dp1090
ba(lp1091
g91
(g228
g86
tp1092
Rp1093
(dp1094
batp1095
a((lp1096
g2
(g927
g86
tp1097
Rp1098
(dp1099
bag2
(g1005
g86
tp1100
Rp1101
(dp1102
bag2
(g852
g86
tp1103
Rp1104
(dp1105
bag2
(g199
g86
tp1106
Rp1107
(dp1108
bag2
(g192
g86
tp1109
Rp1110
(dp1111
bag91
(g177
g86
tp1112
Rp1113
(dp1114
bag2
(g165
g86
tp1115
Rp1116
(dp1117
bag91
(g150
g86
tp1118
Rp1119
(dp1120
bag2
(g138
g86
tp1121
Rp1122
(dp1123
bag91
(g123
g86
tp1124
Rp1125
(dp1126
bag2
(g108
g86
tp1127
Rp1128
(dp1129
bag91
(g17
g86
tp1130
Rp1131
(dp1132
bag91
(g83
g86
tp1133
Rp1134
(dp1135
bag2
(g507
g86
tp1136
Rp1137
(dp1138
ba(lp1139
g91
(g228
g86
tp1140
Rp1141
(dp1142
batp1143
a((lp1144
g2
(g3
(g9
(I-456
I5
tp1145
Rp1146
(dp1147
bg8
(g819
g59
tp1148
Rp1149
(dp1150
bg8
(g4
(I608
tp1151
Rp1152
(dp1153
bg17
tp1154
Rp1155
(dp1156
bg8
(g65
g47
tp1157
Rp1158
(dp1159
btp1160
Rp1161
(dp1162
bg86
tp1163
Rp1164
(dp1165
bag91
(g3
(g4
(I60
tp1166
Rp1167
(dp1168
bg8
(g981
g59
tp1169
Rp1170
(dp1171
btp1172
Rp1173
(dp1174
bg86
tp1175
Rp1176
(dp1177
bag91
(g3
(g9
(I456
I5
tp1178
Rp1179
(dp1180
bg8
(g4
(I-608
tp1181
Rp1182
(dp1183
bg17
tp1184
Rp1185
(dp1186
bg8
(g921
g59
tp1187
Rp1188
(dp1189
bg8
(g186
g47
tp1190
Rp1191
(dp1192
btp1193
Rp1194
(dp1195
bg86
tp1196
Rp1197
(dp1198
bag2
(g3
(g9
(I-14525683
I1008672
tp1199
Rp1200
(dp1201
bg135
tp1202
Rp1203
(dp1204
bg86
tp1205
Rp1206
(dp1207
bag91
(g3
(g9
(I14525683
I1008672
tp1208
Rp1209
(dp1210
bg120
tp1211
Rp1212
(dp1213
bg86
tp1214
Rp1215
(dp1216
bag2
(g3
(g9
(I-2419
I168
tp1217
Rp1218
(dp1219
bg135
tp1220
Rp1221
(dp1222
bg86
tp1223
Rp1224
(dp1225
bag91
(g3
(g9
(I2419
I168
tp1226
Rp1227
(dp1228
bg120
tp1229
Rp1230
(dp1231
bg86
tp1232
Rp1233
(dp1234
bag91
(g17
g86
tp1235
Rp1236
(dp1237
bag2
(g108
g86
tp1238
Rp1239
(dp1240
bag91
(g123
g86
tp1241
Rp1242
(dp1243
ba(lp1244
g91
(g138
g86
tp1245
Rp1246
(dp1247
batp1248
a((lp1249
g2
(g1194
g86
tp1250
Rp1251
(dp1252
bag91
(g1173
g86
tp1253
Rp1254
(dp1255
bag91
(g1161
g86
tp1256
Rp1257
(dp1258
bag2
(g1203
g86
tp1259
Rp1260
(dp1261
bag91
(g1212
g86
tp1262
Rp1263
(dp1264
bag2
(g1221
g86
tp1265
Rp1266
(dp1267
bag91
(g1230
g86
tp1268
Rp1269
(dp1270
bag91
(g17
g86
tp1271
Rp1272
(dp1273
bag2
(g108
g86
tp1274
Rp1275
(dp1276
bag91
(g123
g86
tp1277
Rp1278
(dp1279
ba(lp1280
g91
(g138
g86
tp1281
Rp1282
(dp1283
batp1284
a((lp1285
g2
(g1173
g86
tp1286
Rp1287
(dp1288
bag2
(g1194
g86
tp1289
Rp1290
(dp1291
bag2
(g1161
g86
tp1292
Rp1293
(dp1294
bag2
(g1203
g86
tp1295
Rp1296
(dp1297
bag91
(g1212
g86
tp1298
Rp1299
(dp1300
bag2
(g1221
g86
tp1301
Rp1302
(dp1303
bag91
(g1230
g86
tp1304
Rp1305
(dp1306
bag91
(g17
g86
tp1307
Rp1308
(dp1309
bag2
(g108
g86
tp1310
Rp1311
(dp1312
bag91
(g123
g86
tp1313
Rp1314
(dp1315
ba(lp1316
g91
(g138
g86
tp1317
Rp1318
(dp1319
batp1320
a((lp1321
g2
(g3
(g4
(I-75
tp1322
Rp1323
(dp1324
bg630
tp1325
Rp1326
(dp1327
bg86
tp1328
Rp1329
(dp1330
bag2
(g3
(g4
(I-1385328
tp1331
Rp1332
(dp1333
bg8
(g4
(I-4303680
tp1334
Rp1335
(dp1336
bg59
tp1337
Rp1338
(dp1339
bg8
(g4
(I-1536000
tp1340
Rp1341
(dp1342
bg13
(g17
g4
(I6
tp1343
Rp1344
(dp1345
btp1346
Rp1347
(dp1348
btp1349
Rp1350
(dp1351
bg8
(g4
(I-4454400
tp1352
Rp1353
(dp1354
bg71
tp1355
Rp1356
(dp1357
btp1358
Rp1359
(dp1360
bg86
tp1361
Rp1362
(dp1363
bag2
(g3
(g4
(I1385328
tp1364
Rp1365
(dp1366
bg8
(g4
(I4303680
tp1367
Rp1368
(dp1369
bg59
tp1370
Rp1371
(dp1372
bg8
(g4
(I1536000
tp1373
Rp1374
(dp1375
bg1347
tp1376
Rp1377
(dp1378
bg8
(g4
(I4454400
tp1379
Rp1380
(dp1381
bg71
tp1382
Rp1383
(dp1384
btp1385
Rp1386
(dp1387
bg86
tp1388
Rp1389
(dp1390
bag91
(g3
(g4
(I461776
tp1391
Rp1392
(dp1393
bg8
(g4
(I512000
tp1394
Rp1395
(dp1396
bg1347
tp1397
Rp1398
(dp1399
bg8
(g4
(I1434560
tp1400
Rp1401
(dp1402
bg59
tp1403
Rp1404
(dp1405
bg8
(g4
(I1484800
tp1406
Rp1407
(dp1408
bg71
tp1409
Rp1410
(dp1411
btp1412
Rp1413
(dp1414
bg86
tp1415
Rp1416
(dp1417
bag91
(g3
(g4
(I5481122
tp1418
Rp1419
(dp1420
bg8
(g4
(I32096000
tp1421
Rp1422
(dp1423
bg71
tp1424
Rp1425
(dp1426
bg8
(g4
(I20992000
tp1427
Rp1428
(dp1429
bg1347
tp1430
Rp1431
(dp1432
bg8
(g4
(I5120000
tp1433
Rp1434
(dp1435
bg13
(g17
g4
(I8
tp1436
Rp1437
(dp1438
btp1439
Rp1440
(dp1441
btp1442
Rp1443
(dp1444
bg8
(g4
(I21705280
tp1445
Rp1446
(dp1447
bg59
tp1448
Rp1449
(dp1450
btp1451
Rp1452
(dp1453
bg86
tp1454
Rp1455
(dp1456
bag2
(g3
(g4
(I-461776
tp1457
Rp1458
(dp1459
bg8
(g4
(I-1484800
tp1460
Rp1461
(dp1462
bg71
tp1463
Rp1464
(dp1465
bg8
(g4
(I-512000
tp1466
Rp1467
(dp1468
bg1347
tp1469
Rp1470
(dp1471
bg8
(g4
(I-1434560
tp1472
Rp1473
(dp1474
bg59
tp1475
Rp1476
(dp1477
btp1478
Rp1479
(dp1480
bg86
tp1481
Rp1482
(dp1483
bag91
(g1212
g86
tp1484
Rp1485
(dp1486
bag91
(g1230
g86
tp1487
Rp1488
(dp1489
bag91
(g17
g86
tp1490
Rp1491
(dp1492
bag2
(g108
g86
tp1493
Rp1494
(dp1495
ba(lp1496
g2
(g123
g86
tp1497
Rp1498
(dp1499
batp1500
a((lp1501
g91
(g1386
g86
tp1502
Rp1503
(dp1504
bag91
(g3
(g4
(I7880708
tp1505
Rp1506
(dp1507
bg8
(g9
(I165568000
I7
tp1508
Rp1509
(dp1510
bg1347
tp1511
Rp1512
(dp1513
bg8
(g9
(I204119080
I7
tp1514
Rp1515
(dp1516
bg59
tp1517
Rp1518
(dp1519
bg1443
g8
(g9
(I278681600
I7
tp1520
Rp1521
(dp1522
bg71
tp1523
Rp1524
(dp1525
btp1526
Rp1527
(dp1528
bg86
tp1529
Rp1530
(dp1531
bag91
(g3
(g9
(I1245587383
I158
tp1532
Rp1533
(dp1534
bg8
(g9
(L248549680000L
I10507
tp1535
Rp1536
(dp1537
bg1347
tp1538
Rp1539
(dp1540
bg8
(g9
(L418394206400L
I10507
tp1541
Rp1542
(dp1543
bg71
tp1544
Rp1545
(dp1546
bg1443
g8
(g9
(L306472712890L
I10507
tp1547
Rp1548
(dp1549
bg59
tp1550
Rp1551
(dp1552
btp1553
Rp1554
(dp1555
bg86
tp1556
Rp1557
(dp1558
bag2
(g1359
g86
tp1559
Rp1560
(dp1561
bag91
(g1386
g86
tp1562
Rp1563
(dp1564
bag2
(g1479
g86
tp1565
Rp1566
(dp1567
bag91
(g1212
g86
tp1568
Rp1569
(dp1570
bag91
(g1230
g86
tp1571
Rp1572
(dp1573
bag91
(g17
g86
tp1574
Rp1575
(dp1576
bag2
(g108
g86
tp1577
Rp1578
(dp1579
ba(lp1580
g2
(g123
g86
tp1581
Rp1582
(dp1583
batp1584
a((lp1585
g2
(g1386
g86
tp1586
Rp1587
(dp1588
bag2
(g1527
g86
tp1589
Rp1590
(dp1591
bag91
(g1554
g86
tp1592
Rp1593
(dp1594
bag2
(g1359
g86
tp1595
Rp1596
(dp1597
bag91
(g1386
g86
tp1598
Rp1599
(dp1600
bag2
(g1479
g86
tp1601
Rp1602
(dp1603
bag91
(g1212
g86
tp1604
Rp1605
(dp1606
bag91
(g1230
g86
tp1607
Rp1608
(dp1609
bag91
(g17
g86
tp1610
Rp1611
(dp1612
bag2
(g108
g86
tp1613
Rp1614
(dp1615
ba(lp1616
g2
(g123
g86
tp1617
Rp1618
(dp1619
batp1620
a((lp1621
g2
(g1359
g86
tp1622
Rp1623
(dp1624
bag91
(g1527
g86
tp1625
Rp1626
(dp1627
bag91
(g1554
g86
tp1628
Rp1629
(dp1630
bag2
(g1359
g86
tp1631
Rp1632
(dp1633
bag91
(g1386
g86
tp1634
Rp1635
(dp1636
bag2
(g1479
g86
tp1637
Rp1638
(dp1639
bag91
(g1212
g86
tp1640
Rp1641
(dp1642
bag91
(g1230
g86
tp1643
Rp1644
(dp1645
bag91
(g17
g86
tp1646
Rp1647
(dp1648
bag2
(g108
g86
tp1649
Rp1650
(dp1651
ba(lp1652
g2
(g123
g86
tp1653
Rp1654
(dp1655
batp1656
a((lp1657
g91
(g1386
g86
tp1658
Rp1659
(dp1660
bag91
(g3
(g4
(I8251778
tp1661
Rp1662
(dp1663
bg8
(g4
(I41004800
tp1664
Rp1665
(dp1666
bg71
tp1667
Rp1668
(dp1669
bg1443
g8
(g4
(I30312640
tp1670
Rp1671
(dp1672
bg59
tp1673
Rp1674
(dp1675
bg8
(g4
(I24064000
tp1676
Rp1677
(dp1678
bg1347
tp1679
Rp1680
(dp1681
btp1682
Rp1683
(dp1684
bg86
tp1685
Rp1686
(dp1687
bag91
(g1527
g86
tp1688
Rp1689
(dp1690
bag91
(g1554
g86
tp1691
Rp1692
(dp1693
bag2
(g1359
g86
tp1694
Rp1695
(dp1696
bag91
(g1386
g86
tp1697
Rp1698
(dp1699
bag2
(g1479
g86
tp1700
Rp1701
(dp1702
bag91
(g1212
g86
tp1703
Rp1704
(dp1705
bag91
(g1230
g86
tp1706
Rp1707
(dp1708
bag91
(g17
g86
tp1709
Rp1710
(dp1711
bag2
(g108
g86
tp1712
Rp1713
(dp1714
ba(lp1715
g2
(g123
g86
tp1716
Rp1717
(dp1718
batp1719
a((lp1720
g2
(g1386
g86
tp1721
Rp1722
(dp1723
bag2
(g1683
g86
tp1724
Rp1725
(dp1726
bag91
(g1527
g86
tp1727
Rp1728
(dp1729
bag91
(g1554
g86
tp1730
Rp1731
(dp1732
bag2
(g1359
g86
tp1733
Rp1734
(dp1735
bag91
(g1386
g86
tp1736
Rp1737
(dp1738
bag2
(g1479
g86
tp1739
Rp1740
(dp1741
bag91
(g1212
g86
tp1742
Rp1743
(dp1744
bag91
(g1230
g86
tp1745
Rp1746
(dp1747
bag91
(g17
g86
tp1748
Rp1749
(dp1750
bag2
(g108
g86
tp1751
Rp1752
(dp1753
ba(lp1754
g2
(g123
g86
tp1755
Rp1756
(dp1757
batp1758
a((lp1759
g2
(g1359
g86
tp1760
Rp1761
(dp1762
bag91
(g1527
g86
tp1763
Rp1764
(dp1765
bag91
(g1554
g86
tp1766
Rp1767
(dp1768
bag2
(g1359
g86
tp1769
Rp1770
(dp1771
bag91
(g1386
g86
tp1772
Rp1773
(dp1774
bag2
(g1479
g86
tp1775
Rp1776
(dp1777
bag91
(g1212
g86
tp1778
Rp1779
(dp1780
bag91
(g1230
g86
tp1781
Rp1782
(dp1783
bag91
(g17
g86
tp1784
Rp1785
(dp1786
bag2
(g108
g86
tp1787
Rp1788
(dp1789
ba(lp1790
g2
(g123
g86
tp1791
Rp1792
(dp1793
batp1794
a((lp1795
g91
(g1683
g86
tp1796
Rp1797
(dp1798
bag91
(g1527
g86
tp1799
Rp1800
(dp1801
bag91
(g1554
g86
tp1802
Rp1803
(dp1804
bag2
(g1359
g86
tp1805
Rp1806
(dp1807
bag91
(g1386
g86
tp1808
Rp1809
(dp1810
bag2
(g1479
g86
tp1811
Rp1812
(dp1813
bag91
(g1212
g86
tp1814
Rp1815
(dp1816
bag91
(g1230
g86
tp1817
Rp1818
(dp1819
bag91
(g17
g86
tp1820
Rp1821
(dp1822
bag2
(g108
g86
tp1823
Rp1824
(dp1825
ba(lp1826
g2
(g123
g86
tp1827
Rp1828
(dp1829
batp1830
a((lp1831
g2
(g3
(g4
(I-74
tp1832
Rp1833
(dp1834
bg630
tp1835
Rp1836
(dp1837
bg86
tp1838
Rp1839
(dp1840
bag2
(g3
(g4
(I-1190371
tp1841
Rp1842
(dp1843
bg8
(g4
(I-2156800
tp1844
Rp1845
(dp1846
bg71
tp1847
Rp1848
(dp1849
bg1470
g8
(g4
(I-2837360
tp1850
Rp1851
(dp1852
bg59
tp1853
Rp1854
(dp1855
btp1856
Rp1857
(dp1858
bg86
tp1859
Rp1860
(dp1861
bag91
(g3
(g4
(I3571113
tp1862
Rp1863
(dp1864
bg8
(g4
(I8512080
tp1865
Rp1866
(dp1867
bg59
tp1868
Rp1869
(dp1870
bg8
(g4
(I6470400
tp1871
Rp1872
(dp1873
bg71
tp1874
Rp1875
(dp1876
bg1377
tp1877
Rp1878
(dp1879
bg86
tp1880
Rp1881
(dp1882
bag91
(g1683
g86
tp1883
Rp1884
(dp1885
bag91
(g1527
g86
tp1886
Rp1887
(dp1888
bag91
(g1554
g86
tp1889
Rp1890
(dp1891
bag2
(g1359
g86
tp1892
Rp1893
(dp1894
bag91
(g1386
g86
tp1895
Rp1896
(dp1897
bag2
(g1479
g86
tp1898
Rp1899
(dp1900
bag91
(g1212
g86
tp1901
Rp1902
(dp1903
bag91
(g1230
g86
tp1904
Rp1905
(dp1906
bag91
(g17
g86
tp1907
Rp1908
(dp1909
bag2
(g108
g86
tp1910
Rp1911
(dp1912
ba(lp1913
g2
(g123
g86
tp1914
Rp1915
(dp1916
batp1917
a((lp1918
g2
(g1836
g86
tp1919
Rp1920
(dp1921
bag2
(g1857
g86
tp1922
Rp1923
(dp1924
bag91
(g1683
g86
tp1925
Rp1926
(dp1927
bag91
(g1527
g86
tp1928
Rp1929
(dp1930
bag91
(g1554
g86
tp1931
Rp1932
(dp1933
bag2
(g1359
g86
tp1934
Rp1935
(dp1936
bag91
(g1386
g86
tp1937
Rp1938
(dp1939
bag2
(g1479
g86
tp1940
Rp1941
(dp1942
bag91
(g1212
g86
tp1943
Rp1944
(dp1945
bag91
(g1230
g86
tp1946
Rp1947
(dp1948
bag91
(g17
g86
tp1949
Rp1950
(dp1951
bag2
(g108
g86
tp1952
Rp1953
(dp1954
ba(lp1955
g2
(g123
g86
tp1956
Rp1957
(dp1958
batp1959
a((lp1960
g2
(g1857
g86
tp1961
Rp1962
(dp1963
bag91
(g1683
g86
tp1964
Rp1965
(dp1966
bag91
(g1527
g86
tp1967
Rp1968
(dp1969
bag91
(g1554
g86
tp1970
Rp1971
(dp1972
bag2
(g1359
g86
tp1973
Rp1974
(dp1975
bag91
(g1386
g86
tp1976
Rp1977
(dp1978
bag2
(g1479
g86
tp1979
Rp1980
(dp1981
bag91
(g1212
g86
tp1982
Rp1983
(dp1984
bag91
(g1230
g86
tp1985
Rp1986
(dp1987
bag91
(g17
g86
tp1988
Rp1989
(dp1990
bag2
(g108
g86
tp1991
Rp1992
(dp1993
ba(lp1994
g2
(g123
g86
tp1995
Rp1996
(dp1997
batp1998
a((lp1999
g2
(g1836
g86
tp2000
Rp2001
(dp2002
bag2
(g3
(g4
(I-3571113
tp2003
Rp2004
(dp2005
bg8
(g4
(I-6470400
tp2006
Rp2007
(dp2008
bg71
tp2009
Rp2010
(dp2011
bg8
(g4
(I-8512080
tp2012
Rp2013
(dp2014
bg59
tp2015
Rp2016
(dp2017
bg1350
tp2018
Rp2019
(dp2020
bg86
tp2021
Rp2022
(dp2023
bag91
(g3
(g4
(I1190371
tp2024
Rp2025
(dp2026
bg1398
g8
(g4
(I2156800
tp2027
Rp2028
(dp2029
bg71
tp2030
Rp2031
(dp2032
bg8
(g4
(I2837360
tp2033
Rp2034
(dp2035
bg59
tp2036
Rp2037
(dp2038
btp2039
Rp2040
(dp2041
bg86
tp2042
Rp2043
(dp2044
bag2
(g1857
g86
tp2045
Rp2046
(dp2047
bag91
(g1683
g86
tp2048
Rp2049
(dp2050
bag91
(g1527
g86
tp2051
Rp2052
(dp2053
bag91
(g1554
g86
tp2054
Rp2055
(dp2056
bag2
(g1359
g86
tp2057
Rp2058
(dp2059
bag91
(g1386
g86
tp2060
Rp2061
(dp2062
bag2
(g1479
g86
tp2063
Rp2064
(dp2065
bag91
(g1212
g86
tp2066
Rp2067
(dp2068
bag91
(g1230
g86
tp2069
Rp2070
(dp2071
bag91
(g17
g86
tp2072
Rp2073
(dp2074
bag2
(g108
g86
tp2075
Rp2076
(dp2077
ba(lp2078
g2
(g123
g86
tp2079
Rp2080
(dp2081
batp2082
a((lp2083
g2
(g1836
g86
tp2084
Rp2085
(dp2086
bag2
(g2040
g86
tp2087
Rp2088
(dp2089
bag91
(g1878
g86
tp2090
Rp2091
(dp2092
bag2
(g1857
g86
tp2093
Rp2094
(dp2095
bag91
(g1683
g86
tp2096
Rp2097
(dp2098
bag91
(g1527
g86
tp2099
Rp2100
(dp2101
bag91
(g1554
g86
tp2102
Rp2103
(dp2104
bag2
(g1359
g86
tp2105
Rp2106
(dp2107
bag91
(g1386
g86
tp2108
Rp2109
(dp2110
bag2
(g1479
g86
tp2111
Rp2112
(dp2113
bag91
(g1212
g86
tp2114
Rp2115
(dp2116
bag91
(g1230
g86
tp2117
Rp2118
(dp2119
bag91
(g17
g86
tp2120
Rp2121
(dp2122
bag2
(g108
g86
tp2123
Rp2124
(dp2125
ba(lp2126
g2
(g123
g86
tp2127
Rp2128
(dp2129
batp2130
a((lp2131
g2
(g1836
g86
tp2132
Rp2133
(dp2134
bag2
(g1878
g86
tp2135
Rp2136
(dp2137
bag2
(g1857
g86
tp2138
Rp2139
(dp2140
bag91
(g1683
g86
tp2141
Rp2142
(dp2143
bag91
(g1527
g86
tp2144
Rp2145
(dp2146
bag91
(g1554
g86
tp2147
Rp2148
(dp2149
bag2
(g1359
g86
tp2150
Rp2151
(dp2152
bag91
(g1386
g86
tp2153
Rp2154
(dp2155
bag2
(g1479
g86
tp2156
Rp2157
(dp2158
bag91
(g1212
g86
tp2159
Rp2160
(dp2161
bag91
(g1230
g86
tp2162
Rp2163
(dp2164
bag91
(g17
g86
tp2165
Rp2166
(dp2167
bag2
(g108
g86
tp2168
Rp2169
(dp2170
ba(lp2171
g2
(g123
g86
tp2172
Rp2173
(dp2174
batp2175
a((lp2176
g2
(g1836
g86
tp2177
Rp2178
(dp2179
bag2
(g2019
g86
tp2180
Rp2181
(dp2182
bag2
(g1878
g86
tp2183
Rp2184
(dp2185
bag91
(g2040
g86
tp2186
Rp2187
(dp2188
bag91
(g3
(g9
(I330107761
I32
tp2189
Rp2190
(dp2191
bg8
(g4
(I30494000
tp2192
Rp2193
(dp2194
bg71
tp2195
Rp2196
(dp2197
bg8
(g4
(I11968000
tp2198
Rp2199
(dp2200
bg1347
tp2201
Rp2202
(dp2203
bg8
(g4
(I1280000
tp2204
Rp2205
(dp2206
bg1440
tp2207
Rp2208
(dp2209
bg8
(g4
(I30125470
tp2210
Rp2211
(dp2212
bg59
tp2213
Rp2214
(dp2215
btp2216
Rp2217
(dp2218
bg86
tp2219
Rp2220
(dp2221
bag2
(g1857
g86
tp2222
Rp2223
(dp2224
bag91
(g1683
g86
tp2225
Rp2226
(dp2227
bag91
(g1527
g86
tp2228
Rp2229
(dp2230
bag91
(g1554
g86
tp2231
Rp2232
(dp2233
bag2
(g1359
g86
tp2234
Rp2235
(dp2236
bag91
(g1386
g86
tp2237
Rp2238
(dp2239
bag2
(g1479
g86
tp2240
Rp2241
(dp2242
bag91
(g1212
g86
tp2243
Rp2244
(dp2245
bag91
(g1230
g86
tp2246
Rp2247
(dp2248
bag91
(g17
g86
tp2249
Rp2250
(dp2251
bag2
(g108
g86
tp2252
Rp2253
(dp2254
ba(lp2255
g2
(g123
g86
tp2256
Rp2257
(dp2258
batp2259
a((lp2260
g2
(g1836
g86
tp2261
Rp2262
(dp2263
bag91
(g2040
g86
tp2264
Rp2265
(dp2266
bag91
(g1878
g86
tp2267
Rp2268
(dp2269
bag2
(g1857
g86
tp2270
Rp2271
(dp2272
bag91
(g1683
g86
tp2273
Rp2274
(dp2275
bag91
(g1527
g86
tp2276
Rp2277
(dp2278
bag91
(g1554
g86
tp2279
Rp2280
(dp2281
bag2
(g1359
g86
tp2282
Rp2283
(dp2284
bag91
(g1386
g86
tp2285
Rp2286
(dp2287
bag2
(g1479
g86
tp2288
Rp2289
(dp2290
bag91
(g1212
g86
tp2291
Rp2292
(dp2293
bag91
(g1230
g86
tp2294
Rp2295
(dp2296
bag91
(g17
g86
tp2297
Rp2298
(dp2299
bag2
(g108
g86
tp2300
Rp2301
(dp2302
ba(lp2303
g2
(g123
g86
tp2304
Rp2305
(dp2306
batp2307
a((lp2308
g2
(g1836
g86
tp2309
Rp2310
(dp2311
bag2
(g2040
g86
tp2312
Rp2313
(dp2314
bag2
(g1878
g86
tp2315
Rp2316
(dp2317
bag2
(g1857
g86
tp2318
Rp2319
(dp2320
bag91
(g1683
g86
tp2321
Rp2322
(dp2323
bag91
(g1527
g86
tp2324
Rp2325
(dp2326
bag91
(g1554
g86
tp2327
Rp2328
(dp2329
bag2
(g1359
g86
tp2330
Rp2331
(dp2332
bag91
(g1386
g86
tp2333
Rp2334
(dp2335
bag2
(g1479
g86
tp2336
Rp2337
(dp2338
bag91
(g1212
g86
tp2339
Rp2340
(dp2341
bag91
(g1230
g86
tp2342
Rp2343
(dp2344
bag91
(g17
g86
tp2345
Rp2346
(dp2347
bag2
(g108
g86
tp2348
Rp2349
(dp2350
ba(lp2351
g2
(g123
g86
tp2352
Rp2353
(dp2354
batp2355
a((lp2356
g91
(g1878
g86
tp2357
Rp2358
(dp2359
bag2
(g1857
g86
tp2360
Rp2361
(dp2362
bag91
(g1683
g86
tp2363
Rp2364
(dp2365
bag91
(g1527
g86
tp2366
Rp2367
(dp2368
bag91
(g1554
g86
tp2369
Rp2370
(dp2371
bag2
(g1359
g86
tp2372
Rp2373
(dp2374
bag91
(g1386
g86
tp2375
Rp2376
(dp2377
bag2
(g1479
g86
tp2378
Rp2379
(dp2380
bag91
(g1212
g86
tp2381
Rp2382
(dp2383
bag91
(g1230
g86
tp2384
Rp2385
(dp2386
bag91
(g17
g86
tp2387
Rp2388
(dp2389
bag2
(g108
g86
tp2390
Rp2391
(dp2392
ba(lp2393
g2
(g123
g86
tp2394
Rp2395
(dp2396
batp2397
a((lp2398
g2
(g2019
g86
tp2399
Rp2400
(dp2401
bag91
(g1878
g86
tp2402
Rp2403
(dp2404
bag2
(g1857
g86
tp2405
Rp2406
(dp2407
bag91
(g1683
g86
tp2408
Rp2409
(dp2410
bag91
(g1527
g86
tp2411
Rp2412
(dp2413
bag91
(g1554
g86
tp2414
Rp2415
(dp2416
bag2
(g1359
g86
tp2417
Rp2418
(dp2419
bag91
(g1386
g86
tp2420
Rp2421
(dp2422
bag2
(g1479
g86
tp2423
Rp2424
(dp2425
bag91
(g1212
g86
tp2426
Rp2427
(dp2428
bag91
(g1230
g86
tp2429
Rp2430
(dp2431
bag91
(g17
g86
tp2432
Rp2433
(dp2434
bag2
(g108
g86
tp2435
Rp2436
(dp2437
ba(lp2438
g2
(g123
g86
tp2439
Rp2440
(dp2441
batp2442
a((lp2443
g2
(g1878
g86
tp2444
Rp2445
(dp2446
bag91
(g1878
g86
tp2447
Rp2448
(dp2449
bag2
(g1857
g86
tp2450
Rp2451
(dp2452
bag91
(g1683
g86
tp2453
Rp2454
(dp2455
bag91
(g1527
g86
tp2456
Rp2457
(dp2458
bag91
(g1554
g86
tp2459
Rp2460
(dp2461
bag2
(g1359
g86
tp2462
Rp2463
(dp2464
bag91
(g1386
g86
tp2465
Rp2466
(dp2467
bag2
(g1479
g86
tp2468
Rp2469
(dp2470
bag91
(g1212
g86
tp2471
Rp2472
(dp2473
bag91
(g1230
g86
tp2474
Rp2475
(dp2476
bag91
(g17
g86
tp2477
Rp2478
(dp2479
bag2
(g108
g86
tp2480
Rp2481
(dp2482
ba(lp2483
g2
(g123
g86
tp2484
Rp2485
(dp2486
batp2487
a((lp2488
g91
(g3
(g9
(L-198235881331L
I12008
tp2489
Rp2490
(dp2491
bg8
(g9
(L-438294583400L
I10507
tp2492
Rp2493
(dp2494
bg71
tp2495
Rp2496
(dp2497
bg8
(g4
(I-1280000
tp2498
Rp2499
(dp2500
bg1440
tp2501
Rp2502
(dp2503
bg8
(g9
(L-153734512000L
I10507
tp2504
Rp2505
(dp2506
bg1347
tp2507
Rp2508
(dp2509
bg8
(g9
(L-943245865865L
I21014
tp2510
Rp2511
(dp2512
bg59
tp2513
Rp2514
(dp2515
btp2516
Rp2517
(dp2518
bg86
tp2519
Rp2520
(dp2521
bag91
(g2019
g86
tp2522
Rp2523
(dp2524
bag91
(g1878
g86
tp2525
Rp2526
(dp2527
bag91
(g1683
g86
tp2528
Rp2529
(dp2530
bag91
(g1527
g86
tp2531
Rp2532
(dp2533
bag91
(g1554
g86
tp2534
Rp2535
(dp2536
bag91
(g1386
g86
tp2537
Rp2538
(dp2539
bag91
(g1212
g86
tp2540
Rp2541
(dp2542
bag91
(g1230
g86
tp2543
Rp2544
(dp2545
bag91
(g17
g86
tp2546
Rp2547
(dp2548
ba(lp2549
g2
(g123
g86
tp2550
Rp2551
(dp2552
batp2553
a((lp2554
g91
(g1878
g86
tp2555
Rp2556
(dp2557
bag91
(g3
(g9
(L198235881331L
I12008
tp2558
Rp2559
(dp2560
bg8
(g9
(L438294583400L
I10507
tp2561
Rp2562
(dp2563
bg71
tp2564
Rp2565
(dp2566
bg8
(g9
(L153734512000L
I10507
tp2567
Rp2568
(dp2569
bg1347
tp2570
Rp2571
(dp2572
bg8
(g9
(L943245865865L
I21014
tp2573
Rp2574
(dp2575
bg59
tp2576
Rp2577
(dp2578
bg2208
tp2579
Rp2580
(dp2581
bg86
tp2582
Rp2583
(dp2584
bag91
(g1878
g86
tp2585
Rp2586
(dp2587
bag91
(g1683
g86
tp2588
Rp2589
(dp2590
bag91
(g1527
g86
tp2591
Rp2592
(dp2593
bag91
(g1554
g86
tp2594
Rp2595
(dp2596
bag91
(g1386
g86
tp2597
Rp2598
(dp2599
bag91
(g1212
g86
tp2600
Rp2601
(dp2602
bag91
(g1230
g86
tp2603
Rp2604
(dp2605
bag91
(g17
g86
tp2606
Rp2607
(dp2608
ba(lp2609
g2
(g123
g86
tp2610
Rp2611
(dp2612
batp2613
a((lp2614
g91
(g1878
g86
tp2615
Rp2616
(dp2617
bag91
(g2580
g86
tp2618
Rp2619
(dp2620
bag91
(g1878
g86
tp2621
Rp2622
(dp2623
bag2
(g1857
g86
tp2624
Rp2625
(dp2626
bag91
(g1683
g86
tp2627
Rp2628
(dp2629
bag91
(g1527
g86
tp2630
Rp2631
(dp2632
bag91
(g1554
g86
tp2633
Rp2634
(dp2635
bag2
(g1359
g86
tp2636
Rp2637
(dp2638
bag91
(g1386
g86
tp2639
Rp2640
(dp2641
bag2
(g1479
g86
tp2642
Rp2643
(dp2644
bag91
(g1212
g86
tp2645
Rp2646
(dp2647
bag91
(g1230
g86
tp2648
Rp2649
(dp2650
bag91
(g17
g86
tp2651
Rp2652
(dp2653
bag2
(g108
g86
tp2654
Rp2655
(dp2656
ba(lp2657
g2
(g123
g86
tp2658
Rp2659
(dp2660
batp2661
a((lp2662
g2
(g1878
g86
tp2663
Rp2664
(dp2665
bag2
(g2580
g86
tp2666
Rp2667
(dp2668
bag91
(g1878
g86
tp2669
Rp2670
(dp2671
bag2
(g1857
g86
tp2672
Rp2673
(dp2674
bag91
(g1683
g86
tp2675
Rp2676
(dp2677
bag91
(g1527
g86
tp2678
Rp2679
(dp2680
bag91
(g1554
g86
tp2681
Rp2682
(dp2683
bag2
(g1359
g86
tp2684
Rp2685
(dp2686
bag91
(g1386
g86
tp2687
Rp2688
(dp2689
bag2
(g1479
g86
tp2690
Rp2691
(dp2692
bag91
(g1212
g86
tp2693
Rp2694
(dp2695
bag91
(g1230
g86
tp2696
Rp2697
(dp2698
bag91
(g17
g86
tp2699
Rp2700
(dp2701
bag2
(g108
g86
tp2702
Rp2703
(dp2704
ba(lp2705
g2
(g123
g86
tp2706
Rp2707
(dp2708
batp2709
a((lp2710
g2
(g2019
g86
tp2711
Rp2712
(dp2713
bag91
(g1878
g86
tp2714
Rp2715
(dp2716
bag2
(g1857
g86
tp2717
Rp2718
(dp2719
bag91
(g1683
g86
tp2720
Rp2721
(dp2722
bag91
(g1527
g86
tp2723
Rp2724
(dp2725
bag91
(g1554
g86
tp2726
Rp2727
(dp2728
bag2
(g1359
g86
tp2729
Rp2730
(dp2731
bag91
(g1386
g86
tp2732
Rp2733
(dp2734
bag2
(g1479
g86
tp2735
Rp2736
(dp2737
bag91
(g1212
g86
tp2738
Rp2739
(dp2740
bag91
(g1230
g86
tp2741
Rp2742
(dp2743
bag91
(g17
g86
tp2744
Rp2745
(dp2746
bag2
(g108
g86
tp2747
Rp2748
(dp2749
ba(lp2750
g2
(g123
g86
tp2751
Rp2752
(dp2753
batp2754
a((lp2755
g91
(g2580
g86
tp2756
Rp2757
(dp2758
bag2
(g2019
g86
tp2759
Rp2760
(dp2761
bag91
(g1878
g86
tp2762
Rp2763
(dp2764
bag2
(g1857
g86
tp2765
Rp2766
(dp2767
bag91
(g1683
g86
tp2768
Rp2769
(dp2770
bag91
(g1527
g86
tp2771
Rp2772
(dp2773
bag91
(g1554
g86
tp2774
Rp2775
(dp2776
bag2
(g1359
g86
tp2777
Rp2778
(dp2779
bag91
(g1386
g86
tp2780
Rp2781
(dp2782
bag2
(g1479
g86
tp2783
Rp2784
(dp2785
bag91
(g1212
g86
tp2786
Rp2787
(dp2788
bag91
(g1230
g86
tp2789
Rp2790
(dp2791
bag91
(g17
g86
tp2792
Rp2793
(dp2794
bag2
(g108
g86
tp2795
Rp2796
(dp2797
ba(lp2798
g2
(g123
g86
tp2799
Rp2800
(dp2801
batp2802
a((lp2803
g91
(g3
(g9
(I-528049453
I32
tp2804
Rp2805
(dp2806
bg8
(g9
(I-314087260
I7
tp2807
Rp2808
(dp2809
bg59
tp2810
Rp2811
(dp2812
bg2502
g8
(g9
(I-291911600
I7
tp2813
Rp2814
(dp2815
bg71
tp2816
Rp2817
(dp2818
bg8
(g9
(I-102400000
I7
tp2819
Rp2820
(dp2821
bg1347
tp2822
Rp2823
(dp2824
btp2825
Rp2826
(dp2827
bg86
tp2828
Rp2829
(dp2830
bag91
(g2019
g86
tp2831
Rp2832
(dp2833
bag91
(g2580
g86
tp2834
Rp2835
(dp2836
bag91
(g1878
g86
tp2837
Rp2838
(dp2839
bag91
(g1683
g86
tp2840
Rp2841
(dp2842
bag91
(g1527
g86
tp2843
Rp2844
(dp2845
bag91
(g1554
g86
tp2846
Rp2847
(dp2848
bag91
(g1386
g86
tp2849
Rp2850
(dp2851
bag91
(g1212
g86
tp2852
Rp2853
(dp2854
bag91
(g1230
g86
tp2855
Rp2856
(dp2857
bag91
(g17
g86
tp2858
Rp2859
(dp2860
ba(lp2861
g2
(g123
g86
tp2862
Rp2863
(dp2864
batp2865
a((lp2866
g2
(g2019
g86
tp2867
Rp2868
(dp2869
bag91
(g2580
g86
tp2870
Rp2871
(dp2872
bag2
(g2019
g86
tp2873
Rp2874
(dp2875
bag91
(g1878
g86
tp2876
Rp2877
(dp2878
bag2
(g1857
g86
tp2879
Rp2880
(dp2881
bag91
(g1683
g86
tp2882
Rp2883
(dp2884
bag91
(g1527
g86
tp2885
Rp2886
(dp2887
bag91
(g1554
g86
tp2888
Rp2889
(dp2890
bag2
(g1359
g86
tp2891
Rp2892
(dp2893
bag91
(g1386
g86
tp2894
Rp2895
(dp2896
bag2
(g1479
g86
tp2897
Rp2898
(dp2899
bag91
(g1212
g86
tp2900
Rp2901
(dp2902
bag91
(g1230
g86
tp2903
Rp2904
(dp2905
bag91
(g17
g86
tp2906
Rp2907
(dp2908
bag2
(g108
g86
tp2909
Rp2910
(dp2911
ba(lp2912
g2
(g123
g86
tp2913
Rp2914
(dp2915
batp2916
a((lp2917
g91
(g1878
g86
tp2918
Rp2919
(dp2920
bag91
(g3
(g9
(I528049453
I32
tp2921
Rp2922
(dp2923
bg8
(g9
(I314087260
I7
tp2924
Rp2925
(dp2926
bg59
tp2927
Rp2928
(dp2929
bg8
(g9
(I102400000
I7
tp2930
Rp2931
(dp2932
bg1347
tp2933
Rp2934
(dp2935
bg2208
g8
(g9
(I291911600
I7
tp2936
Rp2937
(dp2938
bg71
tp2939
Rp2940
(dp2941
btp2942
Rp2943
(dp2944
bg86
tp2945
Rp2946
(dp2947
bag91
(g2580
g86
tp2948
Rp2949
(dp2950
bag91
(g1878
g86
tp2951
Rp2952
(dp2953
bag91
(g1683
g86
tp2954
Rp2955
(dp2956
bag91
(g1527
g86
tp2957
Rp2958
(dp2959
bag91
(g1554
g86
tp2960
Rp2961
(dp2962
bag91
(g1386
g86
tp2963
Rp2964
(dp2965
bag91
(g1212
g86
tp2966
Rp2967
(dp2968
bag91
(g1230
g86
tp2969
Rp2970
(dp2971
bag91
(g17
g86
tp2972
Rp2973
(dp2974
ba(lp2975
g2
(g123
g86
tp2976
Rp2977
(dp2978
batp2979
a((lp2980
g91
(g1878
g86
tp2981
Rp2982
(dp2983
bag91
(g2943
g86
tp2984
Rp2985
(dp2986
bag91
(g2580
g86
tp2987
Rp2988
(dp2989
bag2
(g2019
g86
tp2990
Rp2991
(dp2992
bag91
(g1878
g86
tp2993
Rp2994
(dp2995
bag2
(g1857
g86
tp2996
Rp2997
(dp2998
bag91
(g1683
g86
tp2999
Rp3000
(dp3001
bag91
(g1527
g86
tp3002
Rp3003
(dp3004
bag91
(g1554
g86
tp3005
Rp3006
(dp3007
bag2
(g1359
g86
tp3008
Rp3009
(dp3010
bag91
(g1386
g86
tp3011
Rp3012
(dp3013
bag2
(g1479
g86
tp3014
Rp3015
(dp3016
bag91
(g1212
g86
tp3017
Rp3018
(dp3019
bag91
(g1230
g86
tp3020
Rp3021
(dp3022
bag91
(g17
g86
tp3023
Rp3024
(dp3025
bag2
(g108
g86
tp3026
Rp3027
(dp3028
ba(lp3029
g2
(g123
g86
tp3030
Rp3031
(dp3032
batp3033
a((lp3034
g2
(g1878
g86
tp3035
Rp3036
(dp3037
bag2
(g2943
g86
tp3038
Rp3039
(dp3040
bag91
(g2580
g86
tp3041
Rp3042
(dp3043
bag2
(g2019
g86
tp3044
Rp3045
(dp3046
bag91
(g1878
g86
tp3047
Rp3048
(dp3049
bag2
(g1857
g86
tp3050
Rp3051
(dp3052
bag91
(g1683
g86
tp3053
Rp3054
(dp3055
bag91
(g1527
g86
tp3056
Rp3057
(dp3058
bag91
(g1554
g86
tp3059
Rp3060
(dp3061
bag2
(g1359
g86
tp3062
Rp3063
(dp3064
bag91
(g1386
g86
tp3065
Rp3066
(dp3067
bag2
(g1479
g86
tp3068
Rp3069
(dp3070
bag91
(g1212
g86
tp3071
Rp3072
(dp3073
bag91
(g1230
g86
tp3074
Rp3075
(dp3076
bag91
(g17
g86
tp3077
Rp3078
(dp3079
bag2
(g108
g86
tp3080
Rp3081
(dp3082
ba(lp3083
g2
(g123
g86
tp3084
Rp3085
(dp3086
batp3087
a((lp3088
g2
(g2019
g86
tp3089
Rp3090
(dp3091
bag91
(g2580
g86
tp3092
Rp3093
(dp3094
bag2
(g2019
g86
tp3095
Rp3096
(dp3097
bag91
(g1878
g86
tp3098
Rp3099
(dp3100
bag2
(g1857
g86
tp3101
Rp3102
(dp3103
bag91
(g1683
g86
tp3104
Rp3105
(dp3106
bag91
(g1527
g86
tp3107
Rp3108
(dp3109
bag91
(g1554
g86
tp3110
Rp3111
(dp3112
bag2
(g1359
g86
tp3113
Rp3114
(dp3115
bag91
(g1386
g86
tp3116
Rp3117
(dp3118
bag2
(g1479
g86
tp3119
Rp3120
(dp3121
bag91
(g1212
g86
tp3122
Rp3123
(dp3124
bag91
(g1230
g86
tp3125
Rp3126
(dp3127
bag91
(g17
g86
tp3128
Rp3129
(dp3130
bag2
(g108
g86
tp3131
Rp3132
(dp3133
ba(lp3134
g2
(g123
g86
tp3135
Rp3136
(dp3137
batp3138
a((lp3139
g91
(g2943
g86
tp3140
Rp3141
(dp3142
bag91
(g2580
g86
tp3143
Rp3144
(dp3145
bag91
(g1878
g86
tp3146
Rp3147
(dp3148
bag91
(g1683
g86
tp3149
Rp3150
(dp3151
bag91
(g1527
g86
tp3152
Rp3153
(dp3154
bag91
(g1554
g86
tp3155
Rp3156
(dp3157
bag91
(g1386
g86
tp3158
Rp3159
(dp3160
bag91
(g1212
g86
tp3161
Rp3162
(dp3163
bag91
(g1230
g86
tp3164
Rp3165
(dp3166
bag91
(g17
g86
tp3167
Rp3168
(dp3169
ba(lp3170
g2
(g123
g86
tp3171
Rp3172
(dp3173
batp3174
a((lp3175
g91
(g2943
g86
tp3176
Rp3177
(dp3178
bag91
(g2580
g86
tp3179
Rp3180
(dp3181
bag2
(g2019
g86
tp3182
Rp3183
(dp3184
bag91
(g1878
g86
tp3185
Rp3186
(dp3187
bag2
(g1857
g86
tp3188
Rp3189
(dp3190
bag91
(g1683
g86
tp3191
Rp3192
(dp3193
bag91
(g1527
g86
tp3194
Rp3195
(dp3196
bag91
(g1554
g86
tp3197
Rp3198
(dp3199
bag2
(g1359
g86
tp3200
Rp3201
(dp3202
bag91
(g1386
g86
tp3203
Rp3204
(dp3205
bag2
(g1479
g86
tp3206
Rp3207
(dp3208
bag91
(g1212
g86
tp3209
Rp3210
(dp3211
bag91
(g1230
g86
tp3212
Rp3213
(dp3214
bag91
(g17
g86
tp3215
Rp3216
(dp3217
bag2
(g108
g86
tp3218
Rp3219
(dp3220
ba(lp3221
g2
(g123
g86
tp3222
Rp3223
(dp3224
batp3225
a((lp3226
g91
(g3
(g9
(I-558658993
I32
tp3227
Rp3228
(dp3229
bg2502
g8
(g4
(I-43434800
tp3230
Rp3231
(dp3232
bg71
tp3233
Rp3234
(dp3235
bg8
(g4
(I-47149630
tp3236
Rp3237
(dp3238
bg59
tp3239
Rp3240
(dp3241
bg8
(g4
(I-15040000
tp3242
Rp3243
(dp3244
bg1347
tp3245
Rp3246
(dp3247
btp3248
Rp3249
(dp3250
bg86
tp3251
Rp3252
(dp3253
bag91
(g2019
g86
tp3254
Rp3255
(dp3256
bag91
(g2943
g86
tp3257
Rp3258
(dp3259
bag91
(g2580
g86
tp3260
Rp3261
(dp3262
bag91
(g1878
g86
tp3263
Rp3264
(dp3265
bag91
(g1683
g86
tp3266
Rp3267
(dp3268
bag91
(g1527
g86
tp3269
Rp3270
(dp3271
bag91
(g1554
g86
tp3272
Rp3273
(dp3274
bag91
(g1386
g86
tp3275
Rp3276
(dp3277
bag91
(g1212
g86
tp3278
Rp3279
(dp3280
bag91
(g1230
g86
tp3281
Rp3282
(dp3283
bag91
(g17
g86
tp3284
Rp3285
(dp3286
ba(lp3287
g2
(g123
g86
tp3288
Rp3289
(dp3290
batp3291
a((lp3292
g2
(g2019
g86
tp3293
Rp3294
(dp3295
bag91
(g2943
g86
tp3296
Rp3297
(dp3298
bag91
(g2580
g86
tp3299
Rp3300
(dp3301
bag2
(g2019
g86
tp3302
Rp3303
(dp3304
bag91
(g1878
g86
tp3305
Rp3306
(dp3307
bag2
(g1857
g86
tp3308
Rp3309
(dp3310
bag91
(g1683
g86
tp3311
Rp3312
(dp3313
bag91
(g1527
g86
tp3314
Rp3315
(dp3316
bag91
(g1554
g86
tp3317
Rp3318
(dp3319
bag2
(g1359
g86
tp3320
Rp3321
(dp3322
bag91
(g1386
g86
tp3323
Rp3324
(dp3325
bag2
(g1479
g86
tp3326
Rp3327
(dp3328
bag91
(g1212
g86
tp3329
Rp3330
(dp3331
bag91
(g1230
g86
tp3332
Rp3333
(dp3334
bag91
(g17
g86
tp3335
Rp3336
(dp3337
bag2
(g108
g86
tp3338
Rp3339
(dp3340
ba(lp3341
g2
(g123
g86
tp3342
Rp3343
(dp3344
batp3345
a((lp3346
g91
(g1878
g86
tp3347
Rp3348
(dp3349
bag91
(g3
(g9
(I558658993
I32
tp3350
Rp3351
(dp3352
bg8
(g4
(I15040000
tp3353
Rp3354
(dp3355
bg1347
tp3356
Rp3357
(dp3358
bg8
(g4
(I47149630
tp3359
Rp3360
(dp3361
bg59
tp3362
Rp3363
(dp3364
bg2208
g8
(g4
(I43434800
tp3365
Rp3366
(dp3367
bg71
tp3368
Rp3369
(dp3370
btp3371
Rp3372
(dp3373
bg86
tp3374
Rp3375
(dp3376
bag91
(g2943
g86
tp3377
Rp3378
(dp3379
bag91
(g2580
g86
tp3380
Rp3381
(dp3382
bag91
(g1878
g86
tp3383
Rp3384
(dp3385
bag91
(g1683
g86
tp3386
Rp3387
(dp3388
bag91
(g1527
g86
tp3389
Rp3390
(dp3391
bag91
(g1554
g86
tp3392
Rp3393
(dp3394
bag91
(g1386
g86
tp3395
Rp3396
(dp3397
bag91
(g1212
g86
tp3398
Rp3399
(dp3400
bag91
(g1230
g86
tp3401
Rp3402
(dp3403
bag91
(g17
g86
tp3404
Rp3405
(dp3406
ba(lp3407
g2
(g123
g86
tp3408
Rp3409
(dp3410
batp3411
a((lp3412
g91
(g1878
g86
tp3413
Rp3414
(dp3415
bag91
(g3372
g86
tp3416
Rp3417
(dp3418
bag91
(g2943
g86
tp3419
Rp3420
(dp3421
bag91
(g2580
g86
tp3422
Rp3423
(dp3424
bag2
(g2019
g86
tp3425
Rp3426
(dp3427
bag91
(g1878
g86
tp3428
Rp3429
(dp3430
bag2
(g1857
g86
tp3431
Rp3432
(dp3433
bag91
(g1683
g86
tp3434
Rp3435
(dp3436
bag91
(g1527
g86
tp3437
Rp3438
(dp3439
bag91
(g1554
g86
tp3440
Rp3441
(dp3442
bag2
(g1359
g86
tp3443
Rp3444
(dp3445
bag91
(g1386
g86
tp3446
Rp3447
(dp3448
bag2
(g1479
g86
tp3449
Rp3450
(dp3451
bag91
(g1212
g86
tp3452
Rp3453
(dp3454
bag91
(g1230
g86
tp3455
Rp3456
(dp3457
bag91
(g17
g86
tp3458
Rp3459
(dp3460
bag2
(g108
g86
tp3461
Rp3462
(dp3463
ba(lp3464
g2
(g123
g86
tp3465
Rp3466
(dp3467
batp3468
a((lp3469
g2
(g1878
g86
tp3470
Rp3471
(dp3472
bag2
(g3372
g86
tp3473
Rp3474
(dp3475
bag91
(g2943
g86
tp3476
Rp3477
(dp3478
bag91
(g2580
g86
tp3479
Rp3480
(dp3481
bag2
(g2019
g86
tp3482
Rp3483
(dp3484
bag91
(g1878
g86
tp3485
Rp3486
(dp3487
bag2
(g1857
g86
tp3488
Rp3489
(dp3490
bag91
(g1683
g86
tp3491
Rp3492
(dp3493
bag91
(g1527
g86
tp3494
Rp3495
(dp3496
bag91
(g1554
g86
tp3497
Rp3498
(dp3499
bag2
(g1359
g86
tp3500
Rp3501
(dp3502
bag91
(g1386
g86
tp3503
Rp3504
(dp3505
bag2
(g1479
g86
tp3506
Rp3507
(dp3508
bag91
(g1212
g86
tp3509
Rp3510
(dp3511
bag91
(g1230
g86
tp3512
Rp3513
(dp3514
bag91
(g17
g86
tp3515
Rp3516
(dp3517
bag2
(g108
g86
tp3518
Rp3519
(dp3520
ba(lp3521
g2
(g123
g86
tp3522
Rp3523
(dp3524
batp3525
a((lp3526
g2
(g2019
g86
tp3527
Rp3528
(dp3529
bag91
(g2943
g86
tp3530
Rp3531
(dp3532
bag91
(g2580
g86
tp3533
Rp3534
(dp3535
bag2
(g2019
g86
tp3536
Rp3537
(dp3538
bag91
(g1878
g86
tp3539
Rp3540
(dp3541
bag2
(g1857
g86
tp3542
Rp3543
(dp3544
bag91
(g1683
g86
tp3545
Rp3546
(dp3547
bag91
(g1527
g86
tp3548
Rp3549
(dp3550
bag91
(g1554
g86
tp3551
Rp3552
(dp3553
bag2
(g1359
g86
tp3554
Rp3555
(dp3556
bag91
(g1386
g86
tp3557
Rp3558
(dp3559
bag2
(g1479
g86
tp3560
Rp3561
(dp3562
bag91
(g1212
g86
tp3563
Rp3564
(dp3565
bag91
(g1230
g86
tp3566
Rp3567
(dp3568
bag91
(g17
g86
tp3569
Rp3570
(dp3571
bag2
(g108
g86
tp3572
Rp3573
(dp3574
ba(lp3575
g2
(g123
g86
tp3576
Rp3577
(dp3578
batp3579
a((lp3580
g91
(g3372
g86
tp3581
Rp3582
(dp3583
bag91
(g2943
g86
tp3584
Rp3585
(dp3586
bag91
(g2580
g86
tp3587
Rp3588
(dp3589
bag91
(g1878
g86
tp3590
Rp3591
(dp3592
bag91
(g1683
g86
tp3593
Rp3594
(dp3595
bag91
(g1527
g86
tp3596
Rp3597
(dp3598
bag91
(g1554
g86
tp3599
Rp3600
(dp3601
bag91
(g1386
g86
tp3602
Rp3603
(dp3604
bag91
(g1212
g86
tp3605
Rp3606
(dp3607
bag91
(g1230
g86
tp3608
Rp3609
(dp3610
bag91
(g17
g86
tp3611
Rp3612
(dp3613
ba(lp3614
g2
(g123
g86
tp3615
Rp3616
(dp3617
batp3618
a((lp3619
g91
(g3372
g86
tp3620
Rp3621
(dp3622
bag91
(g2943
g86
tp3623
Rp3624
(dp3625
bag91
(g2580
g86
tp3626
Rp3627
(dp3628
bag2
(g2019
g86
tp3629
Rp3630
(dp3631
bag91
(g1878
g86
tp3632
Rp3633
(dp3634
bag2
(g1857
g86
tp3635
Rp3636
(dp3637
bag91
(g1683
g86
tp3638
Rp3639
(dp3640
bag91
(g1527
g86
tp3641
Rp3642
(dp3643
bag91
(g1554
g86
tp3644
Rp3645
(dp3646
bag2
(g1359
g86
tp3647
Rp3648
(dp3649
bag91
(g1386
g86
tp3650
Rp3651
(dp3652
bag2
(g1479
g86
tp3653
Rp3654
(dp3655
bag91
(g1212
g86
tp3656
Rp3657
(dp3658
bag91
(g1230
g86
tp3659
Rp3660
(dp3661
bag91
(g17
g86
tp3662
Rp3663
(dp3664
bag2
(g108
g86
tp3665
Rp3666
(dp3667
ba(lp3668
g2
(g123
g86
tp3669
Rp3670
(dp3671
batp3672
a((lp3673
g2
(g3
(g93
g199
tp3674
Rp3675
(dp3676
bg86
tp3677
Rp3678
(dp3679
bag91
(g3372
g86
tp3680
Rp3681
(dp3682
bag91
(g2943
g86
tp3683
Rp3684
(dp3685
bag91
(g2580
g86
tp3686
Rp3687
(dp3688
bag2
(g2019
g86
tp3689
Rp3690
(dp3691
bag91
(g1878
g86
tp3692
Rp3693
(dp3694
bag2
(g1857
g86
tp3695
Rp3696
(dp3697
bag91
(g1683
g86
tp3698
Rp3699
(dp3700
bag91
(g1527
g86
tp3701
Rp3702
(dp3703
bag91
(g1554
g86
tp3704
Rp3705
(dp3706
bag2
(g1359
g86
tp3707
Rp3708
(dp3709
bag91
(g1386
g86
tp3710
Rp3711
(dp3712
bag2
(g1479
g86
tp3713
Rp3714
(dp3715
bag91
(g1212
g86
tp3716
Rp3717
(dp3718
bag91
(g1230
g86
tp3719
Rp3720
(dp3721
bag91
(g17
g86
tp3722
Rp3723
(dp3724
bag2
(g108
g86
tp3725
Rp3726
(dp3727
ba(lp3728
g2
(g123
g86
tp3729
Rp3730
(dp3731
batp3732
a((lp3733
g2
(g96
g86
tp3734
Rp3735
(dp3736
bag91
(g3372
g86
tp3737
Rp3738
(dp3739
bag91
(g2943
g86
tp3740
Rp3741
(dp3742
bag91
(g2580
g86
tp3743
Rp3744
(dp3745
bag2
(g2019
g86
tp3746
Rp3747
(dp3748
bag91
(g1878
g86
tp3749
Rp3750
(dp3751
bag2
(g1857
g86
tp3752
Rp3753
(dp3754
bag91
(g1683
g86
tp3755
Rp3756
(dp3757
bag91
(g1527
g86
tp3758
Rp3759
(dp3760
bag91
(g1554
g86
tp3761
Rp3762
(dp3763
bag2
(g1359
g86
tp3764
Rp3765
(dp3766
bag91
(g1386
g86
tp3767
Rp3768
(dp3769
bag2
(g1479
g86
tp3770
Rp3771
(dp3772
bag91
(g1212
g86
tp3773
Rp3774
(dp3775
bag91
(g1230
g86
tp3776
Rp3777
(dp3778
bag91
(g17
g86
tp3779
Rp3780
(dp3781
bag2
(g108
g86
tp3782
Rp3783
(dp3784
ba(lp3785
g2
(g123
g86
tp3786
Rp3787
(dp3788
batp3789
a((lp3790
g2
(g199
g86
tp3791
Rp3792
(dp3793
bag91
(g3372
g86
tp3794
Rp3795
(dp3796
bag91
(g2943
g86
tp3797
Rp3798
(dp3799
bag91
(g2580
g86
tp3800
Rp3801
(dp3802
bag2
(g2019
g86
tp3803
Rp3804
(dp3805
bag91
(g1878
g86
tp3806
Rp3807
(dp3808
bag2
(g1857
g86
tp3809
Rp3810
(dp3811
bag91
(g1683
g86
tp3812
Rp3813
(dp3814
bag91
(g1527
g86
tp3815
Rp3816
(dp3817
bag91
(g1554
g86
tp3818
Rp3819
(dp3820
bag2
(g1359
g86
tp3821
Rp3822
(dp3823
bag91
(g1386
g86
tp3824
Rp3825
(dp3826
bag2
(g1479
g86
tp3827
Rp3828
(dp3829
bag91
(g1212
g86
tp3830
Rp3831
(dp3832
bag91
(g1230
g86
tp3833
Rp3834
(dp3835
bag91
(g17
g86
tp3836
Rp3837
(dp3838
bag2
(g108
g86
tp3839
Rp3840
(dp3841
ba(lp3842
g2
(g123
g86
tp3843
Rp3844
(dp3845
batp3846
a((lp3847
g91
(g3
(g9
(I2
I5
tp3848
Rp3849
(dp3850
bg17
tp3851
Rp3852
(dp3853
bg86
tp3854
Rp3855
(dp3856
bag91
(g3372
g86
tp3857
Rp3858
(dp3859
bag91
(g2943
g86
tp3860
Rp3861
(dp3862
bag91
(g2580
g86
tp3863
Rp3864
(dp3865
bag91
(g1878
g86
tp3866
Rp3867
(dp3868
bag91
(g1683
g86
tp3869
Rp3870
(dp3871
bag91
(g1527
g86
tp3872
Rp3873
(dp3874
bag91
(g1554
g86
tp3875
Rp3876
(dp3877
bag91
(g1386
g86
tp3878
Rp3879
(dp3880
bag91
(g1212
g86
tp3881
Rp3882
(dp3883
bag91
(g1230
g86
tp3884
Rp3885
(dp3886
bag91
(g17
g86
tp3887
Rp3888
(dp3889
ba(lp3890
g2
(g123
g86
tp3891
Rp3892
(dp3893
batp3894
a((lp3895
g2
(g199
g86
tp3896
Rp3897
(dp3898
bag91
(g3852
g86
tp3899
Rp3900
(dp3901
bag91
(g3372
g86
tp3902
Rp3903
(dp3904
bag91
(g2943
g86
tp3905
Rp3906
(dp3907
bag91
(g2580
g86
tp3908
Rp3909
(dp3910
bag2
(g2019
g86
tp3911
Rp3912
(dp3913
bag91
(g1878
g86
tp3914
Rp3915
(dp3916
bag2
(g1857
g86
tp3917
Rp3918
(dp3919
bag91
(g1683
g86
tp3920
Rp3921
(dp3922
bag91
(g1527
g86
tp3923
Rp3924
(dp3925
bag91
(g1554
g86
tp3926
Rp3927
(dp3928
bag2
(g1359
g86
tp3929
Rp3930
(dp3931
bag91
(g1386
g86
tp3932
Rp3933
(dp3934
bag2
(g1479
g86
tp3935
Rp3936
(dp3937
bag91
(g1212
g86
tp3938
Rp3939
(dp3940
bag91
(g1230
g86
tp3941
Rp3942
(dp3943
bag91
(g17
g86
tp3944
Rp3945
(dp3946
bag2
(g108
g86
tp3947
Rp3948
(dp3949
ba(lp3950
g2
(g123
g86
tp3951
Rp3952
(dp3953
batp3954
a((lp3955
g91
(g123
g86
tp3956
Rp3957
(dp3958
bag91
(g17
g86
tp3959
Rp3960
(dp3961
bag91
(g1230
g86
tp3962
Rp3963
(dp3964
bag91
(g1212
g86
tp3965
Rp3966
(dp3967
bag91
(g1386
g86
tp3968
Rp3969
(dp3970
bag91
(g1554
g86
tp3971
Rp3972
(dp3973
bag91
(g1527
g86
tp3974
Rp3975
(dp3976
bag91
(g1683
g86
tp3977
Rp3978
(dp3979
bag91
(g1878
g86
tp3980
Rp3981
(dp3982
bag91
(g2580
g86
tp3983
Rp3984
(dp3985
bag91
(g2943
g86
tp3986
Rp3987
(dp3988
ba(lp3989
g2
(g3372
g86
tp3990
Rp3991
(dp3992
batp3993
a((lp3994
g2
(g3675
g86
tp3995
Rp3996
(dp3997
bag91
(g123
g86
tp3998
Rp3999
(dp4000
bag2
(g108
g86
tp4001
Rp4002
(dp4003
bag91
(g17
g86
tp4004
Rp4005
(dp4006
bag91
(g1230
g86
tp4007
Rp4008
(dp4009
bag91
(g1212
g86
tp4010
Rp4011
(dp4012
bag2
(g1479
g86
tp4013
Rp4014
(dp4015
bag91
(g1386
g86
tp4016
Rp4017
(dp4018
bag2
(g1359
g86
tp4019
Rp4020
(dp4021
bag91
(g1554
g86
tp4022
Rp4023
(dp4024
bag91
(g1527
g86
tp4025
Rp4026
(dp4027
bag91
(g1683
g86
tp4028
Rp4029
(dp4030
bag2
(g1857
g86
tp4031
Rp4032
(dp4033
bag91
(g1878
g86
tp4034
Rp4035
(dp4036
bag2
(g2019
g86
tp4037
Rp4038
(dp4039
bag91
(g2580
g86
tp4040
Rp4041
(dp4042
bag91
(g2943
g86
tp4043
Rp4044
(dp4045
ba(lp4046
g2
(g3372
g86
tp4047
Rp4048
(dp4049
batp4050
a((lp4051
g2
(g96
g86
tp4052
Rp4053
(dp4054
bag91
(g123
g86
tp4055
Rp4056
(dp4057
bag2
(g108
g86
tp4058
Rp4059
(dp4060
bag91
(g17
g86
tp4061
Rp4062
(dp4063
bag91
(g1230
g86
tp4064
Rp4065
(dp4066
bag91
(g1212
g86
tp4067
Rp4068
(dp4069
bag2
(g1479
g86
tp4070
Rp4071
(dp4072
bag91
(g1386
g86
tp4073
Rp4074
(dp4075
bag2
(g1359
g86
tp4076
Rp4077
(dp4078
bag91
(g1554
g86
tp4079
Rp4080
(dp4081
bag91
(g1527
g86
tp4082
Rp4083
(dp4084
bag91
(g1683
g86
tp4085
Rp4086
(dp4087
bag2
(g1857
g86
tp4088
Rp4089
(dp4090
bag91
(g1878
g86
tp4091
Rp4092
(dp4093
bag2
(g2019
g86
tp4094
Rp4095
(dp4096
bag91
(g2580
g86
tp4097
Rp4098
(dp4099
bag91
(g2943
g86
tp4100
Rp4101
(dp4102
ba(lp4103
g2
(g3372
g86
tp4104
Rp4105
(dp4106
batp4107
a((lp4108
g2
(g199
g86
tp4109
Rp4110
(dp4111
bag91
(g123
g86
tp4112
Rp4113
(dp4114
bag2
(g108
g86
tp4115
Rp4116
(dp4117
bag91
(g17
g86
tp4118
Rp4119
(dp4120
bag91
(g1230
g86
tp4121
Rp4122
(dp4123
bag91
(g1212
g86
tp4124
Rp4125
(dp4126
bag2
(g1479
g86
tp4127
Rp4128
(dp4129
bag91
(g1386
g86
tp4130
Rp4131
(dp4132
bag2
(g1359
g86
tp4133
Rp4134
(dp4135
bag91
(g1554
g86
tp4136
Rp4137
(dp4138
bag91
(g1527
g86
tp4139
Rp4140
(dp4141
bag91
(g1683
g86
tp4142
Rp4143
(dp4144
bag2
(g1857
g86
tp4145
Rp4146
(dp4147
bag91
(g1878
g86
tp4148
Rp4149
(dp4150
bag2
(g2019
g86
tp4151
Rp4152
(dp4153
bag91
(g2580
g86
tp4154
Rp4155
(dp4156
bag91
(g2943
g86
tp4157
Rp4158
(dp4159
ba(lp4160
g2
(g3372
g86
tp4161
Rp4162
(dp4163
batp4164
a((lp4165
g91
(g3852
g86
tp4166
Rp4167
(dp4168
bag91
(g123
g86
tp4169
Rp4170
(dp4171
bag91
(g17
g86
tp4172
Rp4173
(dp4174
bag91
(g1230
g86
tp4175
Rp4176
(dp4177
bag91
(g1212
g86
tp4178
Rp4179
(dp4180
bag91
(g1386
g86
tp4181
Rp4182
(dp4183
bag91
(g1554
g86
tp4184
Rp4185
(dp4186
bag91
(g1527
g86
tp4187
Rp4188
(dp4189
bag91
(g1683
g86
tp4190
Rp4191
(dp4192
bag91
(g1878
g86
tp4193
Rp4194
(dp4195
bag91
(g2580
g86
tp4196
Rp4197
(dp4198
bag91
(g2943
g86
tp4199
Rp4200
(dp4201
ba(lp4202
g2
(g3372
g86
tp4203
Rp4204
(dp4205
batp4206
a((lp4207
g2
(g199
g86
tp4208
Rp4209
(dp4210
bag91
(g3852
g86
tp4211
Rp4212
(dp4213
bag91
(g123
g86
tp4214
Rp4215
(dp4216
bag2
(g108
g86
tp4217
Rp4218
(dp4219
bag91
(g17
g86
tp4220
Rp4221
(dp4222
bag91
(g1230
g86
tp4223
Rp4224
(dp4225
bag91
(g1212
g86
tp4226
Rp4227
(dp4228
bag2
(g1479
g86
tp4229
Rp4230
(dp4231
bag91
(g1386
g86
tp4232
Rp4233
(dp4234
bag2
(g1359
g86
tp4235
Rp4236
(dp4237
bag91
(g1554
g86
tp4238
Rp4239
(dp4240
bag91
(g1527
g86
tp4241
Rp4242
(dp4243
bag91
(g1683
g86
tp4244
Rp4245
(dp4246
bag2
(g1857
g86
tp4247
Rp4248
(dp4249
bag91
(g1878
g86
tp4250
Rp4251
(dp4252
bag2
(g2019
g86
tp4253
Rp4254
(dp4255
bag91
(g2580
g86
tp4256
Rp4257
(dp4258
bag91
(g2943
g86
tp4259
Rp4260
(dp4261
ba(lp4262
g2
(g3372
g86
tp4263
Rp4264
(dp4265
batp4266
a((lp4267
g2
(g1203
g86
tp4268
Rp4269
(dp4270
bag91
(g3372
g86
tp4271
Rp4272
(dp4273
bag91
(g2943
g86
tp4274
Rp4275
(dp4276
bag91
(g2580
g86
tp4277
Rp4278
(dp4279
bag2
(g2019
g86
tp4280
Rp4281
(dp4282
bag91
(g1878
g86
tp4283
Rp4284
(dp4285
bag2
(g1857
g86
tp4286
Rp4287
(dp4288
bag91
(g1683
g86
tp4289
Rp4290
(dp4291
bag91
(g1527
g86
tp4292
Rp4293
(dp4294
bag91
(g1554
g86
tp4295
Rp4296
(dp4297
bag2
(g1359
g86
tp4298
Rp4299
(dp4300
bag91
(g1386
g86
tp4301
Rp4302
(dp4303
bag2
(g1479
g86
tp4304
Rp4305
(dp4306
bag91
(g1212
g86
tp4307
Rp4308
(dp4309
bag91
(g1230
g86
tp4310
Rp4311
(dp4312
bag91
(g17
g86
tp4313
Rp4314
(dp4315
bag2
(g108
g86
tp4316
Rp4317
(dp4318
ba(lp4319
g2
(g123
g86
tp4320
Rp4321
(dp4322
batp4323
a((lp4324
g2
(g1221
g86
tp4325
Rp4326
(dp4327
bag91
(g3372
g86
tp4328
Rp4329
(dp4330
bag91
(g2943
g86
tp4331
Rp4332
(dp4333
bag91
(g2580
g86
tp4334
Rp4335
(dp4336
bag2
(g2019
g86
tp4337
Rp4338
(dp4339
bag91
(g1878
g86
tp4340
Rp4341
(dp4342
bag2
(g1857
g86
tp4343
Rp4344
(dp4345
bag91
(g1683
g86
tp4346
Rp4347
(dp4348
bag91
(g1527
g86
tp4349
Rp4350
(dp4351
bag91
(g1554
g86
tp4352
Rp4353
(dp4354
bag2
(g1359
g86
tp4355
Rp4356
(dp4357
bag91
(g1386
g86
tp4358
Rp4359
(dp4360
bag2
(g1479
g86
tp4361
Rp4362
(dp4363
bag91
(g1212
g86
tp4364
Rp4365
(dp4366
bag91
(g1230
g86
tp4367
Rp4368
(dp4369
bag91
(g17
g86
tp4370
Rp4371
(dp4372
bag2
(g108
g86
tp4373
Rp4374
(dp4375
ba(lp4376
g2
(g123
g86
tp4377
Rp4378
(dp4379
batp4380
a((lp4381
g2
(g138
g86
tp4382
Rp4383
(dp4384
bag91
(g3372
g86
tp4385
Rp4386
(dp4387
bag91
(g2943
g86
tp4388
Rp4389
(dp4390
bag91
(g2580
g86
tp4391
Rp4392
(dp4393
bag2
(g2019
g86
tp4394
Rp4395
(dp4396
bag91
(g1878
g86
tp4397
Rp4398
(dp4399
bag2
(g1857
g86
tp4400
Rp4401
(dp4402
bag91
(g1683
g86
tp4403
Rp4404
(dp4405
bag91
(g1527
g86
tp4406
Rp4407
(dp4408
bag91
(g1554
g86
tp4409
Rp4410
(dp4411
bag2
(g1359
g86
tp4412
Rp4413
(dp4414
bag91
(g1386
g86
tp4415
Rp4416
(dp4417
bag2
(g1479
g86
tp4418
Rp4419
(dp4420
bag91
(g1212
g86
tp4421
Rp4422
(dp4423
bag91
(g1230
g86
tp4424
Rp4425
(dp4426
bag91
(g17
g86
tp4427
Rp4428
(dp4429
bag2
(g108
g86
tp4430
Rp4431
(dp4432
ba(lp4433
g2
(g123
g86
tp4434
Rp4435
(dp4436
batp4437
a((lp4438
g2
(g1203
g86
tp4439
Rp4440
(dp4441
bag91
(g3372
g86
tp4442
Rp4443
(dp4444
bag91
(g2943
g86
tp4445
Rp4446
(dp4447
bag91
(g2580
g86
tp4448
Rp4449
(dp4450
bag2
(g2019
g86
tp4451
Rp4452
(dp4453
bag91
(g1878
g86
tp4454
Rp4455
(dp4456
bag2
(g1857
g86
tp4457
Rp4458
(dp4459
bag91
(g1683
g86
tp4460
Rp4461
(dp4462
bag91
(g1527
g86
tp4463
Rp4464
(dp4465
bag91
(g1554
g86
tp4466
Rp4467
(dp4468
bag2
(g1359
g86
tp4469
Rp4470
(dp4471
bag91
(g1386
g86
tp4472
Rp4473
(dp4474
bag2
(g1479
g86
tp4475
Rp4476
(dp4477
bag91
(g1212
g86
tp4478
Rp4479
(dp4480
bag91
(g1230
g86
tp4481
Rp4482
(dp4483
bag91
(g17
g86
tp4484
Rp4485
(dp4486
bag2
(g108
g86
tp4487
Rp4488
(dp4489
ba(lp4490
g2
(g123
g86
tp4491
Rp4492
(dp4493
batp4494
a((lp4495
g2
(g1221
g86
tp4496
Rp4497
(dp4498
bag2
(g1203
g86
tp4499
Rp4500
(dp4501
bag91
(g3372
g86
tp4502
Rp4503
(dp4504
bag91
(g2943
g86
tp4505
Rp4506
(dp4507
bag91
(g2580
g86
tp4508
Rp4509
(dp4510
bag2
(g2019
g86
tp4511
Rp4512
(dp4513
bag91
(g1878
g86
tp4514
Rp4515
(dp4516
bag2
(g1857
g86
tp4517
Rp4518
(dp4519
bag91
(g1683
g86
tp4520
Rp4521
(dp4522
bag91
(g1527
g86
tp4523
Rp4524
(dp4525
bag91
(g1554
g86
tp4526
Rp4527
(dp4528
bag2
(g1359
g86
tp4529
Rp4530
(dp4531
bag91
(g1386
g86
tp4532
Rp4533
(dp4534
bag2
(g1479
g86
tp4535
Rp4536
(dp4537
bag91
(g1212
g86
tp4538
Rp4539
(dp4540
bag91
(g1230
g86
tp4541
Rp4542
(dp4543
bag91
(g17
g86
tp4544
Rp4545
(dp4546
bag2
(g108
g86
tp4547
Rp4548
(dp4549
ba(lp4550
g2
(g123
g86
tp4551
Rp4552
(dp4553
batp4554
a((lp4555
g2
(g138
g86
tp4556
Rp4557
(dp4558
bag2
(g1221
g86
tp4559
Rp4560
(dp4561
bag2
(g1203
g86
tp4562
Rp4563
(dp4564
bag91
(g3372
g86
tp4565
Rp4566
(dp4567
bag91
(g2943
g86
tp4568
Rp4569
(dp4570
bag91
(g2580
g86
tp4571
Rp4572
(dp4573
bag2
(g2019
g86
tp4574
Rp4575
(dp4576
bag91
(g1878
g86
tp4577
Rp4578
(dp4579
bag2
(g1857
g86
tp4580
Rp4581
(dp4582
bag91
(g1683
g86
tp4583
Rp4584
(dp4585
bag91
(g1527
g86
tp4586
Rp4587
(dp4588
bag91
(g1554
g86
tp4589
Rp4590
(dp4591
bag2
(g1359
g86
tp4592
Rp4593
(dp4594
bag91
(g1386
g86
tp4595
Rp4596
(dp4597
bag2
(g1479
g86
tp4598
Rp4599
(dp4600
bag91
(g1212
g86
tp4601
Rp4602
(dp4603
bag91
(g1230
g86
tp4604
Rp4605
(dp4606
bag91
(g17
g86
tp4607
Rp4608
(dp4609
bag2
(g108
g86
tp4610
Rp4611
(dp4612
ba(lp4613
g2
(g123
g86
tp4614
Rp4615
(dp4616
batp4617
a((lp4618
g2
(g3
(g9
(I25182182
I1749171
tp4619
Rp4620
(dp4621
bg120
tp4622
Rp4623
(dp4624
bg86
tp4625
Rp4626
(dp4627
bag2
(g138
g86
tp4628
Rp4629
(dp4630
bag2
(g1221
g86
tp4631
Rp4632
(dp4633
bag2
(g1203
g86
tp4634
Rp4635
(dp4636
bag91
(g3372
g86
tp4637
Rp4638
(dp4639
bag91
(g2943
g86
tp4640
Rp4641
(dp4642
bag91
(g2580
g86
tp4643
Rp4644
(dp4645
bag2
(g2019
g86
tp4646
Rp4647
(dp4648
bag91
(g1878
g86
tp4649
Rp4650
(dp4651
bag2
(g1857
g86
tp4652
Rp4653
(dp4654
bag91
(g1683
g86
tp4655
Rp4656
(dp4657
bag91
(g1527
g86
tp4658
Rp4659
(dp4660
bag91
(g1554
g86
tp4661
Rp4662
(dp4663
bag2
(g1359
g86
tp4664
Rp4665
(dp4666
bag91
(g1386
g86
tp4667
Rp4668
(dp4669
bag2
(g1479
g86
tp4670
Rp4671
(dp4672
bag91
(g1212
g86
tp4673
Rp4674
(dp4675
bag91
(g1230
g86
tp4676
Rp4677
(dp4678
bag91
(g17
g86
tp4679
Rp4680
(dp4681
bag2
(g108
g86
tp4682
Rp4683
(dp4684
ba(lp4685
g2
(g123
g86
tp4686
Rp4687
(dp4688
batp4689
a((lp4690
g2
(g3
(g9
(I4190
I291
tp4691
Rp4692
(dp4693
bg120
tp4694
Rp4695
(dp4696
bg86
tp4697
Rp4698
(dp4699
bag2
(g138
g86
tp4700
Rp4701
(dp4702
bag2
(g1221
g86
tp4703
Rp4704
(dp4705
bag2
(g1203
g86
tp4706
Rp4707
(dp4708
bag91
(g3372
g86
tp4709
Rp4710
(dp4711
bag91
(g2943
g86
tp4712
Rp4713
(dp4714
bag91
(g2580
g86
tp4715
Rp4716
(dp4717
bag2
(g2019
g86
tp4718
Rp4719
(dp4720
bag91
(g1878
g86
tp4721
Rp4722
(dp4723
bag2
(g1857
g86
tp4724
Rp4725
(dp4726
bag91
(g1683
g86
tp4727
Rp4728
(dp4729
bag91
(g1527
g86
tp4730
Rp4731
(dp4732
bag91
(g1554
g86
tp4733
Rp4734
(dp4735
bag2
(g1359
g86
tp4736
Rp4737
(dp4738
bag91
(g1386
g86
tp4739
Rp4740
(dp4741
bag2
(g1479
g86
tp4742
Rp4743
(dp4744
bag91
(g1212
g86
tp4745
Rp4746
(dp4747
bag91
(g1230
g86
tp4748
Rp4749
(dp4750
bag91
(g17
g86
tp4751
Rp4752
(dp4753
bag2
(g108
g86
tp4754
Rp4755
(dp4756
ba(lp4757
g2
(g123
g86
tp4758
Rp4759
(dp4760
batp4761
a((lp4762
g2
(g3
(g9
(I85
I6
tp4763
Rp4764
(dp4765
bg120
tp4766
Rp4767
(dp4768
bg86
tp4769
Rp4770
(dp4771
bag2
(g138
g86
tp4772
Rp4773
(dp4774
bag2
(g1221
g86
tp4775
Rp4776
(dp4777
bag2
(g1203
g86
tp4778
Rp4779
(dp4780
bag91
(g3372
g86
tp4781
Rp4782
(dp4783
bag91
(g2943
g86
tp4784
Rp4785
(dp4786
bag91
(g2580
g86
tp4787
Rp4788
(dp4789
bag2
(g2019
g86
tp4790
Rp4791
(dp4792
bag91
(g1878
g86
tp4793
Rp4794
(dp4795
bag2
(g1857
g86
tp4796
Rp4797
(dp4798
bag91
(g1683
g86
tp4799
Rp4800
(dp4801
bag91
(g1527
g86
tp4802
Rp4803
(dp4804
bag91
(g1554
g86
tp4805
Rp4806
(dp4807
bag2
(g1359
g86
tp4808
Rp4809
(dp4810
bag91
(g1386
g86
tp4811
Rp4812
(dp4813
bag2
(g1479
g86
tp4814
Rp4815
(dp4816
bag91
(g1212
g86
tp4817
Rp4818
(dp4819
bag91
(g1230
g86
tp4820
Rp4821
(dp4822
bag91
(g17
g86
tp4823
Rp4824
(dp4825
bag2
(g108
g86
tp4826
Rp4827
(dp4828
ba(lp4829
g2
(g123
g86
tp4830
Rp4831
(dp4832
batp4833
a((lp4834
g2
(g1203
g86
tp4835
Rp4836
(dp4837
bag91
(g123
g86
tp4838
Rp4839
(dp4840
bag2
(g108
g86
tp4841
Rp4842
(dp4843
bag91
(g17
g86
tp4844
Rp4845
(dp4846
bag91
(g1230
g86
tp4847
Rp4848
(dp4849
bag91
(g1212
g86
tp4850
Rp4851
(dp4852
bag2
(g1479
g86
tp4853
Rp4854
(dp4855
bag91
(g1386
g86
tp4856
Rp4857
(dp4858
bag2
(g1359
g86
tp4859
Rp4860
(dp4861
bag91
(g1554
g86
tp4862
Rp4863
(dp4864
bag91
(g1527
g86
tp4865
Rp4866
(dp4867
bag91
(g1683
g86
tp4868
Rp4869
(dp4870
bag2
(g1857
g86
tp4871
Rp4872
(dp4873
bag91
(g1878
g86
tp4874
Rp4875
(dp4876
bag2
(g2019
g86
tp4877
Rp4878
(dp4879
bag91
(g2580
g86
tp4880
Rp4881
(dp4882
bag91
(g2943
g86
tp4883
Rp4884
(dp4885
ba(lp4886
g2
(g3372
g86
tp4887
Rp4888
(dp4889
batp4890
a((lp4891
g2
(g1221
g86
tp4892
Rp4893
(dp4894
bag91
(g123
g86
tp4895
Rp4896
(dp4897
bag2
(g108
g86
tp4898
Rp4899
(dp4900
bag91
(g17
g86
tp4901
Rp4902
(dp4903
bag91
(g1230
g86
tp4904
Rp4905
(dp4906
bag91
(g1212
g86
tp4907
Rp4908
(dp4909
bag2
(g1479
g86
tp4910
Rp4911
(dp4912
bag91
(g1386
g86
tp4913
Rp4914
(dp4915
bag2
(g1359
g86
tp4916
Rp4917
(dp4918
bag91
(g1554
g86
tp4919
Rp4920
(dp4921
bag91
(g1527
g86
tp4922
Rp4923
(dp4924
bag91
(g1683
g86
tp4925
Rp4926
(dp4927
bag2
(g1857
g86
tp4928
Rp4929
(dp4930
bag91
(g1878
g86
tp4931
Rp4932
(dp4933
bag2
(g2019
g86
tp4934
Rp4935
(dp4936
bag91
(g2580
g86
tp4937
Rp4938
(dp4939
bag91
(g2943
g86
tp4940
Rp4941
(dp4942
ba(lp4943
g2
(g3372
g86
tp4944
Rp4945
(dp4946
batp4947
a((lp4948
g2
(g138
g86
tp4949
Rp4950
(dp4951
bag91
(g123
g86
tp4952
Rp4953
(dp4954
bag2
(g108
g86
tp4955
Rp4956
(dp4957
bag91
(g17
g86
tp4958
Rp4959
(dp4960
bag91
(g1230
g86
tp4961
Rp4962
(dp4963
bag91
(g1212
g86
tp4964
Rp4965
(dp4966
bag2
(g1479
g86
tp4967
Rp4968
(dp4969
bag91
(g1386
g86
tp4970
Rp4971
(dp4972
bag2
(g1359
g86
tp4973
Rp4974
(dp4975
bag91
(g1554
g86
tp4976
Rp4977
(dp4978
bag91
(g1527
g86
tp4979
Rp4980
(dp4981
bag91
(g1683
g86
tp4982
Rp4983
(dp4984
bag2
(g1857
g86
tp4985
Rp4986
(dp4987
bag91
(g1878
g86
tp4988
Rp4989
(dp4990
bag2
(g2019
g86
tp4991
Rp4992
(dp4993
bag91
(g2580
g86
tp4994
Rp4995
(dp4996
bag91
(g2943
g86
tp4997
Rp4998
(dp4999
ba(lp5000
g2
(g3372
g86
tp5001
Rp5002
(dp5003
batp5004
a((lp5005
g2
(g1203
g86
tp5006
Rp5007
(dp5008
bag91
(g123
g86
tp5009
Rp5010
(dp5011
bag2
(g108
g86
tp5012
Rp5013
(dp5014
bag91
(g17
g86
tp5015
Rp5016
(dp5017
bag91
(g1230
g86
tp5018
Rp5019
(dp5020
bag91
(g1212
g86
tp5021
Rp5022
(dp5023
bag2
(g1479
g86
tp5024
Rp5025
(dp5026
bag91
(g1386
g86
tp5027
Rp5028
(dp5029
bag2
(g1359
g86
tp5030
Rp5031
(dp5032
bag91
(g1554
g86
tp5033
Rp5034
(dp5035
bag91
(g1527
g86
tp5036
Rp5037
(dp5038
bag91
(g1683
g86
tp5039
Rp5040
(dp5041
bag2
(g1857
g86
tp5042
Rp5043
(dp5044
bag91
(g1878
g86
tp5045
Rp5046
(dp5047
bag2
(g2019
g86
tp5048
Rp5049
(dp5050
bag91
(g2580
g86
tp5051
Rp5052
(dp5053
bag91
(g2943
g86
tp5054
Rp5055
(dp5056
ba(lp5057
g2
(g3372
g86
tp5058
Rp5059
(dp5060
batp5061
a((lp5062
g2
(g1221
g86
tp5063
Rp5064
(dp5065
bag2
(g1203
g86
tp5066
Rp5067
(dp5068
bag91
(g123
g86
tp5069
Rp5070
(dp5071
bag2
(g108
g86
tp5072
Rp5073
(dp5074
bag91
(g17
g86
tp5075
Rp5076
(dp5077
bag91
(g1230
g86
tp5078
Rp5079
(dp5080
bag91
(g1212
g86
tp5081
Rp5082
(dp5083
bag2
(g1479
g86
tp5084
Rp5085
(dp5086
bag91
(g1386
g86
tp5087
Rp5088
(dp5089
bag2
(g1359
g86
tp5090
Rp5091
(dp5092
bag91
(g1554
g86
tp5093
Rp5094
(dp5095
bag91
(g1527
g86
tp5096
Rp5097
(dp5098
bag91
(g1683
g86
tp5099
Rp5100
(dp5101
bag2
(g1857
g86
tp5102
Rp5103
(dp5104
bag91
(g1878
g86
tp5105
Rp5106
(dp5107
bag2
(g2019
g86
tp5108
Rp5109
(dp5110
bag91
(g2580
g86
tp5111
Rp5112
(dp5113
bag91
(g2943
g86
tp5114
Rp5115
(dp5116
ba(lp5117
g2
(g3372
g86
tp5118
Rp5119
(dp5120
batp5121
a((lp5122
g2
(g138
g86
tp5123
Rp5124
(dp5125
bag2
(g1221
g86
tp5126
Rp5127
(dp5128
bag2
(g1203
g86
tp5129
Rp5130
(dp5131
bag91
(g123
g86
tp5132
Rp5133
(dp5134
bag2
(g108
g86
tp5135
Rp5136
(dp5137
bag91
(g17
g86
tp5138
Rp5139
(dp5140
bag91
(g1230
g86
tp5141
Rp5142
(dp5143
bag91
(g1212
g86
tp5144
Rp5145
(dp5146
bag2
(g1479
g86
tp5147
Rp5148
(dp5149
bag91
(g1386
g86
tp5150
Rp5151
(dp5152
bag2
(g1359
g86
tp5153
Rp5154
(dp5155
bag91
(g1554
g86
tp5156
Rp5157
(dp5158
bag91
(g1527
g86
tp5159
Rp5160
(dp5161
bag91
(g1683
g86
tp5162
Rp5163
(dp5164
bag2
(g1857
g86
tp5165
Rp5166
(dp5167
bag91
(g1878
g86
tp5168
Rp5169
(dp5170
bag2
(g2019
g86
tp5171
Rp5172
(dp5173
bag91
(g2580
g86
tp5174
Rp5175
(dp5176
bag91
(g2943
g86
tp5177
Rp5178
(dp5179
ba(lp5180
g2
(g3372
g86
tp5181
Rp5182
(dp5183
batp5184
a((lp5185
g2
(g3675
g86
tp5186
Rp5187
(dp5188
bag2
(g138
g86
tp5189
Rp5190
(dp5191
bag2
(g1221
g86
tp5192
Rp5193
(dp5194
bag2
(g1203
g86
tp5195
Rp5196
(dp5197
bag91
(g123
g86
tp5198
Rp5199
(dp5200
bag2
(g108
g86
tp5201
Rp5202
(dp5203
bag91
(g17
g86
tp5204
Rp5205
(dp5206
bag91
(g1230
g86
tp5207
Rp5208
(dp5209
bag91
(g1212
g86
tp5210
Rp5211
(dp5212
bag2
(g1479
g86
tp5213
Rp5214
(dp5215
bag91
(g1386
g86
tp5216
Rp5217
(dp5218
bag2
(g1359
g86
tp5219
Rp5220
(dp5221
bag91
(g1554
g86
tp5222
Rp5223
(dp5224
bag91
(g1527
g86
tp5225
Rp5226
(dp5227
bag91
(g1683
g86
tp5228
Rp5229
(dp5230
bag2
(g1857
g86
tp5231
Rp5232
(dp5233
bag91
(g1878
g86
tp5234
Rp5235
(dp5236
bag2
(g2019
g86
tp5237
Rp5238
(dp5239
bag91
(g2580
g86
tp5240
Rp5241
(dp5242
bag91
(g2943
g86
tp5243
Rp5244
(dp5245
ba(lp5246
g2
(g3372
g86
tp5247
Rp5248
(dp5249
batp5250
a((lp5251
g2
(g96
g86
tp5252
Rp5253
(dp5254
bag2
(g138
g86
tp5255
Rp5256
(dp5257
bag2
(g1221
g86
tp5258
Rp5259
(dp5260
bag2
(g1203
g86
tp5261
Rp5262
(dp5263
bag91
(g123
g86
tp5264
Rp5265
(dp5266
bag2
(g108
g86
tp5267
Rp5268
(dp5269
bag91
(g17
g86
tp5270
Rp5271
(dp5272
bag91
(g1230
g86
tp5273
Rp5274
(dp5275
bag91
(g1212
g86
tp5276
Rp5277
(dp5278
bag2
(g1479
g86
tp5279
Rp5280
(dp5281
bag91
(g1386
g86
tp5282
Rp5283
(dp5284
bag2
(g1359
g86
tp5285
Rp5286
(dp5287
bag91
(g1554
g86
tp5288
Rp5289
(dp5290
bag91
(g1527
g86
tp5291
Rp5292
(dp5293
bag91
(g1683
g86
tp5294
Rp5295
(dp5296
bag2
(g1857
g86
tp5297
Rp5298
(dp5299
bag91
(g1878
g86
tp5300
Rp5301
(dp5302
bag2
(g2019
g86
tp5303
Rp5304
(dp5305
bag91
(g2580
g86
tp5306
Rp5307
(dp5308
bag91
(g2943
g86
tp5309
Rp5310
(dp5311
ba(lp5312
g2
(g3372
g86
tp5313
Rp5314
(dp5315
batp5316
a((lp5317
g2
(g199
g86
tp5318
Rp5319
(dp5320
bag2
(g138
g86
tp5321
Rp5322
(dp5323
bag2
(g1221
g86
tp5324
Rp5325
(dp5326
bag2
(g1203
g86
tp5327
Rp5328
(dp5329
bag91
(g123
g86
tp5330
Rp5331
(dp5332
bag2
(g108
g86
tp5333
Rp5334
(dp5335
bag91
(g17
g86
tp5336
Rp5337
(dp5338
bag91
(g1230
g86
tp5339
Rp5340
(dp5341
bag91
(g1212
g86
tp5342
Rp5343
(dp5344
bag2
(g1479
g86
tp5345
Rp5346
(dp5347
bag91
(g1386
g86
tp5348
Rp5349
(dp5350
bag2
(g1359
g86
tp5351
Rp5352
(dp5353
bag91
(g1554
g86
tp5354
Rp5355
(dp5356
bag91
(g1527
g86
tp5357
Rp5358
(dp5359
bag91
(g1683
g86
tp5360
Rp5361
(dp5362
bag2
(g1857
g86
tp5363
Rp5364
(dp5365
bag91
(g1878
g86
tp5366
Rp5367
(dp5368
bag2
(g2019
g86
tp5369
Rp5370
(dp5371
bag91
(g2580
g86
tp5372
Rp5373
(dp5374
bag91
(g2943
g86
tp5375
Rp5376
(dp5377
ba(lp5378
g2
(g3372
g86
tp5379
Rp5380
(dp5381
batp5382
a((lp5383
g2
(g199
g86
tp5384
Rp5385
(dp5386
bag91
(g3852
g86
tp5387
Rp5388
(dp5389
bag2
(g138
g86
tp5390
Rp5391
(dp5392
bag2
(g1221
g86
tp5393
Rp5394
(dp5395
bag2
(g1203
g86
tp5396
Rp5397
(dp5398
bag91
(g123
g86
tp5399
Rp5400
(dp5401
bag2
(g108
g86
tp5402
Rp5403
(dp5404
bag91
(g17
g86
tp5405
Rp5406
(dp5407
bag91
(g1230
g86
tp5408
Rp5409
(dp5410
bag91
(g1212
g86
tp5411
Rp5412
(dp5413
bag2
(g1479
g86
tp5414
Rp5415
(dp5416
bag91
(g1386
g86
tp5417
Rp5418
(dp5419
bag2
(g1359
g86
tp5420
Rp5421
(dp5422
bag91
(g1554
g86
tp5423
Rp5424
(dp5425
bag91
(g1527
g86
tp5426
Rp5427
(dp5428
bag91
(g1683
g86
tp5429
Rp5430
(dp5431
bag2
(g1857
g86
tp5432
Rp5433
(dp5434
bag91
(g1878
g86
tp5435
Rp5436
(dp5437
bag2
(g2019
g86
tp5438
Rp5439
(dp5440
bag91
(g2580
g86
tp5441
Rp5442
(dp5443
bag91
(g2943
g86
tp5444
Rp5445
(dp5446
ba(lp5447
g2
(g3372
g86
tp5448
Rp5449
(dp5450
batp5451
a((lp5452
g2
(g1857
g86
tp5453
Rp5454
(dp5455
bag2
(g138
g86
tp5456
Rp5457
(dp5458
bag2
(g1221
g86
tp5459
Rp5460
(dp5461
bag2
(g1203
g86
tp5462
Rp5463
(dp5464
bag91
(g3372
g86
tp5465
Rp5466
(dp5467
bag91
(g2943
g86
tp5468
Rp5469
(dp5470
bag91
(g2580
g86
tp5471
Rp5472
(dp5473
bag2
(g2019
g86
tp5474
Rp5475
(dp5476
bag91
(g1878
g86
tp5477
Rp5478
(dp5479
bag2
(g1857
g86
tp5480
Rp5481
(dp5482
bag91
(g1683
g86
tp5483
Rp5484
(dp5485
bag91
(g1527
g86
tp5486
Rp5487
(dp5488
bag91
(g1554
g86
tp5489
Rp5490
(dp5491
bag2
(g1359
g86
tp5492
Rp5493
(dp5494
bag91
(g1386
g86
tp5495
Rp5496
(dp5497
bag2
(g1479
g86
tp5498
Rp5499
(dp5500
bag91
(g1212
g86
tp5501
Rp5502
(dp5503
bag91
(g1230
g86
tp5504
Rp5505
(dp5506
bag91
(g17
g86
tp5507
Rp5508
(dp5509
bag2
(g108
g86
tp5510
Rp5511
(dp5512
ba(lp5513
g2
(g123
g86
tp5514
Rp5515
(dp5516
batp5517
a((lp5518
g2
(g2040
g86
tp5519
Rp5520
(dp5521
bag2
(g138
g86
tp5522
Rp5523
(dp5524
bag2
(g1221
g86
tp5525
Rp5526
(dp5527
bag2
(g1203
g86
tp5528
Rp5529
(dp5530
bag91
(g3372
g86
tp5531
Rp5532
(dp5533
bag91
(g2943
g86
tp5534
Rp5535
(dp5536
bag91
(g2580
g86
tp5537
Rp5538
(dp5539
bag2
(g2019
g86
tp5540
Rp5541
(dp5542
bag91
(g1878
g86
tp5543
Rp5544
(dp5545
bag2
(g1857
g86
tp5546
Rp5547
(dp5548
bag91
(g1683
g86
tp5549
Rp5550
(dp5551
bag91
(g1527
g86
tp5552
Rp5553
(dp5554
bag91
(g1554
g86
tp5555
Rp5556
(dp5557
bag2
(g1359
g86
tp5558
Rp5559
(dp5560
bag91
(g1386
g86
tp5561
Rp5562
(dp5563
bag2
(g1479
g86
tp5564
Rp5565
(dp5566
bag91
(g1212
g86
tp5567
Rp5568
(dp5569
bag91
(g1230
g86
tp5570
Rp5571
(dp5572
bag91
(g17
g86
tp5573
Rp5574
(dp5575
bag2
(g108
g86
tp5576
Rp5577
(dp5578
ba(lp5579
g2
(g123
g86
tp5580
Rp5581
(dp5582
batp5583
a((lp5584
g2
(g1479
g86
tp5585
Rp5586
(dp5587
bag2
(g138
g86
tp5588
Rp5589
(dp5590
bag2
(g1221
g86
tp5591
Rp5592
(dp5593
bag2
(g1203
g86
tp5594
Rp5595
(dp5596
bag91
(g3372
g86
tp5597
Rp5598
(dp5599
bag91
(g2943
g86
tp5600
Rp5601
(dp5602
bag91
(g2580
g86
tp5603
Rp5604
(dp5605
bag2
(g2019
g86
tp5606
Rp5607
(dp5608
bag91
(g1878
g86
tp5609
Rp5610
(dp5611
bag2
(g1857
g86
tp5612
Rp5613
(dp5614
bag91
(g1683
g86
tp5615
Rp5616
(dp5617
bag91
(g1527
g86
tp5618
Rp5619
(dp5620
bag91
(g1554
g86
tp5621
Rp5622
(dp5623
bag2
(g1359
g86
tp5624
Rp5625
(dp5626
bag91
(g1386
g86
tp5627
Rp5628
(dp5629
bag2
(g1479
g86
tp5630
Rp5631
(dp5632
bag91
(g1212
g86
tp5633
Rp5634
(dp5635
bag91
(g1230
g86
tp5636
Rp5637
(dp5638
bag91
(g17
g86
tp5639
Rp5640
(dp5641
bag2
(g108
g86
tp5642
Rp5643
(dp5644
ba(lp5645
g2
(g123
g86
tp5646
Rp5647
(dp5648
batp5649
a((lp5650
g2
(g1413
g86
tp5651
Rp5652
(dp5653
bag2
(g138
g86
tp5654
Rp5655
(dp5656
bag2
(g1221
g86
tp5657
Rp5658
(dp5659
bag2
(g1203
g86
tp5660
Rp5661
(dp5662
bag91
(g3372
g86
tp5663
Rp5664
(dp5665
bag91
(g2943
g86
tp5666
Rp5667
(dp5668
bag91
(g2580
g86
tp5669
Rp5670
(dp5671
bag2
(g2019
g86
tp5672
Rp5673
(dp5674
bag91
(g1878
g86
tp5675
Rp5676
(dp5677
bag2
(g1857
g86
tp5678
Rp5679
(dp5680
bag91
(g1683
g86
tp5681
Rp5682
(dp5683
bag91
(g1527
g86
tp5684
Rp5685
(dp5686
bag91
(g1554
g86
tp5687
Rp5688
(dp5689
bag2
(g1359
g86
tp5690
Rp5691
(dp5692
bag91
(g1386
g86
tp5693
Rp5694
(dp5695
bag2
(g1479
g86
tp5696
Rp5697
(dp5698
bag91
(g1212
g86
tp5699
Rp5700
(dp5701
bag91
(g1230
g86
tp5702
Rp5703
(dp5704
bag91
(g17
g86
tp5705
Rp5706
(dp5707
bag2
(g108
g86
tp5708
Rp5709
(dp5710
ba(lp5711
g2
(g123
g86
tp5712
Rp5713
(dp5714
batp5715
a((lp5716
g2
(g1326
g86
tp5717
Rp5718
(dp5719
bag2
(g3
(g4
(I-43848976
tp5720
Rp5721
(dp5722
bg8
(g4
(I-173642240
tp5723
Rp5724
(dp5725
bg59
tp5726
Rp5727
(dp5728
bg8
(g4
(I-167936000
tp5729
Rp5730
(dp5731
bg1347
tp5732
Rp5733
(dp5734
bg8
(g4
(I-40960000
tp5735
Rp5736
(dp5737
bg1440
tp5738
Rp5739
(dp5740
bg8
(g4
(I-256768000
tp5741
Rp5742
(dp5743
bg71
tp5744
Rp5745
(dp5746
btp5747
Rp5748
(dp5749
bg86
tp5750
Rp5751
(dp5752
bag2
(g138
g86
tp5753
Rp5754
(dp5755
bag2
(g1221
g86
tp5756
Rp5757
(dp5758
bag2
(g1203
g86
tp5759
Rp5760
(dp5761
bag91
(g3372
g86
tp5762
Rp5763
(dp5764
bag91
(g2943
g86
tp5765
Rp5766
(dp5767
bag91
(g2580
g86
tp5768
Rp5769
(dp5770
bag2
(g2019
g86
tp5771
Rp5772
(dp5773
bag91
(g1878
g86
tp5774
Rp5775
(dp5776
bag2
(g1857
g86
tp5777
Rp5778
(dp5779
bag91
(g1683
g86
tp5780
Rp5781
(dp5782
bag91
(g1527
g86
tp5783
Rp5784
(dp5785
bag91
(g1554
g86
tp5786
Rp5787
(dp5788
bag2
(g1359
g86
tp5789
Rp5790
(dp5791
bag91
(g1386
g86
tp5792
Rp5793
(dp5794
bag2
(g1479
g86
tp5795
Rp5796
(dp5797
bag91
(g1212
g86
tp5798
Rp5799
(dp5800
bag91
(g1230
g86
tp5801
Rp5802
(dp5803
bag91
(g17
g86
tp5804
Rp5805
(dp5806
bag2
(g108
g86
tp5807
Rp5808
(dp5809
ba(lp5810
g2
(g123
g86
tp5811
Rp5812
(dp5813
batp5814
a((lp5815
g91
(g1326
g86
tp5816
Rp5817
(dp5818
bag91
(g5748
g86
tp5819
Rp5820
(dp5821
bag91
(g3372
g86
tp5822
Rp5823
(dp5824
bag91
(g2943
g86
tp5825
Rp5826
(dp5827
bag91
(g2580
g86
tp5828
Rp5829
(dp5830
bag91
(g1878
g86
tp5831
Rp5832
(dp5833
bag91
(g1683
g86
tp5834
Rp5835
(dp5836
bag91
(g1527
g86
tp5837
Rp5838
(dp5839
bag91
(g1554
g86
tp5840
Rp5841
(dp5842
bag91
(g1386
g86
tp5843
Rp5844
(dp5845
bag91
(g1212
g86
tp5846
Rp5847
(dp5848
bag91
(g1230
g86
tp5849
Rp5850
(dp5851
bag91
(g17
g86
tp5852
Rp5853
(dp5854
ba(lp5855
g2
(g123
g86
tp5856
Rp5857
(dp5858
batp5859
a((lp5860
g2
(g1326
g86
tp5861
Rp5862
(dp5863
bag2
(g3
(g4
(I43848976
tp5864
Rp5865
(dp5866
bg8
(g4
(I40960000
tp5867
Rp5868
(dp5869
bg1440
tp5870
Rp5871
(dp5872
bg8
(g4
(I173642240
tp5873
Rp5874
(dp5875
bg59
tp5876
Rp5877
(dp5878
bg8
(g4
(I167936000
tp5879
Rp5880
(dp5881
bg1347
tp5882
Rp5883
(dp5884
bg8
(g4
(I256768000
tp5885
Rp5886
(dp5887
bg71
tp5888
Rp5889
(dp5890
btp5891
Rp5892
(dp5893
bg86
tp5894
Rp5895
(dp5896
bag2
(g138
g86
tp5897
Rp5898
(dp5899
bag2
(g1221
g86
tp5900
Rp5901
(dp5902
bag2
(g1203
g86
tp5903
Rp5904
(dp5905
bag91
(g3372
g86
tp5906
Rp5907
(dp5908
bag91
(g2943
g86
tp5909
Rp5910
(dp5911
bag91
(g2580
g86
tp5912
Rp5913
(dp5914
bag2
(g2019
g86
tp5915
Rp5916
(dp5917
bag91
(g1878
g86
tp5918
Rp5919
(dp5920
bag2
(g1857
g86
tp5921
Rp5922
(dp5923
bag91
(g1683
g86
tp5924
Rp5925
(dp5926
bag91
(g1527
g86
tp5927
Rp5928
(dp5929
bag91
(g1554
g86
tp5930
Rp5931
(dp5932
bag2
(g1359
g86
tp5933
Rp5934
(dp5935
bag91
(g1386
g86
tp5936
Rp5937
(dp5938
bag2
(g1479
g86
tp5939
Rp5940
(dp5941
bag91
(g1212
g86
tp5942
Rp5943
(dp5944
bag91
(g1230
g86
tp5945
Rp5946
(dp5947
bag91
(g17
g86
tp5948
Rp5949
(dp5950
bag2
(g108
g86
tp5951
Rp5952
(dp5953
ba(lp5954
g2
(g123
g86
tp5955
Rp5956
(dp5957
batp5958
a((lp5959
g2
(g165
g86
tp5960
Rp5961
(dp5962
bag2
(g138
g86
tp5963
Rp5964
(dp5965
bag2
(g1221
g86
tp5966
Rp5967
(dp5968
bag2
(g1203
g86
tp5969
Rp5970
(dp5971
bag91
(g3372
g86
tp5972
Rp5973
(dp5974
bag91
(g2943
g86
tp5975
Rp5976
(dp5977
bag91
(g2580
g86
tp5978
Rp5979
(dp5980
bag2
(g2019
g86
tp5981
Rp5982
(dp5983
bag91
(g1878
g86
tp5984
Rp5985
(dp5986
bag2
(g1857
g86
tp5987
Rp5988
(dp5989
bag91
(g1683
g86
tp5990
Rp5991
(dp5992
bag91
(g1527
g86
tp5993
Rp5994
(dp5995
bag91
(g1554
g86
tp5996
Rp5997
(dp5998
bag2
(g1359
g86
tp5999
Rp6000
(dp6001
bag91
(g1386
g86
tp6002
Rp6003
(dp6004
bag2
(g1479
g86
tp6005
Rp6006
(dp6007
bag91
(g1212
g86
tp6008
Rp6009
(dp6010
bag91
(g1230
g86
tp6011
Rp6012
(dp6013
bag91
(g17
g86
tp6014
Rp6015
(dp6016
bag2
(g108
g86
tp6017
Rp6018
(dp6019
ba(lp6020
g2
(g123
g86
tp6021
Rp6022
(dp6023
batp6024
a((lp6025
g91
(g150
g86
tp6026
Rp6027
(dp6028
bag91
(g3372
g86
tp6029
Rp6030
(dp6031
bag91
(g2943
g86
tp6032
Rp6033
(dp6034
bag91
(g2580
g86
tp6035
Rp6036
(dp6037
bag91
(g1878
g86
tp6038
Rp6039
(dp6040
bag91
(g1683
g86
tp6041
Rp6042
(dp6043
bag91
(g1527
g86
tp6044
Rp6045
(dp6046
bag91
(g1554
g86
tp6047
Rp6048
(dp6049
bag91
(g1386
g86
tp6050
Rp6051
(dp6052
bag91
(g1212
g86
tp6053
Rp6054
(dp6055
bag91
(g1230
g86
tp6056
Rp6057
(dp6058
bag91
(g17
g86
tp6059
Rp6060
(dp6061
ba(lp6062
g2
(g123
g86
tp6063
Rp6064
(dp6065
batp6066
a((lp6067
g91
(g150
g86
tp6068
Rp6069
(dp6070
bag2
(g138
g86
tp6071
Rp6072
(dp6073
bag2
(g1221
g86
tp6074
Rp6075
(dp6076
bag2
(g1203
g86
tp6077
Rp6078
(dp6079
bag91
(g3372
g86
tp6080
Rp6081
(dp6082
bag91
(g2943
g86
tp6083
Rp6084
(dp6085
bag91
(g2580
g86
tp6086
Rp6087
(dp6088
bag2
(g2019
g86
tp6089
Rp6090
(dp6091
bag91
(g1878
g86
tp6092
Rp6093
(dp6094
bag2
(g1857
g86
tp6095
Rp6096
(dp6097
bag91
(g1683
g86
tp6098
Rp6099
(dp6100
bag91
(g1527
g86
tp6101
Rp6102
(dp6103
bag91
(g1554
g86
tp6104
Rp6105
(dp6106
bag2
(g1359
g86
tp6107
Rp6108
(dp6109
bag91
(g1386
g86
tp6110
Rp6111
(dp6112
bag2
(g1479
g86
tp6113
Rp6114
(dp6115
bag91
(g1212
g86
tp6116
Rp6117
(dp6118
bag91
(g1230
g86
tp6119
Rp6120
(dp6121
bag91
(g17
g86
tp6122
Rp6123
(dp6124
bag2
(g108
g86
tp6125
Rp6126
(dp6127
ba(lp6128
g2
(g123
g86
tp6129
Rp6130
(dp6131
batp6132
a((lp6133
g91
(g150
g86
tp6134
Rp6135
(dp6136
bag91
(g3372
g86
tp6137
Rp6138
(dp6139
bag91
(g2943
g86
tp6140
Rp6141
(dp6142
bag91
(g2580
g86
tp6143
Rp6144
(dp6145
bag91
(g1878
g86
tp6146
Rp6147
(dp6148
bag91
(g1683
g86
tp6149
Rp6150
(dp6151
bag91
(g1527
g86
tp6152
Rp6153
(dp6154
bag91
(g1554
g86
tp6155
Rp6156
(dp6157
bag91
(g1386
g86
tp6158
Rp6159
(dp6160
bag91
(g1212
g86
tp6161
Rp6162
(dp6163
bag91
(g1230
g86
tp6164
Rp6165
(dp6166
bag91
(g17
g86
tp6167
Rp6168
(dp6169
ba(lp6170
g2
(g123
g86
tp6171
Rp6172
(dp6173
batp6174
a((lp6175
g91
(g150
g86
tp6176
Rp6177
(dp6178
bag2
(g138
g86
tp6179
Rp6180
(dp6181
bag2
(g1221
g86
tp6182
Rp6183
(dp6184
bag2
(g1203
g86
tp6185
Rp6186
(dp6187
bag91
(g3372
g86
tp6188
Rp6189
(dp6190
bag91
(g2943
g86
tp6191
Rp6192
(dp6193
bag91
(g2580
g86
tp6194
Rp6195
(dp6196
bag2
(g2019
g86
tp6197
Rp6198
(dp6199
bag91
(g1878
g86
tp6200
Rp6201
(dp6202
bag2
(g1857
g86
tp6203
Rp6204
(dp6205
bag91
(g1683
g86
tp6206
Rp6207
(dp6208
bag91
(g1527
g86
tp6209
Rp6210
(dp6211
bag91
(g1554
g86
tp6212
Rp6213
(dp6214
bag2
(g1359
g86
tp6215
Rp6216
(dp6217
bag91
(g1386
g86
tp6218
Rp6219
(dp6220
bag2
(g1479
g86
tp6221
Rp6222
(dp6223
bag91
(g1212
g86
tp6224
Rp6225
(dp6226
bag91
(g1230
g86
tp6227
Rp6228
(dp6229
bag91
(g17
g86
tp6230
Rp6231
(dp6232
bag2
(g108
g86
tp6233
Rp6234
(dp6235
ba(lp6236
g2
(g123
g86
tp6237
Rp6238
(dp6239
batp6240
a((lp6241
g2
(g165
g86
tp6242
Rp6243
(dp6244
bag91
(g150
g86
tp6245
Rp6246
(dp6247
bag2
(g138
g86
tp6248
Rp6249
(dp6250
bag2
(g1221
g86
tp6251
Rp6252
(dp6253
bag2
(g1203
g86
tp6254
Rp6255
(dp6256
bag91
(g3372
g86
tp6257
Rp6258
(dp6259
bag91
(g2943
g86
tp6260
Rp6261
(dp6262
bag91
(g2580
g86
tp6263
Rp6264
(dp6265
bag2
(g2019
g86
tp6266
Rp6267
(dp6268
bag91
(g1878
g86
tp6269
Rp6270
(dp6271
bag2
(g1857
g86
tp6272
Rp6273
(dp6274
bag91
(g1683
g86
tp6275
Rp6276
(dp6277
bag91
(g1527
g86
tp6278
Rp6279
(dp6280
bag91
(g1554
g86
tp6281
Rp6282
(dp6283
bag2
(g1359
g86
tp6284
Rp6285
(dp6286
bag91
(g1386
g86
tp6287
Rp6288
(dp6289
bag2
(g1479
g86
tp6290
Rp6291
(dp6292
bag91
(g1212
g86
tp6293
Rp6294
(dp6295
bag91
(g1230
g86
tp6296
Rp6297
(dp6298
bag91
(g17
g86
tp6299
Rp6300
(dp6301
bag2
(g108
g86
tp6302
Rp6303
(dp6304
ba(lp6305
g2
(g123
g86
tp6306
Rp6307
(dp6308
batp6309
a((lp6310
g91
(g3
(g9
(I-317435766
I583057
tp6311
Rp6312
(dp6313
bg8
(g9
(I-335370400
I583057
tp6314
Rp6315
(dp6316
bg59
tp6317
Rp6318
(dp6319
btp6320
Rp6321
(dp6322
bg86
tp6323
Rp6324
(dp6325
bag91
(g150
g86
tp6326
Rp6327
(dp6328
bag91
(g150
g86
tp6329
Rp6330
(dp6331
bag91
(g3372
g86
tp6332
Rp6333
(dp6334
bag91
(g2943
g86
tp6335
Rp6336
(dp6337
bag91
(g2580
g86
tp6338
Rp6339
(dp6340
bag91
(g1878
g86
tp6341
Rp6342
(dp6343
bag91
(g1683
g86
tp6344
Rp6345
(dp6346
bag91
(g1527
g86
tp6347
Rp6348
(dp6349
bag91
(g1554
g86
tp6350
Rp6351
(dp6352
bag91
(g1386
g86
tp6353
Rp6354
(dp6355
bag91
(g1212
g86
tp6356
Rp6357
(dp6358
bag91
(g1230
g86
tp6359
Rp6360
(dp6361
bag91
(g17
g86
tp6362
Rp6363
(dp6364
ba(lp6365
g2
(g123
g86
tp6366
Rp6367
(dp6368
batp6369
a((lp6370
g91
(g165
g86
tp6371
Rp6372
(dp6373
bag91
(g3
(g9
(I317435766
I583057
tp6374
Rp6375
(dp6376
bg8
(g9
(I335370400
I583057
tp6377
Rp6378
(dp6379
bg59
tp6380
Rp6381
(dp6382
btp6383
Rp6384
(dp6385
bg86
tp6386
Rp6387
(dp6388
bag91
(g150
g86
tp6389
Rp6390
(dp6391
bag91
(g3372
g86
tp6392
Rp6393
(dp6394
bag91
(g2943
g86
tp6395
Rp6396
(dp6397
bag91
(g2580
g86
tp6398
Rp6399
(dp6400
bag91
(g1878
g86
tp6401
Rp6402
(dp6403
bag91
(g1683
g86
tp6404
Rp6405
(dp6406
bag91
(g1527
g86
tp6407
Rp6408
(dp6409
bag91
(g1554
g86
tp6410
Rp6411
(dp6412
bag91
(g1386
g86
tp6413
Rp6414
(dp6415
bag91
(g1212
g86
tp6416
Rp6417
(dp6418
bag91
(g1230
g86
tp6419
Rp6420
(dp6421
bag91
(g17
g86
tp6422
Rp6423
(dp6424
ba(lp6425
g2
(g123
g86
tp6426
Rp6427
(dp6428
batp6429
a((lp6430
g2
(g165
g86
tp6431
Rp6432
(dp6433
bag91
(g123
g86
tp6434
Rp6435
(dp6436
bag2
(g108
g86
tp6437
Rp6438
(dp6439
bag91
(g17
g86
tp6440
Rp6441
(dp6442
bag91
(g1230
g86
tp6443
Rp6444
(dp6445
bag91
(g1212
g86
tp6446
Rp6447
(dp6448
bag2
(g1479
g86
tp6449
Rp6450
(dp6451
bag91
(g1386
g86
tp6452
Rp6453
(dp6454
bag2
(g1359
g86
tp6455
Rp6456
(dp6457
bag91
(g1554
g86
tp6458
Rp6459
(dp6460
bag91
(g1527
g86
tp6461
Rp6462
(dp6463
bag91
(g1683
g86
tp6464
Rp6465
(dp6466
bag2
(g1857
g86
tp6467
Rp6468
(dp6469
bag91
(g1878
g86
tp6470
Rp6471
(dp6472
bag2
(g2019
g86
tp6473
Rp6474
(dp6475
bag91
(g2580
g86
tp6476
Rp6477
(dp6478
bag91
(g2943
g86
tp6479
Rp6480
(dp6481
bag91
(g3372
g86
tp6482
Rp6483
(dp6484
bag2
(g1203
g86
tp6485
Rp6486
(dp6487
bag2
(g1221
g86
tp6488
Rp6489
(dp6490
ba(lp6491
g91
(g138
g86
tp6492
Rp6493
(dp6494
batp6495
a((lp6496
g91
(g3
(g4
(I150
tp6497
Rp6498
(dp6499
bg8
(g4
(I160
tp6500
Rp6501
(dp6502
bg59
tp6503
Rp6504
(dp6505
btp6506
Rp6507
(dp6508
bg86
tp6509
Rp6510
(dp6511
bag91
(g123
g86
tp6512
Rp6513
(dp6514
bag91
(g17
g86
tp6515
Rp6516
(dp6517
bag91
(g1230
g86
tp6518
Rp6519
(dp6520
bag91
(g1212
g86
tp6521
Rp6522
(dp6523
bag91
(g1386
g86
tp6524
Rp6525
(dp6526
bag91
(g1554
g86
tp6527
Rp6528
(dp6529
bag91
(g1527
g86
tp6530
Rp6531
(dp6532
bag91
(g1683
g86
tp6533
Rp6534
(dp6535
bag91
(g1878
g86
tp6536
Rp6537
(dp6538
bag91
(g2580
g86
tp6539
Rp6540
(dp6541
bag91
(g2943
g86
tp6542
Rp6543
(dp6544
ba(lp6545
g2
(g3372
g86
tp6546
Rp6547
(dp6548
batp6549
a((lp6550
g91
(g150
g86
tp6551
Rp6552
(dp6553
bag91
(g123
g86
tp6554
Rp6555
(dp6556
bag91
(g17
g86
tp6557
Rp6558
(dp6559
bag91
(g1230
g86
tp6560
Rp6561
(dp6562
bag91
(g1212
g86
tp6563
Rp6564
(dp6565
bag91
(g1386
g86
tp6566
Rp6567
(dp6568
bag91
(g1554
g86
tp6569
Rp6570
(dp6571
bag91
(g1527
g86
tp6572
Rp6573
(dp6574
bag91
(g1683
g86
tp6575
Rp6576
(dp6577
bag91
(g1878
g86
tp6578
Rp6579
(dp6580
bag91
(g2580
g86
tp6581
Rp6582
(dp6583
bag91
(g2943
g86
tp6584
Rp6585
(dp6586
ba(lp6587
g2
(g3372
g86
tp6588
Rp6589
(dp6590
batp6591
a((lp6592
g91
(g150
g86
tp6593
Rp6594
(dp6595
bag91
(g123
g86
tp6596
Rp6597
(dp6598
bag2
(g108
g86
tp6599
Rp6600
(dp6601
bag91
(g17
g86
tp6602
Rp6603
(dp6604
bag91
(g1230
g86
tp6605
Rp6606
(dp6607
bag91
(g1212
g86
tp6608
Rp6609
(dp6610
bag2
(g1479
g86
tp6611
Rp6612
(dp6613
bag91
(g1386
g86
tp6614
Rp6615
(dp6616
bag2
(g1359
g86
tp6617
Rp6618
(dp6619
bag91
(g1554
g86
tp6620
Rp6621
(dp6622
bag91
(g1527
g86
tp6623
Rp6624
(dp6625
bag91
(g1683
g86
tp6626
Rp6627
(dp6628
bag2
(g1857
g86
tp6629
Rp6630
(dp6631
bag91
(g1878
g86
tp6632
Rp6633
(dp6634
bag2
(g2019
g86
tp6635
Rp6636
(dp6637
bag91
(g2580
g86
tp6638
Rp6639
(dp6640
bag91
(g2943
g86
tp6641
Rp6642
(dp6643
bag91
(g3372
g86
tp6644
Rp6645
(dp6646
bag2
(g1203
g86
tp6647
Rp6648
(dp6649
bag2
(g1221
g86
tp6650
Rp6651
(dp6652
ba(lp6653
g91
(g138
g86
tp6654
Rp6655
(dp6656
batp6657
a((lp6658
g91
(g150
g86
tp6659
Rp6660
(dp6661
bag91
(g123
g86
tp6662
Rp6663
(dp6664
bag91
(g17
g86
tp6665
Rp6666
(dp6667
bag91
(g1230
g86
tp6668
Rp6669
(dp6670
bag91
(g1212
g86
tp6671
Rp6672
(dp6673
bag91
(g1386
g86
tp6674
Rp6675
(dp6676
bag91
(g1554
g86
tp6677
Rp6678
(dp6679
bag91
(g1527
g86
tp6680
Rp6681
(dp6682
bag91
(g1683
g86
tp6683
Rp6684
(dp6685
bag91
(g1878
g86
tp6686
Rp6687
(dp6688
bag91
(g2580
g86
tp6689
Rp6690
(dp6691
bag91
(g2943
g86
tp6692
Rp6693
(dp6694
ba(lp6695
g2
(g3372
g86
tp6696
Rp6697
(dp6698
batp6699
a((lp6700
g91
(g150
g86
tp6701
Rp6702
(dp6703
bag91
(g123
g86
tp6704
Rp6705
(dp6706
bag2
(g108
g86
tp6707
Rp6708
(dp6709
bag91
(g17
g86
tp6710
Rp6711
(dp6712
bag91
(g1230
g86
tp6713
Rp6714
(dp6715
bag91
(g1212
g86
tp6716
Rp6717
(dp6718
bag2
(g1479
g86
tp6719
Rp6720
(dp6721
bag91
(g1386
g86
tp6722
Rp6723
(dp6724
bag2
(g1359
g86
tp6725
Rp6726
(dp6727
bag91
(g1554
g86
tp6728
Rp6729
(dp6730
bag91
(g1527
g86
tp6731
Rp6732
(dp6733
bag91
(g1683
g86
tp6734
Rp6735
(dp6736
bag2
(g1857
g86
tp6737
Rp6738
(dp6739
bag91
(g1878
g86
tp6740
Rp6741
(dp6742
bag2
(g2019
g86
tp6743
Rp6744
(dp6745
bag91
(g2580
g86
tp6746
Rp6747
(dp6748
bag91
(g2943
g86
tp6749
Rp6750
(dp6751
bag91
(g3372
g86
tp6752
Rp6753
(dp6754
bag2
(g1203
g86
tp6755
Rp6756
(dp6757
bag2
(g1221
g86
tp6758
Rp6759
(dp6760
ba(lp6761
g91
(g138
g86
tp6762
Rp6763
(dp6764
batp6765
a((lp6766
g2
(g165
g86
tp6767
Rp6768
(dp6769
bag91
(g150
g86
tp6770
Rp6771
(dp6772
bag91
(g123
g86
tp6773
Rp6774
(dp6775
bag2
(g108
g86
tp6776
Rp6777
(dp6778
bag91
(g17
g86
tp6779
Rp6780
(dp6781
bag91
(g1230
g86
tp6782
Rp6783
(dp6784
bag91
(g1212
g86
tp6785
Rp6786
(dp6787
bag2
(g1479
g86
tp6788
Rp6789
(dp6790
bag91
(g1386
g86
tp6791
Rp6792
(dp6793
bag2
(g1359
g86
tp6794
Rp6795
(dp6796
bag91
(g1554
g86
tp6797
Rp6798
(dp6799
bag91
(g1527
g86
tp6800
Rp6801
(dp6802
bag91
(g1683
g86
tp6803
Rp6804
(dp6805
bag2
(g1857
g86
tp6806
Rp6807
(dp6808
bag91
(g1878
g86
tp6809
Rp6810
(dp6811
bag2
(g2019
g86
tp6812
Rp6813
(dp6814
bag91
(g2580
g86
tp6815
Rp6816
(dp6817
bag91
(g2943
g86
tp6818
Rp6819
(dp6820
bag91
(g3372
g86
tp6821
Rp6822
(dp6823
bag2
(g1203
g86
tp6824
Rp6825
(dp6826
bag2
(g1221
g86
tp6827
Rp6828
(dp6829
ba(lp6830
g91
(g138
g86
tp6831
Rp6832
(dp6833
batp6834
a((lp6835
g91
(g3
(g9
(I-2412771
I4424
tp6836
Rp6837
(dp6838
bg8
(g9
(I-12108095
I21014
tp6839
Rp6840
(dp6841
bg59
tp6842
Rp6843
(dp6844
btp6845
Rp6846
(dp6847
bg86
tp6848
Rp6849
(dp6850
bag91
(g165
g86
tp6851
Rp6852
(dp6853
bag91
(g150
g86
tp6854
Rp6855
(dp6856
bag91
(g123
g86
tp6857
Rp6858
(dp6859
bag91
(g17
g86
tp6860
Rp6861
(dp6862
bag91
(g1230
g86
tp6863
Rp6864
(dp6865
bag91
(g1212
g86
tp6866
Rp6867
(dp6868
bag91
(g1386
g86
tp6869
Rp6870
(dp6871
bag91
(g1554
g86
tp6872
Rp6873
(dp6874
bag91
(g1527
g86
tp6875
Rp6876
(dp6877
bag91
(g1683
g86
tp6878
Rp6879
(dp6880
bag91
(g1878
g86
tp6881
Rp6882
(dp6883
bag91
(g2580
g86
tp6884
Rp6885
(dp6886
bag91
(g2943
g86
tp6887
Rp6888
(dp6889
ba(lp6890
g2
(g3372
g86
tp6891
Rp6892
(dp6893
batp6894
a((lp6895
g91
(g150
g86
tp6896
Rp6897
(dp6898
bag91
(g3
(g9
(I2412771
I4424
tp6899
Rp6900
(dp6901
bg8
(g9
(I12108095
I21014
tp6902
Rp6903
(dp6904
bg59
tp6905
Rp6906
(dp6907
btp6908
Rp6909
(dp6910
bg86
tp6911
Rp6912
(dp6913
bag91
(g150
g86
tp6914
Rp6915
(dp6916
bag91
(g123
g86
tp6917
Rp6918
(dp6919
bag91
(g17
g86
tp6920
Rp6921
(dp6922
bag91
(g1230
g86
tp6923
Rp6924
(dp6925
bag91
(g1212
g86
tp6926
Rp6927
(dp6928
bag91
(g1386
g86
tp6929
Rp6930
(dp6931
bag91
(g1554
g86
tp6932
Rp6933
(dp6934
bag91
(g1527
g86
tp6935
Rp6936
(dp6937
bag91
(g1683
g86
tp6938
Rp6939
(dp6940
bag91
(g1878
g86
tp6941
Rp6942
(dp6943
bag91
(g2580
g86
tp6944
Rp6945
(dp6946
bag91
(g2943
g86
tp6947
Rp6948
(dp6949
ba(lp6950
g2
(g3372
g86
tp6951
Rp6952
(dp6953
batp6954
a((lp6955
g91
(g150
g86
tp6956
Rp6957
(dp6958
bag91
(g6909
g86
tp6959
Rp6960
(dp6961
bag91
(g150
g86
tp6962
Rp6963
(dp6964
bag91
(g123
g86
tp6965
Rp6966
(dp6967
bag2
(g108
g86
tp6968
Rp6969
(dp6970
bag91
(g17
g86
tp6971
Rp6972
(dp6973
bag91
(g1230
g86
tp6974
Rp6975
(dp6976
bag91
(g1212
g86
tp6977
Rp6978
(dp6979
bag2
(g1479
g86
tp6980
Rp6981
(dp6982
bag91
(g1386
g86
tp6983
Rp6984
(dp6985
bag2
(g1359
g86
tp6986
Rp6987
(dp6988
bag91
(g1554
g86
tp6989
Rp6990
(dp6991
bag91
(g1527
g86
tp6992
Rp6993
(dp6994
bag91
(g1683
g86
tp6995
Rp6996
(dp6997
bag2
(g1857
g86
tp6998
Rp6999
(dp7000
bag91
(g1878
g86
tp7001
Rp7002
(dp7003
bag2
(g2019
g86
tp7004
Rp7005
(dp7006
bag91
(g2580
g86
tp7007
Rp7008
(dp7009
bag91
(g2943
g86
tp7010
Rp7011
(dp7012
bag91
(g3372
g86
tp7013
Rp7014
(dp7015
bag2
(g1203
g86
tp7016
Rp7017
(dp7018
bag2
(g1221
g86
tp7019
Rp7020
(dp7021
ba(lp7022
g91
(g138
g86
tp7023
Rp7024
(dp7025
batp7026
a((lp7027
g2
(g150
g86
tp7028
Rp7029
(dp7030
bag2
(g6909
g86
tp7031
Rp7032
(dp7033
bag91
(g150
g86
tp7034
Rp7035
(dp7036
bag91
(g123
g86
tp7037
Rp7038
(dp7039
bag2
(g108
g86
tp7040
Rp7041
(dp7042
bag91
(g17
g86
tp7043
Rp7044
(dp7045
bag91
(g1230
g86
tp7046
Rp7047
(dp7048
bag91
(g1212
g86
tp7049
Rp7050
(dp7051
bag2
(g1479
g86
tp7052
Rp7053
(dp7054
bag91
(g1386
g86
tp7055
Rp7056
(dp7057
bag2
(g1359
g86
tp7058
Rp7059
(dp7060
bag91
(g1554
g86
tp7061
Rp7062
(dp7063
bag91
(g1527
g86
tp7064
Rp7065
(dp7066
bag91
(g1683
g86
tp7067
Rp7068
(dp7069
bag2
(g1857
g86
tp7070
Rp7071
(dp7072
bag91
(g1878
g86
tp7073
Rp7074
(dp7075
bag2
(g2019
g86
tp7076
Rp7077
(dp7078
bag91
(g2580
g86
tp7079
Rp7080
(dp7081
bag91
(g2943
g86
tp7082
Rp7083
(dp7084
bag91
(g3372
g86
tp7085
Rp7086
(dp7087
bag2
(g1203
g86
tp7088
Rp7089
(dp7090
bag2
(g1221
g86
tp7091
Rp7092
(dp7093
ba(lp7094
g91
(g138
g86
tp7095
Rp7096
(dp7097
batp7098
a((lp7099
g2
(g165
g86
tp7100
Rp7101
(dp7102
bag91
(g150
g86
tp7103
Rp7104
(dp7105
bag91
(g123
g86
tp7106
Rp7107
(dp7108
bag2
(g108
g86
tp7109
Rp7110
(dp7111
bag91
(g17
g86
tp7112
Rp7113
(dp7114
bag91
(g1230
g86
tp7115
Rp7116
(dp7117
bag91
(g1212
g86
tp7118
Rp7119
(dp7120
bag2
(g1479
g86
tp7121
Rp7122
(dp7123
bag91
(g1386
g86
tp7124
Rp7125
(dp7126
bag2
(g1359
g86
tp7127
Rp7128
(dp7129
bag91
(g1554
g86
tp7130
Rp7131
(dp7132
bag91
(g1527
g86
tp7133
Rp7134
(dp7135
bag91
(g1683
g86
tp7136
Rp7137
(dp7138
bag2
(g1857
g86
tp7139
Rp7140
(dp7141
bag91
(g1878
g86
tp7142
Rp7143
(dp7144
bag2
(g2019
g86
tp7145
Rp7146
(dp7147
bag91
(g2580
g86
tp7148
Rp7149
(dp7150
bag91
(g2943
g86
tp7151
Rp7152
(dp7153
bag91
(g3372
g86
tp7154
Rp7155
(dp7156
bag2
(g1203
g86
tp7157
Rp7158
(dp7159
bag2
(g1221
g86
tp7160
Rp7161
(dp7162
ba(lp7163
g91
(g138
g86
tp7164
Rp7165
(dp7166
batp7167
a((lp7168
g91
(g6909
g86
tp7169
Rp7170
(dp7171
bag91
(g150
g86
tp7172
Rp7173
(dp7174
bag91
(g123
g86
tp7175
Rp7176
(dp7177
bag91
(g17
g86
tp7178
Rp7179
(dp7180
bag91
(g1230
g86
tp7181
Rp7182
(dp7183
bag91
(g1212
g86
tp7184
Rp7185
(dp7186
bag91
(g1386
g86
tp7187
Rp7188
(dp7189
bag91
(g1554
g86
tp7190
Rp7191
(dp7192
bag91
(g1527
g86
tp7193
Rp7194
(dp7195
bag91
(g1683
g86
tp7196
Rp7197
(dp7198
bag91
(g1878
g86
tp7199
Rp7200
(dp7201
bag91
(g2580
g86
tp7202
Rp7203
(dp7204
bag91
(g2943
g86
tp7205
Rp7206
(dp7207
ba(lp7208
g2
(g3372
g86
tp7209
Rp7210
(dp7211
batp7212
a((lp7213
g91
(g6909
g86
tp7214
Rp7215
(dp7216
bag2
(g165
g86
tp7217
Rp7218
(dp7219
bag91
(g150
g86
tp7220
Rp7221
(dp7222
bag91
(g123
g86
tp7223
Rp7224
(dp7225
bag2
(g108
g86
tp7226
Rp7227
(dp7228
bag91
(g17
g86
tp7229
Rp7230
(dp7231
bag91
(g1230
g86
tp7232
Rp7233
(dp7234
bag91
(g1212
g86
tp7235
Rp7236
(dp7237
bag2
(g1479
g86
tp7238
Rp7239
(dp7240
bag91
(g1386
g86
tp7241
Rp7242
(dp7243
bag2
(g1359
g86
tp7244
Rp7245
(dp7246
bag91
(g1554
g86
tp7247
Rp7248
(dp7249
bag91
(g1527
g86
tp7250
Rp7251
(dp7252
bag91
(g1683
g86
tp7253
Rp7254
(dp7255
bag2
(g1857
g86
tp7256
Rp7257
(dp7258
bag91
(g1878
g86
tp7259
Rp7260
(dp7261
bag2
(g2019
g86
tp7262
Rp7263
(dp7264
bag91
(g2580
g86
tp7265
Rp7266
(dp7267
bag91
(g2943
g86
tp7268
Rp7269
(dp7270
bag91
(g3372
g86
tp7271
Rp7272
(dp7273
bag2
(g1203
g86
tp7274
Rp7275
(dp7276
bag2
(g1221
g86
tp7277
Rp7278
(dp7279
ba(lp7280
g91
(g138
g86
tp7281
Rp7282
(dp7283
batp7284
a((lp7285
g91
(g3
(g9
(I-7629
I14
tp7286
Rp7287
(dp7288
bg8
(g9
(I-4030
I7
tp7289
Rp7290
(dp7291
bg59
tp7292
Rp7293
(dp7294
btp7295
Rp7296
(dp7297
bg86
tp7298
Rp7299
(dp7300
bag91
(g165
g86
tp7301
Rp7302
(dp7303
bag91
(g6909
g86
tp7304
Rp7305
(dp7306
bag91
(g150
g86
tp7307
Rp7308
(dp7309
bag91
(g123
g86
tp7310
Rp7311
(dp7312
bag91
(g17
g86
tp7313
Rp7314
(dp7315
bag91
(g1230
g86
tp7316
Rp7317
(dp7318
bag91
(g1212
g86
tp7319
Rp7320
(dp7321
bag91
(g1386
g86
tp7322
Rp7323
(dp7324
bag91
(g1554
g86
tp7325
Rp7326
(dp7327
bag91
(g1527
g86
tp7328
Rp7329
(dp7330
bag91
(g1683
g86
tp7331
Rp7332
(dp7333
bag91
(g1878
g86
tp7334
Rp7335
(dp7336
bag91
(g2580
g86
tp7337
Rp7338
(dp7339
bag91
(g2943
g86
tp7340
Rp7341
(dp7342
ba(lp7343
g2
(g3372
g86
tp7344
Rp7345
(dp7346
batp7347
a((lp7348
g2
(g165
g86
tp7349
Rp7350
(dp7351
bag91
(g6909
g86
tp7352
Rp7353
(dp7354
bag2
(g165
g86
tp7355
Rp7356
(dp7357
bag91
(g150
g86
tp7358
Rp7359
(dp7360
bag91
(g123
g86
tp7361
Rp7362
(dp7363
bag2
(g108
g86
tp7364
Rp7365
(dp7366
bag91
(g17
g86
tp7367
Rp7368
(dp7369
bag91
(g1230
g86
tp7370
Rp7371
(dp7372
bag91
(g1212
g86
tp7373
Rp7374
(dp7375
bag2
(g1479
g86
tp7376
Rp7377
(dp7378
bag91
(g1386
g86
tp7379
Rp7380
(dp7381
bag2
(g1359
g86
tp7382
Rp7383
(dp7384
bag91
(g1554
g86
tp7385
Rp7386
(dp7387
bag91
(g1527
g86
tp7388
Rp7389
(dp7390
bag91
(g1683
g86
tp7391
Rp7392
(dp7393
bag2
(g1857
g86
tp7394
Rp7395
(dp7396
bag91
(g1878
g86
tp7397
Rp7398
(dp7399
bag2
(g2019
g86
tp7400
Rp7401
(dp7402
bag91
(g2580
g86
tp7403
Rp7404
(dp7405
bag91
(g2943
g86
tp7406
Rp7407
(dp7408
bag91
(g3372
g86
tp7409
Rp7410
(dp7411
bag2
(g1203
g86
tp7412
Rp7413
(dp7414
bag2
(g1221
g86
tp7415
Rp7416
(dp7417
ba(lp7418
g91
(g138
g86
tp7419
Rp7420
(dp7421
batp7422
a((lp7423
g91
(g150
g86
tp7424
Rp7425
(dp7426
bag91
(g3
(g9
(I7629
I14
tp7427
Rp7428
(dp7429
bg8
(g9
(I4030
I7
tp7430
Rp7431
(dp7432
bg59
tp7433
Rp7434
(dp7435
btp7436
Rp7437
(dp7438
bg86
tp7439
Rp7440
(dp7441
bag91
(g6909
g86
tp7442
Rp7443
(dp7444
bag91
(g150
g86
tp7445
Rp7446
(dp7447
bag91
(g123
g86
tp7448
Rp7449
(dp7450
bag91
(g17
g86
tp7451
Rp7452
(dp7453
bag91
(g1230
g86
tp7454
Rp7455
(dp7456
bag91
(g1212
g86
tp7457
Rp7458
(dp7459
bag91
(g1386
g86
tp7460
Rp7461
(dp7462
bag91
(g1554
g86
tp7463
Rp7464
(dp7465
bag91
(g1527
g86
tp7466
Rp7467
(dp7468
bag91
(g1683
g86
tp7469
Rp7470
(dp7471
bag91
(g1878
g86
tp7472
Rp7473
(dp7474
bag91
(g2580
g86
tp7475
Rp7476
(dp7477
bag91
(g2943
g86
tp7478
Rp7479
(dp7480
ba(lp7481
g2
(g3372
g86
tp7482
Rp7483
(dp7484
batp7485
a((lp7486
g91
(g150
g86
tp7487
Rp7488
(dp7489
bag91
(g7437
g86
tp7490
Rp7491
(dp7492
bag91
(g6909
g86
tp7493
Rp7494
(dp7495
bag2
(g165
g86
tp7496
Rp7497
(dp7498
bag91
(g150
g86
tp7499
Rp7500
(dp7501
bag91
(g123
g86
tp7502
Rp7503
(dp7504
bag2
(g108
g86
tp7505
Rp7506
(dp7507
bag91
(g17
g86
tp7508
Rp7509
(dp7510
bag91
(g1230
g86
tp7511
Rp7512
(dp7513
bag91
(g1212
g86
tp7514
Rp7515
(dp7516
bag2
(g1479
g86
tp7517
Rp7518
(dp7519
bag91
(g1386
g86
tp7520
Rp7521
(dp7522
bag2
(g1359
g86
tp7523
Rp7524
(dp7525
bag91
(g1554
g86
tp7526
Rp7527
(dp7528
bag91
(g1527
g86
tp7529
Rp7530
(dp7531
bag91
(g1683
g86
tp7532
Rp7533
(dp7534
bag2
(g1857
g86
tp7535
Rp7536
(dp7537
bag91
(g1878
g86
tp7538
Rp7539
(dp7540
bag2
(g2019
g86
tp7541
Rp7542
(dp7543
bag91
(g2580
g86
tp7544
Rp7545
(dp7546
bag91
(g2943
g86
tp7547
Rp7548
(dp7549
bag91
(g3372
g86
tp7550
Rp7551
(dp7552
bag2
(g1203
g86
tp7553
Rp7554
(dp7555
bag2
(g1221
g86
tp7556
Rp7557
(dp7558
ba(lp7559
g91
(g138
g86
tp7560
Rp7561
(dp7562
batp7563
a((lp7564
g2
(g150
g86
tp7565
Rp7566
(dp7567
bag2
(g7437
g86
tp7568
Rp7569
(dp7570
bag91
(g6909
g86
tp7571
Rp7572
(dp7573
bag2
(g165
g86
tp7574
Rp7575
(dp7576
bag91
(g150
g86
tp7577
Rp7578
(dp7579
bag91
(g123
g86
tp7580
Rp7581
(dp7582
bag2
(g108
g86
tp7583
Rp7584
(dp7585
bag91
(g17
g86
tp7586
Rp7587
(dp7588
bag91
(g1230
g86
tp7589
Rp7590
(dp7591
bag91
(g1212
g86
tp7592
Rp7593
(dp7594
bag2
(g1479
g86
tp7595
Rp7596
(dp7597
bag91
(g1386
g86
tp7598
Rp7599
(dp7600
bag2
(g1359
g86
tp7601
Rp7602
(dp7603
bag91
(g1554
g86
tp7604
Rp7605
(dp7606
bag91
(g1527
g86
tp7607
Rp7608
(dp7609
bag91
(g1683
g86
tp7610
Rp7611
(dp7612
bag2
(g1857
g86
tp7613
Rp7614
(dp7615
bag91
(g1878
g86
tp7616
Rp7617
(dp7618
bag2
(g2019
g86
tp7619
Rp7620
(dp7621
bag91
(g2580
g86
tp7622
Rp7623
(dp7624
bag91
(g2943
g86
tp7625
Rp7626
(dp7627
bag91
(g3372
g86
tp7628
Rp7629
(dp7630
bag2
(g1203
g86
tp7631
Rp7632
(dp7633
bag2
(g1221
g86
tp7634
Rp7635
(dp7636
ba(lp7637
g91
(g138
g86
tp7638
Rp7639
(dp7640
batp7641
a((lp7642
g2
(g165
g86
tp7643
Rp7644
(dp7645
bag91
(g6909
g86
tp7646
Rp7647
(dp7648
bag2
(g165
g86
tp7649
Rp7650
(dp7651
bag91
(g150
g86
tp7652
Rp7653
(dp7654
bag91
(g123
g86
tp7655
Rp7656
(dp7657
bag2
(g108
g86
tp7658
Rp7659
(dp7660
bag91
(g17
g86
tp7661
Rp7662
(dp7663
bag91
(g1230
g86
tp7664
Rp7665
(dp7666
bag91
(g1212
g86
tp7667
Rp7668
(dp7669
bag2
(g1479
g86
tp7670
Rp7671
(dp7672
bag91
(g1386
g86
tp7673
Rp7674
(dp7675
bag2
(g1359
g86
tp7676
Rp7677
(dp7678
bag91
(g1554
g86
tp7679
Rp7680
(dp7681
bag91
(g1527
g86
tp7682
Rp7683
(dp7684
bag91
(g1683
g86
tp7685
Rp7686
(dp7687
bag2
(g1857
g86
tp7688
Rp7689
(dp7690
bag91
(g1878
g86
tp7691
Rp7692
(dp7693
bag2
(g2019
g86
tp7694
Rp7695
(dp7696
bag91
(g2580
g86
tp7697
Rp7698
(dp7699
bag91
(g2943
g86
tp7700
Rp7701
(dp7702
bag91
(g3372
g86
tp7703
Rp7704
(dp7705
bag2
(g1203
g86
tp7706
Rp7707
(dp7708
bag2
(g1221
g86
tp7709
Rp7710
(dp7711
ba(lp7712
g91
(g138
g86
tp7713
Rp7714
(dp7715
batp7716
a((lp7717
g91
(g7437
g86
tp7718
Rp7719
(dp7720
bag91
(g6909
g86
tp7721
Rp7722
(dp7723
bag91
(g150
g86
tp7724
Rp7725
(dp7726
bag91
(g123
g86
tp7727
Rp7728
(dp7729
bag91
(g17
g86
tp7730
Rp7731
(dp7732
bag91
(g1230
g86
tp7733
Rp7734
(dp7735
bag91
(g1212
g86
tp7736
Rp7737
(dp7738
bag91
(g1386
g86
tp7739
Rp7740
(dp7741
bag91
(g1554
g86
tp7742
Rp7743
(dp7744
bag91
(g1527
g86
tp7745
Rp7746
(dp7747
bag91
(g1683
g86
tp7748
Rp7749
(dp7750
bag91
(g1878
g86
tp7751
Rp7752
(dp7753
bag91
(g2580
g86
tp7754
Rp7755
(dp7756
bag91
(g2943
g86
tp7757
Rp7758
(dp7759
ba(lp7760
g2
(g3372
g86
tp7761
Rp7762
(dp7763
batp7764
a((lp7765
g91
(g7437
g86
tp7766
Rp7767
(dp7768
bag91
(g6909
g86
tp7769
Rp7770
(dp7771
bag2
(g165
g86
tp7772
Rp7773
(dp7774
bag91
(g150
g86
tp7775
Rp7776
(dp7777
bag91
(g123
g86
tp7778
Rp7779
(dp7780
bag2
(g108
g86
tp7781
Rp7782
(dp7783
bag91
(g17
g86
tp7784
Rp7785
(dp7786
bag91
(g1230
g86
tp7787
Rp7788
(dp7789
bag91
(g1212
g86
tp7790
Rp7791
(dp7792
bag2
(g1479
g86
tp7793
Rp7794
(dp7795
bag91
(g1386
g86
tp7796
Rp7797
(dp7798
bag2
(g1359
g86
tp7799
Rp7800
(dp7801
bag91
(g1554
g86
tp7802
Rp7803
(dp7804
bag91
(g1527
g86
tp7805
Rp7806
(dp7807
bag91
(g1683
g86
tp7808
Rp7809
(dp7810
bag2
(g1857
g86
tp7811
Rp7812
(dp7813
bag91
(g1878
g86
tp7814
Rp7815
(dp7816
bag2
(g2019
g86
tp7817
Rp7818
(dp7819
bag91
(g2580
g86
tp7820
Rp7821
(dp7822
bag91
(g2943
g86
tp7823
Rp7824
(dp7825
bag91
(g3372
g86
tp7826
Rp7827
(dp7828
bag2
(g1203
g86
tp7829
Rp7830
(dp7831
bag2
(g1221
g86
tp7832
Rp7833
(dp7834
ba(lp7835
g91
(g138
g86
tp7836
Rp7837
(dp7838
batp7839
a((lp7840
g2
(g165
g86
tp7841
Rp7842
(dp7843
bag91
(g7437
g86
tp7844
Rp7845
(dp7846
bag91
(g6909
g86
tp7847
Rp7848
(dp7849
bag2
(g165
g86
tp7850
Rp7851
(dp7852
bag91
(g150
g86
tp7853
Rp7854
(dp7855
bag91
(g123
g86
tp7856
Rp7857
(dp7858
bag2
(g108
g86
tp7859
Rp7860
(dp7861
bag91
(g17
g86
tp7862
Rp7863
(dp7864
bag91
(g1230
g86
tp7865
Rp7866
(dp7867
bag91
(g1212
g86
tp7868
Rp7869
(dp7870
bag2
(g1479
g86
tp7871
Rp7872
(dp7873
bag91
(g1386
g86
tp7874
Rp7875
(dp7876
bag2
(g1359
g86
tp7877
Rp7878
(dp7879
bag91
(g1554
g86
tp7880
Rp7881
(dp7882
bag91
(g1527
g86
tp7883
Rp7884
(dp7885
bag91
(g1683
g86
tp7886
Rp7887
(dp7888
bag2
(g1857
g86
tp7889
Rp7890
(dp7891
bag91
(g1878
g86
tp7892
Rp7893
(dp7894
bag2
(g2019
g86
tp7895
Rp7896
(dp7897
bag91
(g2580
g86
tp7898
Rp7899
(dp7900
bag91
(g2943
g86
tp7901
Rp7902
(dp7903
bag91
(g3372
g86
tp7904
Rp7905
(dp7906
bag2
(g1203
g86
tp7907
Rp7908
(dp7909
bag2
(g1221
g86
tp7910
Rp7911
(dp7912
ba(lp7913
g91
(g138
g86
tp7914
Rp7915
(dp7916
batp7917
a((lp7918
g91
(g150
g86
tp7919
Rp7920
(dp7921
bag91
(g177
g86
tp7922
Rp7923
(dp7924
bag91
(g7437
g86
tp7925
Rp7926
(dp7927
bag91
(g6909
g86
tp7928
Rp7929
(dp7930
bag91
(g150
g86
tp7931
Rp7932
(dp7933
bag91
(g123
g86
tp7934
Rp7935
(dp7936
bag91
(g17
g86
tp7937
Rp7938
(dp7939
bag91
(g1230
g86
tp7940
Rp7941
(dp7942
bag91
(g1212
g86
tp7943
Rp7944
(dp7945
bag91
(g1386
g86
tp7946
Rp7947
(dp7948
bag91
(g1554
g86
tp7949
Rp7950
(dp7951
bag91
(g1527
g86
tp7952
Rp7953
(dp7954
bag91
(g1683
g86
tp7955
Rp7956
(dp7957
bag91
(g1878
g86
tp7958
Rp7959
(dp7960
bag91
(g2580
g86
tp7961
Rp7962
(dp7963
bag91
(g2943
g86
tp7964
Rp7965
(dp7966
ba(lp7967
g2
(g3372
g86
tp7968
Rp7969
(dp7970
batp7971
a((lp7972
g91
(g150
g86
tp7973
Rp7974
(dp7975
bag91
(g177
g86
tp7976
Rp7977
(dp7978
bag91
(g7437
g86
tp7979
Rp7980
(dp7981
bag91
(g6909
g86
tp7982
Rp7983
(dp7984
bag2
(g165
g86
tp7985
Rp7986
(dp7987
bag91
(g150
g86
tp7988
Rp7989
(dp7990
bag91
(g123
g86
tp7991
Rp7992
(dp7993
bag2
(g108
g86
tp7994
Rp7995
(dp7996
bag91
(g17
g86
tp7997
Rp7998
(dp7999
bag91
(g1230
g86
tp8000
Rp8001
(dp8002
bag91
(g1212
g86
tp8003
Rp8004
(dp8005
bag2
(g1479
g86
tp8006
Rp8007
(dp8008
bag91
(g1386
g86
tp8009
Rp8010
(dp8011
bag2
(g1359
g86
tp8012
Rp8013
(dp8014
bag91
(g1554
g86
tp8015
Rp8016
(dp8017
bag91
(g1527
g86
tp8018
Rp8019
(dp8020
bag91
(g1683
g86
tp8021
Rp8022
(dp8023
bag2
(g1857
g86
tp8024
Rp8025
(dp8026
bag91
(g1878
g86
tp8027
Rp8028
(dp8029
bag2
(g2019
g86
tp8030
Rp8031
(dp8032
bag91
(g2580
g86
tp8033
Rp8034
(dp8035
bag91
(g2943
g86
tp8036
Rp8037
(dp8038
bag91
(g3372
g86
tp8039
Rp8040
(dp8041
bag2
(g1203
g86
tp8042
Rp8043
(dp8044
bag2
(g1221
g86
tp8045
Rp8046
(dp8047
ba(lp8048
g91
(g138
g86
tp8049
Rp8050
(dp8051
batp8052
a((lp8053
g2
(g165
g86
tp8054
Rp8055
(dp8056
bag91
(g7437
g86
tp8057
Rp8058
(dp8059
bag91
(g6909
g86
tp8060
Rp8061
(dp8062
bag2
(g165
g86
tp8063
Rp8064
(dp8065
bag91
(g150
g86
tp8066
Rp8067
(dp8068
bag91
(g123
g86
tp8069
Rp8070
(dp8071
bag2
(g108
g86
tp8072
Rp8073
(dp8074
bag91
(g17
g86
tp8075
Rp8076
(dp8077
bag91
(g1230
g86
tp8078
Rp8079
(dp8080
bag91
(g1212
g86
tp8081
Rp8082
(dp8083
bag2
(g1479
g86
tp8084
Rp8085
(dp8086
bag91
(g1386
g86
tp8087
Rp8088
(dp8089
bag2
(g1359
g86
tp8090
Rp8091
(dp8092
bag91
(g1554
g86
tp8093
Rp8094
(dp8095
bag91
(g1527
g86
tp8096
Rp8097
(dp8098
bag91
(g1683
g86
tp8099
Rp8100
(dp8101
bag2
(g1857
g86
tp8102
Rp8103
(dp8104
bag91
(g1878
g86
tp8105
Rp8106
(dp8107
bag2
(g2019
g86
tp8108
Rp8109
(dp8110
bag91
(g2580
g86
tp8111
Rp8112
(dp8113
bag91
(g2943
g86
tp8114
Rp8115
(dp8116
bag91
(g3372
g86
tp8117
Rp8118
(dp8119
bag2
(g1203
g86
tp8120
Rp8121
(dp8122
bag2
(g1221
g86
tp8123
Rp8124
(dp8125
ba(lp8126
g91
(g138
g86
tp8127
Rp8128
(dp8129
batp8130
a((lp8131
g91
(g177
g86
tp8132
Rp8133
(dp8134
bag91
(g7437
g86
tp8135
Rp8136
(dp8137
bag91
(g6909
g86
tp8138
Rp8139
(dp8140
bag91
(g150
g86
tp8141
Rp8142
(dp8143
bag91
(g123
g86
tp8144
Rp8145
(dp8146
bag91
(g17
g86
tp8147
Rp8148
(dp8149
bag91
(g1230
g86
tp8150
Rp8151
(dp8152
bag91
(g1212
g86
tp8153
Rp8154
(dp8155
bag91
(g1386
g86
tp8156
Rp8157
(dp8158
bag91
(g1554
g86
tp8159
Rp8160
(dp8161
bag91
(g1527
g86
tp8162
Rp8163
(dp8164
bag91
(g1683
g86
tp8165
Rp8166
(dp8167
bag91
(g1878
g86
tp8168
Rp8169
(dp8170
bag91
(g2580
g86
tp8171
Rp8172
(dp8173
bag91
(g2943
g86
tp8174
Rp8175
(dp8176
ba(lp8177
g2
(g3372
g86
tp8178
Rp8179
(dp8180
batp8181
a((lp8182
g91
(g177
g86
tp8183
Rp8184
(dp8185
bag91
(g7437
g86
tp8186
Rp8187
(dp8188
bag91
(g6909
g86
tp8189
Rp8190
(dp8191
bag2
(g165
g86
tp8192
Rp8193
(dp8194
bag91
(g150
g86
tp8195
Rp8196
(dp8197
bag91
(g123
g86
tp8198
Rp8199
(dp8200
bag2
(g108
g86
tp8201
Rp8202
(dp8203
bag91
(g17
g86
tp8204
Rp8205
(dp8206
bag91
(g1230
g86
tp8207
Rp8208
(dp8209
bag91
(g1212
g86
tp8210
Rp8211
(dp8212
bag2
(g1479
g86
tp8213
Rp8214
(dp8215
bag91
(g1386
g86
tp8216
Rp8217
(dp8218
bag2
(g1359
g86
tp8219
Rp8220
(dp8221
bag91
(g1554
g86
tp8222
Rp8223
(dp8224
bag91
(g1527
g86
tp8225
Rp8226
(dp8227
bag91
(g1683
g86
tp8228
Rp8229
(dp8230
bag2
(g1857
g86
tp8231
Rp8232
(dp8233
bag91
(g1878
g86
tp8234
Rp8235
(dp8236
bag2
(g2019
g86
tp8237
Rp8238
(dp8239
bag91
(g2580
g86
tp8240
Rp8241
(dp8242
bag91
(g2943
g86
tp8243
Rp8244
(dp8245
bag91
(g3372
g86
tp8246
Rp8247
(dp8248
bag2
(g1203
g86
tp8249
Rp8250
(dp8251
bag2
(g1221
g86
tp8252
Rp8253
(dp8254
ba(lp8255
g91
(g138
g86
tp8256
Rp8257
(dp8258
batp8259
a((lp8260
g2
(g165
g86
tp8261
Rp8262
(dp8263
bag91
(g177
g86
tp8264
Rp8265
(dp8266
bag91
(g7437
g86
tp8267
Rp8268
(dp8269
bag91
(g6909
g86
tp8270
Rp8271
(dp8272
bag2
(g165
g86
tp8273
Rp8274
(dp8275
bag91
(g150
g86
tp8276
Rp8277
(dp8278
bag91
(g123
g86
tp8279
Rp8280
(dp8281
bag2
(g108
g86
tp8282
Rp8283
(dp8284
bag91
(g17
g86
tp8285
Rp8286
(dp8287
bag91
(g1230
g86
tp8288
Rp8289
(dp8290
bag91
(g1212
g86
tp8291
Rp8292
(dp8293
bag2
(g1479
g86
tp8294
Rp8295
(dp8296
bag91
(g1386
g86
tp8297
Rp8298
(dp8299
bag2
(g1359
g86
tp8300
Rp8301
(dp8302
bag91
(g1554
g86
tp8303
Rp8304
(dp8305
bag91
(g1527
g86
tp8306
Rp8307
(dp8308
bag91
(g1683
g86
tp8309
Rp8310
(dp8311
bag2
(g1857
g86
tp8312
Rp8313
(dp8314
bag91
(g1878
g86
tp8315
Rp8316
(dp8317
bag2
(g2019
g86
tp8318
Rp8319
(dp8320
bag91
(g2580
g86
tp8321
Rp8322
(dp8323
bag91
(g2943
g86
tp8324
Rp8325
(dp8326
bag91
(g3372
g86
tp8327
Rp8328
(dp8329
bag2
(g1203
g86
tp8330
Rp8331
(dp8332
bag2
(g1221
g86
tp8333
Rp8334
(dp8335
ba(lp8336
g91
(g138
g86
tp8337
Rp8338
(dp8339
batp8340
a((lp8341
g91
(g150
g86
tp8342
Rp8343
(dp8344
bag91
(g177
g86
tp8345
Rp8346
(dp8347
bag91
(g7437
g86
tp8348
Rp8349
(dp8350
bag91
(g6909
g86
tp8351
Rp8352
(dp8353
bag91
(g150
g86
tp8354
Rp8355
(dp8356
bag91
(g123
g86
tp8357
Rp8358
(dp8359
bag91
(g17
g86
tp8360
Rp8361
(dp8362
bag91
(g1230
g86
tp8363
Rp8364
(dp8365
bag91
(g1212
g86
tp8366
Rp8367
(dp8368
bag91
(g1386
g86
tp8369
Rp8370
(dp8371
bag91
(g1554
g86
tp8372
Rp8373
(dp8374
bag91
(g1527
g86
tp8375
Rp8376
(dp8377
bag91
(g1683
g86
tp8378
Rp8379
(dp8380
bag91
(g1878
g86
tp8381
Rp8382
(dp8383
bag91
(g2580
g86
tp8384
Rp8385
(dp8386
bag91
(g2943
g86
tp8387
Rp8388
(dp8389
ba(lp8390
g2
(g3372
g86
tp8391
Rp8392
(dp8393
batp8394
a((lp8395
g2
(g6846
g86
tp8396
Rp8397
(dp8398
bag91
(g150
g86
tp8399
Rp8400
(dp8401
bag91
(g177
g86
tp8402
Rp8403
(dp8404
bag91
(g7437
g86
tp8405
Rp8406
(dp8407
bag91
(g6909
g86
tp8408
Rp8409
(dp8410
bag2
(g165
g86
tp8411
Rp8412
(dp8413
bag91
(g150
g86
tp8414
Rp8415
(dp8416
bag91
(g123
g86
tp8417
Rp8418
(dp8419
bag2
(g108
g86
tp8420
Rp8421
(dp8422
bag91
(g17
g86
tp8423
Rp8424
(dp8425
bag91
(g1230
g86
tp8426
Rp8427
(dp8428
bag91
(g1212
g86
tp8429
Rp8430
(dp8431
bag2
(g1479
g86
tp8432
Rp8433
(dp8434
bag91
(g1386
g86
tp8435
Rp8436
(dp8437
bag2
(g1359
g86
tp8438
Rp8439
(dp8440
bag91
(g1554
g86
tp8441
Rp8442
(dp8443
bag91
(g1527
g86
tp8444
Rp8445
(dp8446
bag91
(g1683
g86
tp8447
Rp8448
(dp8449
bag2
(g1857
g86
tp8450
Rp8451
(dp8452
bag91
(g1878
g86
tp8453
Rp8454
(dp8455
bag2
(g2019
g86
tp8456
Rp8457
(dp8458
bag91
(g2580
g86
tp8459
Rp8460
(dp8461
bag91
(g2943
g86
tp8462
Rp8463
(dp8464
bag91
(g3372
g86
tp8465
Rp8466
(dp8467
bag2
(g1203
g86
tp8468
Rp8469
(dp8470
bag2
(g1221
g86
tp8471
Rp8472
(dp8473
ba(lp8474
g91
(g138
g86
tp8475
Rp8476
(dp8477
batp8478
a((lp8479
g91
(g6846
g86
tp8480
Rp8481
(dp8482
bag91
(g177
g86
tp8483
Rp8484
(dp8485
bag91
(g7437
g86
tp8486
Rp8487
(dp8488
bag91
(g6909
g86
tp8489
Rp8490
(dp8491
bag91
(g150
g86
tp8492
Rp8493
(dp8494
bag91
(g123
g86
tp8495
Rp8496
(dp8497
bag91
(g17
g86
tp8498
Rp8499
(dp8500
bag91
(g1230
g86
tp8501
Rp8502
(dp8503
bag91
(g1212
g86
tp8504
Rp8505
(dp8506
bag91
(g1386
g86
tp8507
Rp8508
(dp8509
bag91
(g1554
g86
tp8510
Rp8511
(dp8512
bag91
(g1527
g86
tp8513
Rp8514
(dp8515
bag91
(g1683
g86
tp8516
Rp8517
(dp8518
bag91
(g1878
g86
tp8519
Rp8520
(dp8521
bag91
(g2580
g86
tp8522
Rp8523
(dp8524
bag91
(g2943
g86
tp8525
Rp8526
(dp8527
ba(lp8528
g2
(g3372
g86
tp8529
Rp8530
(dp8531
batp8532
a((lp8533
g91
(g6909
g86
tp8534
Rp8535
(dp8536
bag91
(g177
g86
tp8537
Rp8538
(dp8539
bag91
(g7437
g86
tp8540
Rp8541
(dp8542
bag91
(g6909
g86
tp8543
Rp8544
(dp8545
bag91
(g150
g86
tp8546
Rp8547
(dp8548
bag91
(g123
g86
tp8549
Rp8550
(dp8551
bag91
(g17
g86
tp8552
Rp8553
(dp8554
bag91
(g1230
g86
tp8555
Rp8556
(dp8557
bag91
(g1212
g86
tp8558
Rp8559
(dp8560
bag91
(g1386
g86
tp8561
Rp8562
(dp8563
bag91
(g1554
g86
tp8564
Rp8565
(dp8566
bag91
(g1527
g86
tp8567
Rp8568
(dp8569
bag91
(g1683
g86
tp8570
Rp8571
(dp8572
bag91
(g1878
g86
tp8573
Rp8574
(dp8575
bag91
(g2580
g86
tp8576
Rp8577
(dp8578
bag91
(g2943
g86
tp8579
Rp8580
(dp8581
ba(lp8582
g2
(g3372
g86
tp8583
Rp8584
(dp8585
batp8586
a((lp8587
g2
(g165
g86
tp8588
Rp8589
(dp8590
bag91
(g6909
g86
tp8591
Rp8592
(dp8593
bag91
(g177
g86
tp8594
Rp8595
(dp8596
bag91
(g7437
g86
tp8597
Rp8598
(dp8599
bag91
(g6909
g86
tp8600
Rp8601
(dp8602
bag2
(g165
g86
tp8603
Rp8604
(dp8605
bag91
(g150
g86
tp8606
Rp8607
(dp8608
bag91
(g123
g86
tp8609
Rp8610
(dp8611
bag2
(g108
g86
tp8612
Rp8613
(dp8614
bag91
(g17
g86
tp8615
Rp8616
(dp8617
bag91
(g1230
g86
tp8618
Rp8619
(dp8620
bag91
(g1212
g86
tp8621
Rp8622
(dp8623
bag2
(g1479
g86
tp8624
Rp8625
(dp8626
bag91
(g1386
g86
tp8627
Rp8628
(dp8629
bag2
(g1359
g86
tp8630
Rp8631
(dp8632
bag91
(g1554
g86
tp8633
Rp8634
(dp8635
bag91
(g1527
g86
tp8636
Rp8637
(dp8638
bag91
(g1683
g86
tp8639
Rp8640
(dp8641
bag2
(g1857
g86
tp8642
Rp8643
(dp8644
bag91
(g1878
g86
tp8645
Rp8646
(dp8647
bag2
(g2019
g86
tp8648
Rp8649
(dp8650
bag91
(g2580
g86
tp8651
Rp8652
(dp8653
bag91
(g2943
g86
tp8654
Rp8655
(dp8656
bag91
(g3372
g86
tp8657
Rp8658
(dp8659
bag2
(g1203
g86
tp8660
Rp8661
(dp8662
bag2
(g1221
g86
tp8663
Rp8664
(dp8665
ba(lp8666
g91
(g138
g86
tp8667
Rp8668
(dp8669
batp8670
a((lp8671
g2
(g6846
g86
tp8672
Rp8673
(dp8674
bag91
(g177
g86
tp8675
Rp8676
(dp8677
bag91
(g7437
g86
tp8678
Rp8679
(dp8680
bag91
(g6909
g86
tp8681
Rp8682
(dp8683
bag2
(g165
g86
tp8684
Rp8685
(dp8686
bag91
(g150
g86
tp8687
Rp8688
(dp8689
bag91
(g123
g86
tp8690
Rp8691
(dp8692
bag2
(g108
g86
tp8693
Rp8694
(dp8695
bag91
(g17
g86
tp8696
Rp8697
(dp8698
bag91
(g1230
g86
tp8699
Rp8700
(dp8701
bag91
(g1212
g86
tp8702
Rp8703
(dp8704
bag2
(g1479
g86
tp8705
Rp8706
(dp8707
bag91
(g1386
g86
tp8708
Rp8709
(dp8710
bag2
(g1359
g86
tp8711
Rp8712
(dp8713
bag91
(g1554
g86
tp8714
Rp8715
(dp8716
bag91
(g1527
g86
tp8717
Rp8718
(dp8719
bag91
(g1683
g86
tp8720
Rp8721
(dp8722
bag2
(g1857
g86
tp8723
Rp8724
(dp8725
bag91
(g1878
g86
tp8726
Rp8727
(dp8728
bag2
(g2019
g86
tp8729
Rp8730
(dp8731
bag91
(g2580
g86
tp8732
Rp8733
(dp8734
bag91
(g2943
g86
tp8735
Rp8736
(dp8737
bag91
(g3372
g86
tp8738
Rp8739
(dp8740
bag2
(g1203
g86
tp8741
Rp8742
(dp8743
bag2
(g1221
g86
tp8744
Rp8745
(dp8746
ba(lp8747
g91
(g138
g86
tp8748
Rp8749
(dp8750
batp8751
a((lp8752
g2
(g165
g86
tp8753
Rp8754
(dp8755
bag2
(g6846
g86
tp8756
Rp8757
(dp8758
bag91
(g177
g86
tp8759
Rp8760
(dp8761
bag91
(g7437
g86
tp8762
Rp8763
(dp8764
bag91
(g6909
g86
tp8765
Rp8766
(dp8767
bag2
(g165
g86
tp8768
Rp8769
(dp8770
bag91
(g150
g86
tp8771
Rp8772
(dp8773
bag91
(g123
g86
tp8774
Rp8775
(dp8776
bag2
(g108
g86
tp8777
Rp8778
(dp8779
bag91
(g17
g86
tp8780
Rp8781
(dp8782
bag91
(g1230
g86
tp8783
Rp8784
(dp8785
bag91
(g1212
g86
tp8786
Rp8787
(dp8788
bag2
(g1479
g86
tp8789
Rp8790
(dp8791
bag91
(g1386
g86
tp8792
Rp8793
(dp8794
bag2
(g1359
g86
tp8795
Rp8796
(dp8797
bag91
(g1554
g86
tp8798
Rp8799
(dp8800
bag91
(g1527
g86
tp8801
Rp8802
(dp8803
bag91
(g1683
g86
tp8804
Rp8805
(dp8806
bag2
(g1857
g86
tp8807
Rp8808
(dp8809
bag91
(g1878
g86
tp8810
Rp8811
(dp8812
bag2
(g2019
g86
tp8813
Rp8814
(dp8815
bag91
(g2580
g86
tp8816
Rp8817
(dp8818
bag91
(g2943
g86
tp8819
Rp8820
(dp8821
bag91
(g3372
g86
tp8822
Rp8823
(dp8824
bag2
(g1203
g86
tp8825
Rp8826
(dp8827
bag2
(g1221
g86
tp8828
Rp8829
(dp8830
ba(lp8831
g91
(g138
g86
tp8832
Rp8833
(dp8834
batp8835
a((lp8836
g2
(g7296
g86
tp8837
Rp8838
(dp8839
bag91
(g150
g86
tp8840
Rp8841
(dp8842
bag2
(g6846
g86
tp8843
Rp8844
(dp8845
bag91
(g177
g86
tp8846
Rp8847
(dp8848
bag91
(g7437
g86
tp8849
Rp8850
(dp8851
bag91
(g6909
g86
tp8852
Rp8853
(dp8854
bag2
(g165
g86
tp8855
Rp8856
(dp8857
bag91
(g150
g86
tp8858
Rp8859
(dp8860
bag91
(g123
g86
tp8861
Rp8862
(dp8863
bag2
(g108
g86
tp8864
Rp8865
(dp8866
bag91
(g17
g86
tp8867
Rp8868
(dp8869
bag91
(g1230
g86
tp8870
Rp8871
(dp8872
bag91
(g1212
g86
tp8873
Rp8874
(dp8875
bag2
(g1479
g86
tp8876
Rp8877
(dp8878
bag91
(g1386
g86
tp8879
Rp8880
(dp8881
bag2
(g1359
g86
tp8882
Rp8883
(dp8884
bag91
(g1554
g86
tp8885
Rp8886
(dp8887
bag91
(g1527
g86
tp8888
Rp8889
(dp8890
bag91
(g1683
g86
tp8891
Rp8892
(dp8893
bag2
(g1857
g86
tp8894
Rp8895
(dp8896
bag91
(g1878
g86
tp8897
Rp8898
(dp8899
bag2
(g2019
g86
tp8900
Rp8901
(dp8902
bag91
(g2580
g86
tp8903
Rp8904
(dp8905
bag91
(g2943
g86
tp8906
Rp8907
(dp8908
bag91
(g3372
g86
tp8909
Rp8910
(dp8911
bag2
(g1203
g86
tp8912
Rp8913
(dp8914
bag2
(g1221
g86
tp8915
Rp8916
(dp8917
ba(lp8918
g91
(g138
g86
tp8919
Rp8920
(dp8921
batp8922
a((lp8923
g91
(g7296
g86
tp8924
Rp8925
(dp8926
bag91
(g177
g86
tp8927
Rp8928
(dp8929
bag91
(g7437
g86
tp8930
Rp8931
(dp8932
bag91
(g6909
g86
tp8933
Rp8934
(dp8935
bag91
(g150
g86
tp8936
Rp8937
(dp8938
bag91
(g123
g86
tp8939
Rp8940
(dp8941
bag91
(g17
g86
tp8942
Rp8943
(dp8944
bag91
(g1230
g86
tp8945
Rp8946
(dp8947
bag91
(g1212
g86
tp8948
Rp8949
(dp8950
bag91
(g1386
g86
tp8951
Rp8952
(dp8953
bag91
(g1554
g86
tp8954
Rp8955
(dp8956
bag91
(g1527
g86
tp8957
Rp8958
(dp8959
bag91
(g1683
g86
tp8960
Rp8961
(dp8962
bag91
(g1878
g86
tp8963
Rp8964
(dp8965
bag91
(g2580
g86
tp8966
Rp8967
(dp8968
bag91
(g2943
g86
tp8969
Rp8970
(dp8971
ba(lp8972
g2
(g3372
g86
tp8973
Rp8974
(dp8975
batp8976
a((lp8977
g91
(g7437
g86
tp8978
Rp8979
(dp8980
bag91
(g177
g86
tp8981
Rp8982
(dp8983
bag91
(g7437
g86
tp8984
Rp8985
(dp8986
bag91
(g6909
g86
tp8987
Rp8988
(dp8989
bag91
(g150
g86
tp8990
Rp8991
(dp8992
bag91
(g123
g86
tp8993
Rp8994
(dp8995
bag91
(g17
g86
tp8996
Rp8997
(dp8998
bag91
(g1230
g86
tp8999
Rp9000
(dp9001
bag91
(g1212
g86
tp9002
Rp9003
(dp9004
bag91
(g1386
g86
tp9005
Rp9006
(dp9007
bag91
(g1554
g86
tp9008
Rp9009
(dp9010
bag91
(g1527
g86
tp9011
Rp9012
(dp9013
bag91
(g1683
g86
tp9014
Rp9015
(dp9016
bag91
(g1878
g86
tp9017
Rp9018
(dp9019
bag91
(g2580
g86
tp9020
Rp9021
(dp9022
bag91
(g2943
g86
tp9023
Rp9024
(dp9025
ba(lp9026
g2
(g3372
g86
tp9027
Rp9028
(dp9029
batp9030
a((lp9031
g2
(g165
g86
tp9032
Rp9033
(dp9034
bag91
(g7437
g86
tp9035
Rp9036
(dp9037
bag2
(g6846
g86
tp9038
Rp9039
(dp9040
bag91
(g177
g86
tp9041
Rp9042
(dp9043
bag91
(g7437
g86
tp9044
Rp9045
(dp9046
bag91
(g6909
g86
tp9047
Rp9048
(dp9049
bag2
(g165
g86
tp9050
Rp9051
(dp9052
bag91
(g150
g86
tp9053
Rp9054
(dp9055
bag91
(g123
g86
tp9056
Rp9057
(dp9058
bag2
(g108
g86
tp9059
Rp9060
(dp9061
bag91
(g17
g86
tp9062
Rp9063
(dp9064
bag91
(g1230
g86
tp9065
Rp9066
(dp9067
bag91
(g1212
g86
tp9068
Rp9069
(dp9070
bag2
(g1479
g86
tp9071
Rp9072
(dp9073
bag91
(g1386
g86
tp9074
Rp9075
(dp9076
bag2
(g1359
g86
tp9077
Rp9078
(dp9079
bag91
(g1554
g86
tp9080
Rp9081
(dp9082
bag91
(g1527
g86
tp9083
Rp9084
(dp9085
bag91
(g1683
g86
tp9086
Rp9087
(dp9088
bag2
(g1857
g86
tp9089
Rp9090
(dp9091
bag91
(g1878
g86
tp9092
Rp9093
(dp9094
bag2
(g2019
g86
tp9095
Rp9096
(dp9097
bag91
(g2580
g86
tp9098
Rp9099
(dp9100
bag91
(g2943
g86
tp9101
Rp9102
(dp9103
bag91
(g3372
g86
tp9104
Rp9105
(dp9106
bag2
(g1203
g86
tp9107
Rp9108
(dp9109
bag2
(g1221
g86
tp9110
Rp9111
(dp9112
ba(lp9113
g91
(g138
g86
tp9114
Rp9115
(dp9116
batp9117
a((lp9118
g2
(g7296
g86
tp9119
Rp9120
(dp9121
bag2
(g6846
g86
tp9122
Rp9123
(dp9124
bag91
(g177
g86
tp9125
Rp9126
(dp9127
bag91
(g7437
g86
tp9128
Rp9129
(dp9130
bag91
(g6909
g86
tp9131
Rp9132
(dp9133
bag2
(g165
g86
tp9134
Rp9135
(dp9136
bag91
(g150
g86
tp9137
Rp9138
(dp9139
bag91
(g123
g86
tp9140
Rp9141
(dp9142
bag2
(g108
g86
tp9143
Rp9144
(dp9145
bag91
(g17
g86
tp9146
Rp9147
(dp9148
bag91
(g1230
g86
tp9149
Rp9150
(dp9151
bag91
(g1212
g86
tp9152
Rp9153
(dp9154
bag2
(g1479
g86
tp9155
Rp9156
(dp9157
bag91
(g1386
g86
tp9158
Rp9159
(dp9160
bag2
(g1359
g86
tp9161
Rp9162
(dp9163
bag91
(g1554
g86
tp9164
Rp9165
(dp9166
bag91
(g1527
g86
tp9167
Rp9168
(dp9169
bag91
(g1683
g86
tp9170
Rp9171
(dp9172
bag2
(g1857
g86
tp9173
Rp9174
(dp9175
bag91
(g1878
g86
tp9176
Rp9177
(dp9178
bag2
(g2019
g86
tp9179
Rp9180
(dp9181
bag91
(g2580
g86
tp9182
Rp9183
(dp9184
bag91
(g2943
g86
tp9185
Rp9186
(dp9187
bag91
(g3372
g86
tp9188
Rp9189
(dp9190
bag2
(g1203
g86
tp9191
Rp9192
(dp9193
bag2
(g1221
g86
tp9194
Rp9195
(dp9196
ba(lp9197
g91
(g138
g86
tp9198
Rp9199
(dp9200
batp9201
a((lp9202
g2
(g165
g86
tp9203
Rp9204
(dp9205
bag2
(g7296
g86
tp9206
Rp9207
(dp9208
bag2
(g6846
g86
tp9209
Rp9210
(dp9211
bag91
(g177
g86
tp9212
Rp9213
(dp9214
bag91
(g7437
g86
tp9215
Rp9216
(dp9217
bag91
(g6909
g86
tp9218
Rp9219
(dp9220
bag2
(g165
g86
tp9221
Rp9222
(dp9223
bag91
(g150
g86
tp9224
Rp9225
(dp9226
bag91
(g123
g86
tp9227
Rp9228
(dp9229
bag2
(g108
g86
tp9230
Rp9231
(dp9232
bag91
(g17
g86
tp9233
Rp9234
(dp9235
bag91
(g1230
g86
tp9236
Rp9237
(dp9238
bag91
(g1212
g86
tp9239
Rp9240
(dp9241
bag2
(g1479
g86
tp9242
Rp9243
(dp9244
bag91
(g1386
g86
tp9245
Rp9246
(dp9247
bag2
(g1359
g86
tp9248
Rp9249
(dp9250
bag91
(g1554
g86
tp9251
Rp9252
(dp9253
bag91
(g1527
g86
tp9254
Rp9255
(dp9256
bag91
(g1683
g86
tp9257
Rp9258
(dp9259
bag2
(g1857
g86
tp9260
Rp9261
(dp9262
bag91
(g1878
g86
tp9263
Rp9264
(dp9265
bag2
(g2019
g86
tp9266
Rp9267
(dp9268
bag91
(g2580
g86
tp9269
Rp9270
(dp9271
bag91
(g2943
g86
tp9272
Rp9273
(dp9274
bag91
(g3372
g86
tp9275
Rp9276
(dp9277
bag2
(g1203
g86
tp9278
Rp9279
(dp9280
bag2
(g1221
g86
tp9281
Rp9282
(dp9283
ba(lp9284
g91
(g138
g86
tp9285
Rp9286
(dp9287
batp9288
a((lp9289
g2
(g192
g86
tp9290
Rp9291
(dp9292
bag91
(g150
g86
tp9293
Rp9294
(dp9295
bag2
(g7296
g86
tp9296
Rp9297
(dp9298
bag2
(g6846
g86
tp9299
Rp9300
(dp9301
bag91
(g177
g86
tp9302
Rp9303
(dp9304
bag91
(g7437
g86
tp9305
Rp9306
(dp9307
bag91
(g6909
g86
tp9308
Rp9309
(dp9310
bag2
(g165
g86
tp9311
Rp9312
(dp9313
bag91
(g150
g86
tp9314
Rp9315
(dp9316
bag91
(g123
g86
tp9317
Rp9318
(dp9319
bag2
(g108
g86
tp9320
Rp9321
(dp9322
bag91
(g17
g86
tp9323
Rp9324
(dp9325
bag91
(g1230
g86
tp9326
Rp9327
(dp9328
bag91
(g1212
g86
tp9329
Rp9330
(dp9331
bag2
(g1479
g86
tp9332
Rp9333
(dp9334
bag91
(g1386
g86
tp9335
Rp9336
(dp9337
bag2
(g1359
g86
tp9338
Rp9339
(dp9340
bag91
(g1554
g86
tp9341
Rp9342
(dp9343
bag91
(g1527
g86
tp9344
Rp9345
(dp9346
bag91
(g1683
g86
tp9347
Rp9348
(dp9349
bag2
(g1857
g86
tp9350
Rp9351
(dp9352
bag91
(g1878
g86
tp9353
Rp9354
(dp9355
bag2
(g2019
g86
tp9356
Rp9357
(dp9358
bag91
(g2580
g86
tp9359
Rp9360
(dp9361
bag91
(g2943
g86
tp9362
Rp9363
(dp9364
bag91
(g3372
g86
tp9365
Rp9366
(dp9367
bag2
(g1203
g86
tp9368
Rp9369
(dp9370
bag2
(g1221
g86
tp9371
Rp9372
(dp9373
ba(lp9374
g91
(g138
g86
tp9375
Rp9376
(dp9377
batp9378
a((lp9379
g91
(g192
g86
tp9380
Rp9381
(dp9382
bag91
(g177
g86
tp9383
Rp9384
(dp9385
bag91
(g7437
g86
tp9386
Rp9387
(dp9388
bag91
(g6909
g86
tp9389
Rp9390
(dp9391
bag91
(g150
g86
tp9392
Rp9393
(dp9394
bag91
(g123
g86
tp9395
Rp9396
(dp9397
bag91
(g17
g86
tp9398
Rp9399
(dp9400
bag91
(g1230
g86
tp9401
Rp9402
(dp9403
bag91
(g1212
g86
tp9404
Rp9405
(dp9406
bag91
(g1386
g86
tp9407
Rp9408
(dp9409
bag91
(g1554
g86
tp9410
Rp9411
(dp9412
bag91
(g1527
g86
tp9413
Rp9414
(dp9415
bag91
(g1683
g86
tp9416
Rp9417
(dp9418
bag91
(g1878
g86
tp9419
Rp9420
(dp9421
bag91
(g2580
g86
tp9422
Rp9423
(dp9424
bag91
(g2943
g86
tp9425
Rp9426
(dp9427
ba(lp9428
g2
(g3372
g86
tp9429
Rp9430
(dp9431
batp9432
a((lp9433
g91
(g177
g86
tp9434
Rp9435
(dp9436
bag91
(g177
g86
tp9437
Rp9438
(dp9439
bag91
(g7437
g86
tp9440
Rp9441
(dp9442
bag91
(g6909
g86
tp9443
Rp9444
(dp9445
bag91
(g150
g86
tp9446
Rp9447
(dp9448
bag91
(g123
g86
tp9449
Rp9450
(dp9451
bag91
(g17
g86
tp9452
Rp9453
(dp9454
bag91
(g1230
g86
tp9455
Rp9456
(dp9457
bag91
(g1212
g86
tp9458
Rp9459
(dp9460
bag91
(g1386
g86
tp9461
Rp9462
(dp9463
bag91
(g1554
g86
tp9464
Rp9465
(dp9466
bag91
(g1527
g86
tp9467
Rp9468
(dp9469
bag91
(g1683
g86
tp9470
Rp9471
(dp9472
bag91
(g1878
g86
tp9473
Rp9474
(dp9475
bag91
(g2580
g86
tp9476
Rp9477
(dp9478
bag91
(g2943
g86
tp9479
Rp9480
(dp9481
ba(lp9482
g2
(g3372
g86
tp9483
Rp9484
(dp9485
batp9486
a((lp9487
g2
(g165
g86
tp9488
Rp9489
(dp9490
bag91
(g177
g86
tp9491
Rp9492
(dp9493
bag2
(g7296
g86
tp9494
Rp9495
(dp9496
bag2
(g6846
g86
tp9497
Rp9498
(dp9499
bag91
(g177
g86
tp9500
Rp9501
(dp9502
bag91
(g7437
g86
tp9503
Rp9504
(dp9505
bag91
(g6909
g86
tp9506
Rp9507
(dp9508
bag2
(g165
g86
tp9509
Rp9510
(dp9511
bag91
(g150
g86
tp9512
Rp9513
(dp9514
bag91
(g123
g86
tp9515
Rp9516
(dp9517
bag2
(g108
g86
tp9518
Rp9519
(dp9520
bag91
(g17
g86
tp9521
Rp9522
(dp9523
bag91
(g1230
g86
tp9524
Rp9525
(dp9526
bag91
(g1212
g86
tp9527
Rp9528
(dp9529
bag2
(g1479
g86
tp9530
Rp9531
(dp9532
bag91
(g1386
g86
tp9533
Rp9534
(dp9535
bag2
(g1359
g86
tp9536
Rp9537
(dp9538
bag91
(g1554
g86
tp9539
Rp9540
(dp9541
bag91
(g1527
g86
tp9542
Rp9543
(dp9544
bag91
(g1683
g86
tp9545
Rp9546
(dp9547
bag2
(g1857
g86
tp9548
Rp9549
(dp9550
bag91
(g1878
g86
tp9551
Rp9552
(dp9553
bag2
(g2019
g86
tp9554
Rp9555
(dp9556
bag91
(g2580
g86
tp9557
Rp9558
(dp9559
bag91
(g2943
g86
tp9560
Rp9561
(dp9562
bag91
(g3372
g86
tp9563
Rp9564
(dp9565
bag2
(g1203
g86
tp9566
Rp9567
(dp9568
bag2
(g1221
g86
tp9569
Rp9570
(dp9571
ba(lp9572
g91
(g138
g86
tp9573
Rp9574
(dp9575
batp9576
a((lp9577
g2
(g192
g86
tp9578
Rp9579
(dp9580
bag2
(g7296
g86
tp9581
Rp9582
(dp9583
bag2
(g6846
g86
tp9584
Rp9585
(dp9586
bag91
(g177
g86
tp9587
Rp9588
(dp9589
bag91
(g7437
g86
tp9590
Rp9591
(dp9592
bag91
(g6909
g86
tp9593
Rp9594
(dp9595
bag2
(g165
g86
tp9596
Rp9597
(dp9598
bag91
(g150
g86
tp9599
Rp9600
(dp9601
bag91
(g123
g86
tp9602
Rp9603
(dp9604
bag2
(g108
g86
tp9605
Rp9606
(dp9607
bag91
(g17
g86
tp9608
Rp9609
(dp9610
bag91
(g1230
g86
tp9611
Rp9612
(dp9613
bag91
(g1212
g86
tp9614
Rp9615
(dp9616
bag2
(g1479
g86
tp9617
Rp9618
(dp9619
bag91
(g1386
g86
tp9620
Rp9621
(dp9622
bag2
(g1359
g86
tp9623
Rp9624
(dp9625
bag91
(g1554
g86
tp9626
Rp9627
(dp9628
bag91
(g1527
g86
tp9629
Rp9630
(dp9631
bag91
(g1683
g86
tp9632
Rp9633
(dp9634
bag2
(g1857
g86
tp9635
Rp9636
(dp9637
bag91
(g1878
g86
tp9638
Rp9639
(dp9640
bag2
(g2019
g86
tp9641
Rp9642
(dp9643
bag91
(g2580
g86
tp9644
Rp9645
(dp9646
bag91
(g2943
g86
tp9647
Rp9648
(dp9649
bag91
(g3372
g86
tp9650
Rp9651
(dp9652
bag2
(g1203
g86
tp9653
Rp9654
(dp9655
bag2
(g1221
g86
tp9656
Rp9657
(dp9658
ba(lp9659
g91
(g138
g86
tp9660
Rp9661
(dp9662
batp9663
a((lp9664
g2
(g165
g86
tp9665
Rp9666
(dp9667
bag2
(g192
g86
tp9668
Rp9669
(dp9670
bag2
(g7296
g86
tp9671
Rp9672
(dp9673
bag2
(g6846
g86
tp9674
Rp9675
(dp9676
bag91
(g177
g86
tp9677
Rp9678
(dp9679
bag91
(g7437
g86
tp9680
Rp9681
(dp9682
bag91
(g6909
g86
tp9683
Rp9684
(dp9685
bag2
(g165
g86
tp9686
Rp9687
(dp9688
bag91
(g150
g86
tp9689
Rp9690
(dp9691
bag91
(g123
g86
tp9692
Rp9693
(dp9694
bag2
(g108
g86
tp9695
Rp9696
(dp9697
bag91
(g17
g86
tp9698
Rp9699
(dp9700
bag91
(g1230
g86
tp9701
Rp9702
(dp9703
bag91
(g1212
g86
tp9704
Rp9705
(dp9706
bag2
(g1479
g86
tp9707
Rp9708
(dp9709
bag91
(g1386
g86
tp9710
Rp9711
(dp9712
bag2
(g1359
g86
tp9713
Rp9714
(dp9715
bag91
(g1554
g86
tp9716
Rp9717
(dp9718
bag91
(g1527
g86
tp9719
Rp9720
(dp9721
bag91
(g1683
g86
tp9722
Rp9723
(dp9724
bag2
(g1857
g86
tp9725
Rp9726
(dp9727
bag91
(g1878
g86
tp9728
Rp9729
(dp9730
bag2
(g2019
g86
tp9731
Rp9732
(dp9733
bag91
(g2580
g86
tp9734
Rp9735
(dp9736
bag91
(g2943
g86
tp9737
Rp9738
(dp9739
bag91
(g3372
g86
tp9740
Rp9741
(dp9742
bag2
(g1203
g86
tp9743
Rp9744
(dp9745
bag2
(g1221
g86
tp9746
Rp9747
(dp9748
ba(lp9749
g91
(g138
g86
tp9750
Rp9751
(dp9752
batp9753
a((lp9754
g2
(g3675
g86
tp9755
Rp9756
(dp9757
bag2
(g192
g86
tp9758
Rp9759
(dp9760
bag2
(g7296
g86
tp9761
Rp9762
(dp9763
bag2
(g6846
g86
tp9764
Rp9765
(dp9766
bag91
(g177
g86
tp9767
Rp9768
(dp9769
bag91
(g7437
g86
tp9770
Rp9771
(dp9772
bag91
(g6909
g86
tp9773
Rp9774
(dp9775
bag2
(g165
g86
tp9776
Rp9777
(dp9778
bag91
(g150
g86
tp9779
Rp9780
(dp9781
bag91
(g123
g86
tp9782
Rp9783
(dp9784
bag2
(g108
g86
tp9785
Rp9786
(dp9787
bag91
(g17
g86
tp9788
Rp9789
(dp9790
bag91
(g1230
g86
tp9791
Rp9792
(dp9793
bag91
(g1212
g86
tp9794
Rp9795
(dp9796
bag2
(g1479
g86
tp9797
Rp9798
(dp9799
bag91
(g1386
g86
tp9800
Rp9801
(dp9802
bag2
(g1359
g86
tp9803
Rp9804
(dp9805
bag91
(g1554
g86
tp9806
Rp9807
(dp9808
bag91
(g1527
g86
tp9809
Rp9810
(dp9811
bag91
(g1683
g86
tp9812
Rp9813
(dp9814
bag2
(g1857
g86
tp9815
Rp9816
(dp9817
bag91
(g1878
g86
tp9818
Rp9819
(dp9820
bag2
(g2019
g86
tp9821
Rp9822
(dp9823
bag91
(g2580
g86
tp9824
Rp9825
(dp9826
bag91
(g2943
g86
tp9827
Rp9828
(dp9829
bag91
(g3372
g86
tp9830
Rp9831
(dp9832
bag2
(g1203
g86
tp9833
Rp9834
(dp9835
bag2
(g1221
g86
tp9836
Rp9837
(dp9838
ba(lp9839
g91
(g138
g86
tp9840
Rp9841
(dp9842
batp9843
a((lp9844
g2
(g96
g86
tp9845
Rp9846
(dp9847
bag2
(g192
g86
tp9848
Rp9849
(dp9850
bag2
(g7296
g86
tp9851
Rp9852
(dp9853
bag2
(g6846
g86
tp9854
Rp9855
(dp9856
bag91
(g177
g86
tp9857
Rp9858
(dp9859
bag91
(g7437
g86
tp9860
Rp9861
(dp9862
bag91
(g6909
g86
tp9863
Rp9864
(dp9865
bag2
(g165
g86
tp9866
Rp9867
(dp9868
bag91
(g150
g86
tp9869
Rp9870
(dp9871
bag91
(g123
g86
tp9872
Rp9873
(dp9874
bag2
(g108
g86
tp9875
Rp9876
(dp9877
bag91
(g17
g86
tp9878
Rp9879
(dp9880
bag91
(g1230
g86
tp9881
Rp9882
(dp9883
bag91
(g1212
g86
tp9884
Rp9885
(dp9886
bag2
(g1479
g86
tp9887
Rp9888
(dp9889
bag91
(g1386
g86
tp9890
Rp9891
(dp9892
bag2
(g1359
g86
tp9893
Rp9894
(dp9895
bag91
(g1554
g86
tp9896
Rp9897
(dp9898
bag91
(g1527
g86
tp9899
Rp9900
(dp9901
bag91
(g1683
g86
tp9902
Rp9903
(dp9904
bag2
(g1857
g86
tp9905
Rp9906
(dp9907
bag91
(g1878
g86
tp9908
Rp9909
(dp9910
bag2
(g2019
g86
tp9911
Rp9912
(dp9913
bag91
(g2580
g86
tp9914
Rp9915
(dp9916
bag91
(g2943
g86
tp9917
Rp9918
(dp9919
bag91
(g3372
g86
tp9920
Rp9921
(dp9922
bag2
(g1203
g86
tp9923
Rp9924
(dp9925
bag2
(g1221
g86
tp9926
Rp9927
(dp9928
ba(lp9929
g91
(g138
g86
tp9930
Rp9931
(dp9932
batp9933
a((lp9934
g2
(g199
g86
tp9935
Rp9936
(dp9937
bag2
(g192
g86
tp9938
Rp9939
(dp9940
bag2
(g7296
g86
tp9941
Rp9942
(dp9943
bag2
(g6846
g86
tp9944
Rp9945
(dp9946
bag91
(g177
g86
tp9947
Rp9948
(dp9949
bag91
(g7437
g86
tp9950
Rp9951
(dp9952
bag91
(g6909
g86
tp9953
Rp9954
(dp9955
bag2
(g165
g86
tp9956
Rp9957
(dp9958
bag91
(g150
g86
tp9959
Rp9960
(dp9961
bag91
(g123
g86
tp9962
Rp9963
(dp9964
bag2
(g108
g86
tp9965
Rp9966
(dp9967
bag91
(g17
g86
tp9968
Rp9969
(dp9970
bag91
(g1230
g86
tp9971
Rp9972
(dp9973
bag91
(g1212
g86
tp9974
Rp9975
(dp9976
bag2
(g1479
g86
tp9977
Rp9978
(dp9979
bag91
(g1386
g86
tp9980
Rp9981
(dp9982
bag2
(g1359
g86
tp9983
Rp9984
(dp9985
bag91
(g1554
g86
tp9986
Rp9987
(dp9988
bag91
(g1527
g86
tp9989
Rp9990
(dp9991
bag91
(g1683
g86
tp9992
Rp9993
(dp9994
bag2
(g1857
g86
tp9995
Rp9996
(dp9997
bag91
(g1878
g86
tp9998
Rp9999
(dp10000
bag2
(g2019
g86
tp10001
Rp10002
(dp10003
bag91
(g2580
g86
tp10004
Rp10005
(dp10006
bag91
(g2943
g86
tp10007
Rp10008
(dp10009
bag91
(g3372
g86
tp10010
Rp10011
(dp10012
bag2
(g1203
g86
tp10013
Rp10014
(dp10015
bag2
(g1221
g86
tp10016
Rp10017
(dp10018
ba(lp10019
g91
(g138
g86
tp10020
Rp10021
(dp10022
batp10023
a((lp10024
g91
(g3852
g86
tp10025
Rp10026
(dp10027
bag91
(g177
g86
tp10028
Rp10029
(dp10030
bag91
(g7437
g86
tp10031
Rp10032
(dp10033
bag91
(g6909
g86
tp10034
Rp10035
(dp10036
bag91
(g150
g86
tp10037
Rp10038
(dp10039
bag91
(g123
g86
tp10040
Rp10041
(dp10042
bag91
(g17
g86
tp10043
Rp10044
(dp10045
bag91
(g1230
g86
tp10046
Rp10047
(dp10048
bag91
(g1212
g86
tp10049
Rp10050
(dp10051
bag91
(g1386
g86
tp10052
Rp10053
(dp10054
bag91
(g1554
g86
tp10055
Rp10056
(dp10057
bag91
(g1527
g86
tp10058
Rp10059
(dp10060
bag91
(g1683
g86
tp10061
Rp10062
(dp10063
bag91
(g1878
g86
tp10064
Rp10065
(dp10066
bag91
(g2580
g86
tp10067
Rp10068
(dp10069
bag91
(g2943
g86
tp10070
Rp10071
(dp10072
ba(lp10073
g2
(g3372
g86
tp10074
Rp10075
(dp10076
batp10077
a((lp10078
g2
(g199
g86
tp10079
Rp10080
(dp10081
bag91
(g3852
g86
tp10082
Rp10083
(dp10084
bag2
(g192
g86
tp10085
Rp10086
(dp10087
bag2
(g7296
g86
tp10088
Rp10089
(dp10090
bag2
(g6846
g86
tp10091
Rp10092
(dp10093
bag91
(g177
g86
tp10094
Rp10095
(dp10096
bag91
(g7437
g86
tp10097
Rp10098
(dp10099
bag91
(g6909
g86
tp10100
Rp10101
(dp10102
bag2
(g165
g86
tp10103
Rp10104
(dp10105
bag91
(g150
g86
tp10106
Rp10107
(dp10108
bag91
(g123
g86
tp10109
Rp10110
(dp10111
bag2
(g108
g86
tp10112
Rp10113
(dp10114
bag91
(g17
g86
tp10115
Rp10116
(dp10117
bag91
(g1230
g86
tp10118
Rp10119
(dp10120
bag91
(g1212
g86
tp10121
Rp10122
(dp10123
bag2
(g1479
g86
tp10124
Rp10125
(dp10126
bag91
(g1386
g86
tp10127
Rp10128
(dp10129
bag2
(g1359
g86
tp10130
Rp10131
(dp10132
bag91
(g1554
g86
tp10133
Rp10134
(dp10135
bag91
(g1527
g86
tp10136
Rp10137
(dp10138
bag91
(g1683
g86
tp10139
Rp10140
(dp10141
bag2
(g1857
g86
tp10142
Rp10143
(dp10144
bag91
(g1878
g86
tp10145
Rp10146
(dp10147
bag2
(g2019
g86
tp10148
Rp10149
(dp10150
bag91
(g2580
g86
tp10151
Rp10152
(dp10153
bag91
(g2943
g86
tp10154
Rp10155
(dp10156
bag91
(g3372
g86
tp10157
Rp10158
(dp10159
bag2
(g1203
g86
tp10160
Rp10161
(dp10162
bag2
(g1221
g86
tp10163
Rp10164
(dp10165
ba(lp10166
g91
(g138
g86
tp10167
Rp10168
(dp10169
batp10170
a((lp10171
g2
(g1836
g86
tp10172
Rp10173
(dp10174
bag2
(g3
(g4
(I-330107761
tp10175
Rp10176
(dp10177
bg8
(g4
(I-382976000
tp10178
Rp10179
(dp10180
bg1347
tp10181
Rp10182
(dp10183
bg5739
g8
(g4
(I-964015040
tp10184
Rp10185
(dp10186
bg59
tp10187
Rp10188
(dp10189
bg8
(g4
(I-975808000
tp10190
Rp10191
(dp10192
bg71
tp10193
Rp10194
(dp10195
btp10196
Rp10197
(dp10198
bg86
tp10199
Rp10200
(dp10201
bag2
(g138
g86
tp10202
Rp10203
(dp10204
bag2
(g1221
g86
tp10205
Rp10206
(dp10207
bag2
(g1203
g86
tp10208
Rp10209
(dp10210
bag91
(g3372
g86
tp10211
Rp10212
(dp10213
bag91
(g2943
g86
tp10214
Rp10215
(dp10216
bag91
(g2580
g86
tp10217
Rp10218
(dp10219
bag2
(g2019
g86
tp10220
Rp10221
(dp10222
bag91
(g1878
g86
tp10223
Rp10224
(dp10225
bag2
(g1857
g86
tp10226
Rp10227
(dp10228
bag91
(g1683
g86
tp10229
Rp10230
(dp10231
bag91
(g1527
g86
tp10232
Rp10233
(dp10234
bag91
(g1554
g86
tp10235
Rp10236
(dp10237
bag2
(g1359
g86
tp10238
Rp10239
(dp10240
bag91
(g1386
g86
tp10241
Rp10242
(dp10243
bag2
(g1479
g86
tp10244
Rp10245
(dp10246
bag91
(g1212
g86
tp10247
Rp10248
(dp10249
bag91
(g1230
g86
tp10250
Rp10251
(dp10252
bag91
(g17
g86
tp10253
Rp10254
(dp10255
bag2
(g108
g86
tp10256
Rp10257
(dp10258
ba(lp10259
g2
(g123
g86
tp10260
Rp10261
(dp10262
batp10263
a((lp10264
g91
(g1836
g86
tp10265
Rp10266
(dp10267
bag91
(g10197
g86
tp10268
Rp10269
(dp10270
bag91
(g3372
g86
tp10271
Rp10272
(dp10273
bag91
(g2943
g86
tp10274
Rp10275
(dp10276
bag91
(g2580
g86
tp10277
Rp10278
(dp10279
bag91
(g1878
g86
tp10280
Rp10281
(dp10282
bag91
(g1683
g86
tp10283
Rp10284
(dp10285
bag91
(g1527
g86
tp10286
Rp10287
(dp10288
bag91
(g1554
g86
tp10289
Rp10290
(dp10291
bag91
(g1386
g86
tp10292
Rp10293
(dp10294
bag91
(g1212
g86
tp10295
Rp10296
(dp10297
bag91
(g1230
g86
tp10298
Rp10299
(dp10300
bag91
(g17
g86
tp10301
Rp10302
(dp10303
ba(lp10304
g2
(g123
g86
tp10305
Rp10306
(dp10307
batp10308
a((lp10309
g2
(g1836
g86
tp10310
Rp10311
(dp10312
bag2
(g3
(g4
(I330107761
tp10313
Rp10314
(dp10315
bg8
(g4
(I382976000
tp10316
Rp10317
(dp10318
bg1347
tp10319
Rp10320
(dp10321
bg5871
g8
(g4
(I964015040
tp10322
Rp10323
(dp10324
bg59
tp10325
Rp10326
(dp10327
bg8
(g4
(I975808000
tp10328
Rp10329
(dp10330
bg71
tp10331
Rp10332
(dp10333
btp10334
Rp10335
(dp10336
bg86
tp10337
Rp10338
(dp10339
bag2
(g138
g86
tp10340
Rp10341
(dp10342
bag2
(g1221
g86
tp10343
Rp10344
(dp10345
bag2
(g1203
g86
tp10346
Rp10347
(dp10348
bag91
(g3372
g86
tp10349
Rp10350
(dp10351
bag91
(g2943
g86
tp10352
Rp10353
(dp10354
bag91
(g2580
g86
tp10355
Rp10356
(dp10357
bag2
(g2019
g86
tp10358
Rp10359
(dp10360
bag91
(g1878
g86
tp10361
Rp10362
(dp10363
bag2
(g1857
g86
tp10364
Rp10365
(dp10366
bag91
(g1683
g86
tp10367
Rp10368
(dp10369
bag91
(g1527
g86
tp10370
Rp10371
(dp10372
bag91
(g1554
g86
tp10373
Rp10374
(dp10375
bag2
(g1359
g86
tp10376
Rp10377
(dp10378
bag91
(g1386
g86
tp10379
Rp10380
(dp10381
bag2
(g1479
g86
tp10382
Rp10383
(dp10384
bag91
(g1212
g86
tp10385
Rp10386
(dp10387
bag91
(g1230
g86
tp10388
Rp10389
(dp10390
bag91
(g17
g86
tp10391
Rp10392
(dp10393
bag2
(g108
g86
tp10394
Rp10395
(dp10396
ba(lp10397
g2
(g123
g86
tp10398
Rp10399
(dp10400
batp10401
a((lp10402
g91
(g150
g86
tp10403
Rp10404
(dp10405
bag91
(g6384
g86
tp10406
Rp10407
(dp10408
bag91
(g3372
g86
tp10409
Rp10410
(dp10411
bag91
(g2943
g86
tp10412
Rp10413
(dp10414
bag91
(g2580
g86
tp10415
Rp10416
(dp10417
bag91
(g1878
g86
tp10418
Rp10419
(dp10420
bag91
(g1683
g86
tp10421
Rp10422
(dp10423
bag91
(g1527
g86
tp10424
Rp10425
(dp10426
bag91
(g1554
g86
tp10427
Rp10428
(dp10429
bag91
(g1386
g86
tp10430
Rp10431
(dp10432
bag91
(g1212
g86
tp10433
Rp10434
(dp10435
bag91
(g1230
g86
tp10436
Rp10437
(dp10438
bag91
(g17
g86
tp10439
Rp10440
(dp10441
ba(lp10442
g2
(g123
g86
tp10443
Rp10444
(dp10445
batp10446
a((lp10447
g91
(g165
g86
tp10448
Rp10449
(dp10450
bag91
(g6384
g86
tp10451
Rp10452
(dp10453
bag91
(g3372
g86
tp10454
Rp10455
(dp10456
bag91
(g2943
g86
tp10457
Rp10458
(dp10459
bag91
(g2580
g86
tp10460
Rp10461
(dp10462
bag91
(g1878
g86
tp10463
Rp10464
(dp10465
bag91
(g1683
g86
tp10466
Rp10467
(dp10468
bag91
(g1527
g86
tp10469
Rp10470
(dp10471
bag91
(g1554
g86
tp10472
Rp10473
(dp10474
bag91
(g1386
g86
tp10475
Rp10476
(dp10477
bag91
(g1212
g86
tp10478
Rp10479
(dp10480
bag91
(g1230
g86
tp10481
Rp10482
(dp10483
bag91
(g17
g86
tp10484
Rp10485
(dp10486
ba(lp10487
g2
(g123
g86
tp10488
Rp10489
(dp10490
batp10491
a((lp10492
g91
(g6846
g86
tp10493
Rp10494
(dp10495
bag91
(g3372
g86
tp10496
Rp10497
(dp10498
bag91
(g2943
g86
tp10499
Rp10500
(dp10501
bag91
(g2580
g86
tp10502
Rp10503
(dp10504
bag91
(g1878
g86
tp10505
Rp10506
(dp10507
bag91
(g1683
g86
tp10508
Rp10509
(dp10510
bag91
(g1527
g86
tp10511
Rp10512
(dp10513
bag91
(g1554
g86
tp10514
Rp10515
(dp10516
bag91
(g1386
g86
tp10517
Rp10518
(dp10519
bag91
(g1212
g86
tp10520
Rp10521
(dp10522
bag91
(g1230
g86
tp10523
Rp10524
(dp10525
bag91
(g17
g86
tp10526
Rp10527
(dp10528
ba(lp10529
g2
(g123
g86
tp10530
Rp10531
(dp10532
batp10533
a((lp10534
g91
(g6909
g86
tp10535
Rp10536
(dp10537
bag91
(g3372
g86
tp10538
Rp10539
(dp10540
bag91
(g2943
g86
tp10541
Rp10542
(dp10543
bag91
(g2580
g86
tp10544
Rp10545
(dp10546
bag91
(g1878
g86
tp10547
Rp10548
(dp10549
bag91
(g1683
g86
tp10550
Rp10551
(dp10552
bag91
(g1527
g86
tp10553
Rp10554
(dp10555
bag91
(g1554
g86
tp10556
Rp10557
(dp10558
bag91
(g1386
g86
tp10559
Rp10560
(dp10561
bag91
(g1212
g86
tp10562
Rp10563
(dp10564
bag91
(g1230
g86
tp10565
Rp10566
(dp10567
bag91
(g17
g86
tp10568
Rp10569
(dp10570
ba(lp10571
g2
(g123
g86
tp10572
Rp10573
(dp10574
batp10575
a((lp10576
g91
(g7296
g86
tp10577
Rp10578
(dp10579
bag91
(g3372
g86
tp10580
Rp10581
(dp10582
bag91
(g2943
g86
tp10583
Rp10584
(dp10585
bag91
(g2580
g86
tp10586
Rp10587
(dp10588
bag91
(g1878
g86
tp10589
Rp10590
(dp10591
bag91
(g1683
g86
tp10592
Rp10593
(dp10594
bag91
(g1527
g86
tp10595
Rp10596
(dp10597
bag91
(g1554
g86
tp10598
Rp10599
(dp10600
bag91
(g1386
g86
tp10601
Rp10602
(dp10603
bag91
(g1212
g86
tp10604
Rp10605
(dp10606
bag91
(g1230
g86
tp10607
Rp10608
(dp10609
bag91
(g17
g86
tp10610
Rp10611
(dp10612
ba(lp10613
g2
(g123
g86
tp10614
Rp10615
(dp10616
batp10617
a((lp10618
g91
(g7437
g86
tp10619
Rp10620
(dp10621
bag91
(g3372
g86
tp10622
Rp10623
(dp10624
bag91
(g2943
g86
tp10625
Rp10626
(dp10627
bag91
(g2580
g86
tp10628
Rp10629
(dp10630
bag91
(g1878
g86
tp10631
Rp10632
(dp10633
bag91
(g1683
g86
tp10634
Rp10635
(dp10636
bag91
(g1527
g86
tp10637
Rp10638
(dp10639
bag91
(g1554
g86
tp10640
Rp10641
(dp10642
bag91
(g1386
g86
tp10643
Rp10644
(dp10645
bag91
(g1212
g86
tp10646
Rp10647
(dp10648
bag91
(g1230
g86
tp10649
Rp10650
(dp10651
bag91
(g17
g86
tp10652
Rp10653
(dp10654
ba(lp10655
g2
(g123
g86
tp10656
Rp10657
(dp10658
batp10659
a((lp10660
g91
(g192
g86
tp10661
Rp10662
(dp10663
bag91
(g3372
g86
tp10664
Rp10665
(dp10666
bag91
(g2943
g86
tp10667
Rp10668
(dp10669
bag91
(g2580
g86
tp10670
Rp10671
(dp10672
bag91
(g1878
g86
tp10673
Rp10674
(dp10675
bag91
(g1683
g86
tp10676
Rp10677
(dp10678
bag91
(g1527
g86
tp10679
Rp10680
(dp10681
bag91
(g1554
g86
tp10682
Rp10683
(dp10684
bag91
(g1386
g86
tp10685
Rp10686
(dp10687
bag91
(g1212
g86
tp10688
Rp10689
(dp10690
bag91
(g1230
g86
tp10691
Rp10692
(dp10693
bag91
(g17
g86
tp10694
Rp10695
(dp10696
ba(lp10697
g2
(g123
g86
tp10698
Rp10699
(dp10700
batp10701
a((lp10702
g91
(g177
g86
tp10703
Rp10704
(dp10705
bag91
(g3372
g86
tp10706
Rp10707
(dp10708
bag91
(g2943
g86
tp10709
Rp10710
(dp10711
bag91
(g2580
g86
tp10712
Rp10713
(dp10714
bag91
(g1878
g86
tp10715
Rp10716
(dp10717
bag91
(g1683
g86
tp10718
Rp10719
(dp10720
bag91
(g1527
g86
tp10721
Rp10722
(dp10723
bag91
(g1554
g86
tp10724
Rp10725
(dp10726
bag91
(g1386
g86
tp10727
Rp10728
(dp10729
bag91
(g1212
g86
tp10730
Rp10731
(dp10732
bag91
(g1230
g86
tp10733
Rp10734
(dp10735
bag91
(g17
g86
tp10736
Rp10737
(dp10738
ba(lp10739
g2
(g123
g86
tp10740
Rp10741
(dp10742
batp10743
a((lp10744
g91
(g6507
g86
tp10745
Rp10746
(dp10747
bag91
(g3372
g86
tp10748
Rp10749
(dp10750
bag91
(g2943
g86
tp10751
Rp10752
(dp10753
bag91
(g2580
g86
tp10754
Rp10755
(dp10756
bag91
(g1878
g86
tp10757
Rp10758
(dp10759
bag91
(g1683
g86
tp10760
Rp10761
(dp10762
bag91
(g1527
g86
tp10763
Rp10764
(dp10765
bag91
(g1554
g86
tp10766
Rp10767
(dp10768
bag91
(g1386
g86
tp10769
Rp10770
(dp10771
bag91
(g1212
g86
tp10772
Rp10773
(dp10774
bag91
(g1230
g86
tp10775
Rp10776
(dp10777
bag91
(g17
g86
tp10778
Rp10779
(dp10780
ba(lp10781
g2
(g123
g86
tp10782
Rp10783
(dp10784
batp10785
a((lp10786
g91
(g150
g86
tp10787
Rp10788
(dp10789
bag91
(g6909
g86
tp10790
Rp10791
(dp10792
bag91
(g150
g86
tp10793
Rp10794
(dp10795
bag91
(g3372
g86
tp10796
Rp10797
(dp10798
bag91
(g2943
g86
tp10799
Rp10800
(dp10801
bag91
(g2580
g86
tp10802
Rp10803
(dp10804
bag91
(g1878
g86
tp10805
Rp10806
(dp10807
bag91
(g1683
g86
tp10808
Rp10809
(dp10810
bag91
(g1527
g86
tp10811
Rp10812
(dp10813
bag91
(g1554
g86
tp10814
Rp10815
(dp10816
bag91
(g1386
g86
tp10817
Rp10818
(dp10819
bag91
(g1212
g86
tp10820
Rp10821
(dp10822
bag91
(g1230
g86
tp10823
Rp10824
(dp10825
bag91
(g17
g86
tp10826
Rp10827
(dp10828
ba(lp10829
g2
(g123
g86
tp10830
Rp10831
(dp10832
batp10833
a((lp10834
g91
(g6909
g86
tp10835
Rp10836
(dp10837
bag91
(g150
g86
tp10838
Rp10839
(dp10840
bag91
(g3372
g86
tp10841
Rp10842
(dp10843
bag91
(g2943
g86
tp10844
Rp10845
(dp10846
bag91
(g2580
g86
tp10847
Rp10848
(dp10849
bag91
(g1878
g86
tp10850
Rp10851
(dp10852
bag91
(g1683
g86
tp10853
Rp10854
(dp10855
bag91
(g1527
g86
tp10856
Rp10857
(dp10858
bag91
(g1554
g86
tp10859
Rp10860
(dp10861
bag91
(g1386
g86
tp10862
Rp10863
(dp10864
bag91
(g1212
g86
tp10865
Rp10866
(dp10867
bag91
(g1230
g86
tp10868
Rp10869
(dp10870
bag91
(g17
g86
tp10871
Rp10872
(dp10873
ba(lp10874
g2
(g123
g86
tp10875
Rp10876
(dp10877
batp10878
a((lp10879
g91
(g150
g86
tp10880
Rp10881
(dp10882
bag91
(g7437
g86
tp10883
Rp10884
(dp10885
bag91
(g6909
g86
tp10886
Rp10887
(dp10888
bag91
(g150
g86
tp10889
Rp10890
(dp10891
bag91
(g3372
g86
tp10892
Rp10893
(dp10894
bag91
(g2943
g86
tp10895
Rp10896
(dp10897
bag91
(g2580
g86
tp10898
Rp10899
(dp10900
bag91
(g1878
g86
tp10901
Rp10902
(dp10903
bag91
(g1683
g86
tp10904
Rp10905
(dp10906
bag91
(g1527
g86
tp10907
Rp10908
(dp10909
bag91
(g1554
g86
tp10910
Rp10911
(dp10912
bag91
(g1386
g86
tp10913
Rp10914
(dp10915
bag91
(g1212
g86
tp10916
Rp10917
(dp10918
bag91
(g1230
g86
tp10919
Rp10920
(dp10921
bag91
(g17
g86
tp10922
Rp10923
(dp10924
ba(lp10925
g2
(g123
g86
tp10926
Rp10927
(dp10928
batp10929
a((lp10930
g91
(g7437
g86
tp10931
Rp10932
(dp10933
bag91
(g6909
g86
tp10934
Rp10935
(dp10936
bag91
(g150
g86
tp10937
Rp10938
(dp10939
bag91
(g3372
g86
tp10940
Rp10941
(dp10942
bag91
(g2943
g86
tp10943
Rp10944
(dp10945
bag91
(g2580
g86
tp10946
Rp10947
(dp10948
bag91
(g1878
g86
tp10949
Rp10950
(dp10951
bag91
(g1683
g86
tp10952
Rp10953
(dp10954
bag91
(g1527
g86
tp10955
Rp10956
(dp10957
bag91
(g1554
g86
tp10958
Rp10959
(dp10960
bag91
(g1386
g86
tp10961
Rp10962
(dp10963
bag91
(g1212
g86
tp10964
Rp10965
(dp10966
bag91
(g1230
g86
tp10967
Rp10968
(dp10969
bag91
(g17
g86
tp10970
Rp10971
(dp10972
ba(lp10973
g2
(g123
g86
tp10974
Rp10975
(dp10976
batp10977
a((lp10978
g91
(g150
g86
tp10979
Rp10980
(dp10981
bag91
(g177
g86
tp10982
Rp10983
(dp10984
bag91
(g7437
g86
tp10985
Rp10986
(dp10987
bag91
(g6909
g86
tp10988
Rp10989
(dp10990
bag91
(g150
g86
tp10991
Rp10992
(dp10993
bag91
(g3372
g86
tp10994
Rp10995
(dp10996
bag91
(g2943
g86
tp10997
Rp10998
(dp10999
bag91
(g2580
g86
tp11000
Rp11001
(dp11002
bag91
(g1878
g86
tp11003
Rp11004
(dp11005
bag91
(g1683
g86
tp11006
Rp11007
(dp11008
bag91
(g1527
g86
tp11009
Rp11010
(dp11011
bag91
(g1554
g86
tp11012
Rp11013
(dp11014
bag91
(g1386
g86
tp11015
Rp11016
(dp11017
bag91
(g1212
g86
tp11018
Rp11019
(dp11020
bag91
(g1230
g86
tp11021
Rp11022
(dp11023
bag91
(g17
g86
tp11024
Rp11025
(dp11026
ba(lp11027
g2
(g123
g86
tp11028
Rp11029
(dp11030
batp11031
a((lp11032
g91
(g177
g86
tp11033
Rp11034
(dp11035
bag91
(g7437
g86
tp11036
Rp11037
(dp11038
bag91
(g6909
g86
tp11039
Rp11040
(dp11041
bag91
(g150
g86
tp11042
Rp11043
(dp11044
bag91
(g3372
g86
tp11045
Rp11046
(dp11047
bag91
(g2943
g86
tp11048
Rp11049
(dp11050
bag91
(g2580
g86
tp11051
Rp11052
(dp11053
bag91
(g1878
g86
tp11054
Rp11055
(dp11056
bag91
(g1683
g86
tp11057
Rp11058
(dp11059
bag91
(g1527
g86
tp11060
Rp11061
(dp11062
bag91
(g1554
g86
tp11063
Rp11064
(dp11065
bag91
(g1386
g86
tp11066
Rp11067
(dp11068
bag91
(g1212
g86
tp11069
Rp11070
(dp11071
bag91
(g1230
g86
tp11072
Rp11073
(dp11074
bag91
(g17
g86
tp11075
Rp11076
(dp11077
ba(lp11078
g2
(g123
g86
tp11079
Rp11080
(dp11081
batp11082
a((lp11083
g91
(g3852
g86
tp11084
Rp11085
(dp11086
bag91
(g177
g86
tp11087
Rp11088
(dp11089
bag91
(g7437
g86
tp11090
Rp11091
(dp11092
bag91
(g6909
g86
tp11093
Rp11094
(dp11095
bag91
(g150
g86
tp11096
Rp11097
(dp11098
bag91
(g3372
g86
tp11099
Rp11100
(dp11101
bag91
(g2943
g86
tp11102
Rp11103
(dp11104
bag91
(g2580
g86
tp11105
Rp11106
(dp11107
bag91
(g1878
g86
tp11108
Rp11109
(dp11110
bag91
(g1683
g86
tp11111
Rp11112
(dp11113
bag91
(g1527
g86
tp11114
Rp11115
(dp11116
bag91
(g1554
g86
tp11117
Rp11118
(dp11119
bag91
(g1386
g86
tp11120
Rp11121
(dp11122
bag91
(g1212
g86
tp11123
Rp11124
(dp11125
bag91
(g1230
g86
tp11126
Rp11127
(dp11128
bag91
(g17
g86
tp11129
Rp11130
(dp11131
ba(lp11132
g2
(g123
g86
tp11133
Rp11134
(dp11135
batp11136
a((lp11137
g91
(g3675
g86
tp11138
Rp11139
(dp11140
bag91
(g123
g86
tp11141
Rp11142
(dp11143
bag91
(g17
g86
tp11144
Rp11145
(dp11146
bag91
(g1230
g86
tp11147
Rp11148
(dp11149
bag91
(g1212
g86
tp11150
Rp11151
(dp11152
bag91
(g1386
g86
tp11153
Rp11154
(dp11155
bag91
(g1554
g86
tp11156
Rp11157
(dp11158
bag91
(g1527
g86
tp11159
Rp11160
(dp11161
bag91
(g1683
g86
tp11162
Rp11163
(dp11164
bag91
(g1878
g86
tp11165
Rp11166
(dp11167
bag91
(g2580
g86
tp11168
Rp11169
(dp11170
bag91
(g2943
g86
tp11171
Rp11172
(dp11173
bag91
(g3372
g86
tp11174
Rp11175
(dp11176
bag91
(g150
g86
tp11177
Rp11178
(dp11179
bag91
(g6909
g86
tp11180
Rp11181
(dp11182
bag91
(g7437
g86
tp11183
Rp11184
(dp11185
ba(lp11186
g2
(g177
g86
tp11187
Rp11188
(dp11189
batp11190
a((lp11191
g91
(g123
g86
tp11192
Rp11193
(dp11194
bag91
(g17
g86
tp11195
Rp11196
(dp11197
bag91
(g1230
g86
tp11198
Rp11199
(dp11200
bag91
(g1212
g86
tp11201
Rp11202
(dp11203
bag91
(g1386
g86
tp11204
Rp11205
(dp11206
bag91
(g1554
g86
tp11207
Rp11208
(dp11209
bag91
(g1527
g86
tp11210
Rp11211
(dp11212
bag91
(g1683
g86
tp11213
Rp11214
(dp11215
bag91
(g1878
g86
tp11216
Rp11217
(dp11218
bag91
(g2580
g86
tp11219
Rp11220
(dp11221
bag91
(g2943
g86
tp11222
Rp11223
(dp11224
bag91
(g3372
g86
tp11225
Rp11226
(dp11227
bag91
(g150
g86
tp11228
Rp11229
(dp11230
bag91
(g6909
g86
tp11231
Rp11232
(dp11233
bag91
(g7437
g86
tp11234
Rp11235
(dp11236
ba(lp11237
g2
(g177
g86
tp11238
Rp11239
(dp11240
batp11241
a((lp11242
g91
(g96
g86
tp11243
Rp11244
(dp11245
bag91
(g123
g86
tp11246
Rp11247
(dp11248
bag91
(g17
g86
tp11249
Rp11250
(dp11251
bag91
(g1230
g86
tp11252
Rp11253
(dp11254
bag91
(g1212
g86
tp11255
Rp11256
(dp11257
bag91
(g1386
g86
tp11258
Rp11259
(dp11260
bag91
(g1554
g86
tp11261
Rp11262
(dp11263
bag91
(g1527
g86
tp11264
Rp11265
(dp11266
bag91
(g1683
g86
tp11267
Rp11268
(dp11269
bag91
(g1878
g86
tp11270
Rp11271
(dp11272
bag91
(g2580
g86
tp11273
Rp11274
(dp11275
bag91
(g2943
g86
tp11276
Rp11277
(dp11278
bag91
(g3372
g86
tp11279
Rp11280
(dp11281
bag91
(g150
g86
tp11282
Rp11283
(dp11284
bag91
(g6909
g86
tp11285
Rp11286
(dp11287
bag91
(g7437
g86
tp11288
Rp11289
(dp11290
ba(lp11291
g2
(g177
g86
tp11292
Rp11293
(dp11294
batp11295
a((lp11296
csympy.core.relational
Unequality
p11297
(g17
g86
tp11298
Rp11299
(dp11300
bag91
(g123
g86
tp11301
Rp11302
(dp11303
bag91
(g17
g86
tp11304
Rp11305
(dp11306
bag91
(g1230
g86
tp11307
Rp11308
(dp11309
bag91
(g1212
g86
tp11310
Rp11311
(dp11312
bag91
(g1386
g86
tp11313
Rp11314
(dp11315
bag91
(g1554
g86
tp11316
Rp11317
(dp11318
bag91
(g1527
g86
tp11319
Rp11320
(dp11321
bag91
(g1683
g86
tp11322
Rp11323
(dp11324
bag91
(g1878
g86
tp11325
Rp11326
(dp11327
bag91
(g2580
g86
tp11328
Rp11329
(dp11330
bag91
(g2943
g86
tp11331
Rp11332
(dp11333
bag91
(g3372
g86
tp11334
Rp11335
(dp11336
bag91
(g150
g86
tp11337
Rp11338
(dp11339
bag91
(g6909
g86
tp11340
Rp11341
(dp11342
bag91
(g7437
g86
tp11343
Rp11344
(dp11345
ba(lp11346
g2
(g177
g86
tp11347
Rp11348
(dp11349
batp11350
a((lp11351
g91
(g96
g86
tp11352
Rp11353
(dp11354
bag91
(g177
g86
tp11355
Rp11356
(dp11357
bag91
(g7437
g86
tp11358
Rp11359
(dp11360
bag91
(g6909
g86
tp11361
Rp11362
(dp11363
bag91
(g150
g86
tp11364
Rp11365
(dp11366
bag91
(g3372
g86
tp11367
Rp11368
(dp11369
bag91
(g2943
g86
tp11370
Rp11371
(dp11372
bag91
(g2580
g86
tp11373
Rp11374
(dp11375
bag91
(g1878
g86
tp11376
Rp11377
(dp11378
bag91
(g1683
g86
tp11379
Rp11380
(dp11381
bag91
(g1527
g86
tp11382
Rp11383
(dp11384
bag91
(g1554
g86
tp11385
Rp11386
(dp11387
bag91
(g1386
g86
tp11388
Rp11389
(dp11390
bag91
(g1212
g86
tp11391
Rp11392
(dp11393
bag91
(g1230
g86
tp11394
Rp11395
(dp11396
bag91
(g17
g86
tp11397
Rp11398
(dp11399
ba(lp11400
g2
(g123
g86
tp11401
Rp11402
(dp11403
batp11404
a((lp11405
g91
(g83
g86
tp11406
Rp11407
(dp11408
bag91
(g294
g86
tp11409
Rp11410
(dp11411
bag91
(g96
g86
tp11412
Rp11413
(dp11414
bag91
(g177
g86
tp11415
Rp11416
(dp11417
bag91
(g7437
g86
tp11418
Rp11419
(dp11420
bag91
(g6909
g86
tp11421
Rp11422
(dp11423
bag91
(g150
g86
tp11424
Rp11425
(dp11426
bag91
(g3372
g86
tp11427
Rp11428
(dp11429
bag91
(g2943
g86
tp11430
Rp11431
(dp11432
bag91
(g2580
g86
tp11433
Rp11434
(dp11435
bag91
(g1878
g86
tp11436
Rp11437
(dp11438
bag91
(g1683
g86
tp11439
Rp11440
(dp11441
bag91
(g1527
g86
tp11442
Rp11443
(dp11444
bag91
(g1554
g86
tp11445
Rp11446
(dp11447
bag91
(g1386
g86
tp11448
Rp11449
(dp11450
bag91
(g1212
g86
tp11451
Rp11452
(dp11453
bag91
(g1230
g86
tp11454
Rp11455
(dp11456
bag91
(g17
g86
tp11457
Rp11458
(dp11459
ba(lp11460
g2
(g123
g86
tp11461
Rp11462
(dp11463
batp11464
a((lp11465
g91
(g83
g86
tp11466
Rp11467
(dp11468
bag91
(g177
g86
tp11469
Rp11470
(dp11471
bag91
(g7437
g86
tp11472
Rp11473
(dp11474
bag91
(g6909
g86
tp11475
Rp11476
(dp11477
bag91
(g150
g86
tp11478
Rp11479
(dp11480
bag91
(g3372
g86
tp11481
Rp11482
(dp11483
bag91
(g2943
g86
tp11484
Rp11485
(dp11486
bag91
(g2580
g86
tp11487
Rp11488
(dp11489
bag91
(g1878
g86
tp11490
Rp11491
(dp11492
bag91
(g1683
g86
tp11493
Rp11494
(dp11495
bag91
(g1527
g86
tp11496
Rp11497
(dp11498
bag91
(g1554
g86
tp11499
Rp11500
(dp11501
bag91
(g1386
g86
tp11502
Rp11503
(dp11504
bag91
(g1212
g86
tp11505
Rp11506
(dp11507
bag91
(g1230
g86
tp11508
Rp11509
(dp11510
bag91
(g17
g86
tp11511
Rp11512
(dp11513
ba(lp11514
g2
(g123
g86
tp11515
Rp11516
(dp11517
batp11518
a((lp11519
g91
(g96
g86
tp11520
Rp11521
(dp11522
bag91
(g83
g86
tp11523
Rp11524
(dp11525
bag91
(g177
g86
tp11526
Rp11527
(dp11528
bag91
(g7437
g86
tp11529
Rp11530
(dp11531
bag91
(g6909
g86
tp11532
Rp11533
(dp11534
bag91
(g150
g86
tp11535
Rp11536
(dp11537
bag91
(g3372
g86
tp11538
Rp11539
(dp11540
bag91
(g2943
g86
tp11541
Rp11542
(dp11543
bag91
(g2580
g86
tp11544
Rp11545
(dp11546
bag91
(g1878
g86
tp11547
Rp11548
(dp11549
bag91
(g1683
g86
tp11550
Rp11551
(dp11552
bag91
(g1527
g86
tp11553
Rp11554
(dp11555
bag91
(g1554
g86
tp11556
Rp11557
(dp11558
bag91
(g1386
g86
tp11559
Rp11560
(dp11561
bag91
(g1212
g86
tp11562
Rp11563
(dp11564
bag91
(g1230
g86
tp11565
Rp11566
(dp11567
bag91
(g17
g86
tp11568
Rp11569
(dp11570
ba(lp11571
g2
(g123
g86
tp11572
Rp11573
(dp11574
batp11575
a((lp11576
g91
(g3
(g6837
g8
(g9
(L475506495909L
I442400000
tp11577
Rp11578
(dp11579
bg17
tp11580
Rp11581
(dp11582
bg8
(g9
(I-11661140
I10507
tp11583
Rp11584
(dp11585
bg71
tp11586
Rp11587
(dp11588
bg8
(g9
(I-34264261
I21014
tp11589
Rp11590
(dp11591
bg59
tp11592
Rp11593
(dp11594
bg8
(g9
(L477250250901L
I420280000
tp11595
Rp11596
(dp11597
bg47
tp11598
Rp11599
(dp11600
btp11601
Rp11602
(dp11603
bg86
tp11604
Rp11605
(dp11606
bag91
(g96
g86
tp11607
Rp11608
(dp11609
bag91
(g83
g86
tp11610
Rp11611
(dp11612
bag91
(g177
g86
tp11613
Rp11614
(dp11615
bag91
(g7437
g86
tp11616
Rp11617
(dp11618
bag91
(g6909
g86
tp11619
Rp11620
(dp11621
bag91
(g150
g86
tp11622
Rp11623
(dp11624
bag91
(g3372
g86
tp11625
Rp11626
(dp11627
bag91
(g2943
g86
tp11628
Rp11629
(dp11630
bag91
(g2580
g86
tp11631
Rp11632
(dp11633
bag91
(g1878
g86
tp11634
Rp11635
(dp11636
bag91
(g1683
g86
tp11637
Rp11638
(dp11639
bag91
(g1527
g86
tp11640
Rp11641
(dp11642
bag91
(g1554
g86
tp11643
Rp11644
(dp11645
bag91
(g1386
g86
tp11646
Rp11647
(dp11648
bag91
(g1212
g86
tp11649
Rp11650
(dp11651
bag91
(g1230
g86
tp11652
Rp11653
(dp11654
bag91
(g17
g86
tp11655
Rp11656
(dp11657
ba(lp11658
g2
(g123
g86
tp11659
Rp11660
(dp11661
batp11662
a((lp11663
g91
(g11602
g86
tp11664
Rp11665
(dp11666
bag91
(g83
g86
tp11667
Rp11668
(dp11669
bag91
(g177
g86
tp11670
Rp11671
(dp11672
bag91
(g7437
g86
tp11673
Rp11674
(dp11675
bag91
(g6909
g86
tp11676
Rp11677
(dp11678
bag91
(g150
g86
tp11679
Rp11680
(dp11681
bag91
(g3372
g86
tp11682
Rp11683
(dp11684
bag91
(g2943
g86
tp11685
Rp11686
(dp11687
bag91
(g2580
g86
tp11688
Rp11689
(dp11690
bag91
(g1878
g86
tp11691
Rp11692
(dp11693
bag91
(g1683
g86
tp11694
Rp11695
(dp11696
bag91
(g1527
g86
tp11697
Rp11698
(dp11699
bag91
(g1554
g86
tp11700
Rp11701
(dp11702
bag91
(g1386
g86
tp11703
Rp11704
(dp11705
bag91
(g1212
g86
tp11706
Rp11707
(dp11708
bag91
(g1230
g86
tp11709
Rp11710
(dp11711
bag91
(g17
g86
tp11712
Rp11713
(dp11714
ba(lp11715
g2
(g123
g86
tp11716
Rp11717
(dp11718
batp11719
a((lp11720
g91
(g3
(g7287
g8
(g9
(I79422837
I70000
tp11721
Rp11722
(dp11723
bg47
tp11724
Rp11725
(dp11726
bg8
(g9
(I1503515691
I1400000
tp11727
Rp11728
(dp11729
bg17
tp11730
Rp11731
(dp11732
bg8
(g9
(I-11402
I7
tp11733
Rp11734
(dp11735
bg59
tp11736
Rp11737
(dp11738
bg8
(g9
(I-7760
I7
tp11739
Rp11740
(dp11741
bg71
tp11742
Rp11743
(dp11744
btp11745
Rp11746
(dp11747
bg86
tp11748
Rp11749
(dp11750
bag91
(g96
g86
tp11751
Rp11752
(dp11753
bag91
(g83
g86
tp11754
Rp11755
(dp11756
bag91
(g177
g86
tp11757
Rp11758
(dp11759
bag91
(g7437
g86
tp11760
Rp11761
(dp11762
bag91
(g6909
g86
tp11763
Rp11764
(dp11765
bag91
(g150
g86
tp11766
Rp11767
(dp11768
bag91
(g3372
g86
tp11769
Rp11770
(dp11771
bag91
(g2943
g86
tp11772
Rp11773
(dp11774
bag91
(g2580
g86
tp11775
Rp11776
(dp11777
bag91
(g1878
g86
tp11778
Rp11779
(dp11780
bag91
(g1683
g86
tp11781
Rp11782
(dp11783
bag91
(g1527
g86
tp11784
Rp11785
(dp11786
bag91
(g1554
g86
tp11787
Rp11788
(dp11789
bag91
(g1386
g86
tp11790
Rp11791
(dp11792
bag91
(g1212
g86
tp11793
Rp11794
(dp11795
bag91
(g1230
g86
tp11796
Rp11797
(dp11798
bag91
(g17
g86
tp11799
Rp11800
(dp11801
ba(lp11802
g2
(g123
g86
tp11803
Rp11804
(dp11805
batp11806
a((lp11807
g91
(g11746
g86
tp11808
Rp11809
(dp11810
bag91
(g83
g86
tp11811
Rp11812
(dp11813
bag91
(g177
g86
tp11814
Rp11815
(dp11816
bag91
(g7437
g86
tp11817
Rp11818
(dp11819
bag91
(g6909
g86
tp11820
Rp11821
(dp11822
bag91
(g150
g86
tp11823
Rp11824
(dp11825
bag91
(g3372
g86
tp11826
Rp11827
(dp11828
bag91
(g2943
g86
tp11829
Rp11830
(dp11831
bag91
(g2580
g86
tp11832
Rp11833
(dp11834
bag91
(g1878
g86
tp11835
Rp11836
(dp11837
bag91
(g1683
g86
tp11838
Rp11839
(dp11840
bag91
(g1527
g86
tp11841
Rp11842
(dp11843
bag91
(g1554
g86
tp11844
Rp11845
(dp11846
bag91
(g1386
g86
tp11847
Rp11848
(dp11849
bag91
(g1212
g86
tp11850
Rp11851
(dp11852
bag91
(g1230
g86
tp11853
Rp11854
(dp11855
bag91
(g17
g86
tp11856
Rp11857
(dp11858
ba(lp11859
g2
(g123
g86
tp11860
Rp11861
(dp11862
batp11863
a((lp11864
g91
(g123
g86
tp11865
Rp11866
(dp11867
bag91
(g17
g86
tp11868
Rp11869
(dp11870
bag91
(g1230
g86
tp11871
Rp11872
(dp11873
bag91
(g1212
g86
tp11874
Rp11875
(dp11876
bag91
(g1386
g86
tp11877
Rp11878
(dp11879
bag91
(g1554
g86
tp11880
Rp11881
(dp11882
bag91
(g1527
g86
tp11883
Rp11884
(dp11885
bag91
(g1683
g86
tp11886
Rp11887
(dp11888
bag91
(g1878
g86
tp11889
Rp11890
(dp11891
bag91
(g2580
g86
tp11892
Rp11893
(dp11894
bag91
(g2943
g86
tp11895
Rp11896
(dp11897
bag91
(g3372
g86
tp11898
Rp11899
(dp11900
bag91
(g150
g86
tp11901
Rp11902
(dp11903
bag91
(g6909
g86
tp11904
Rp11905
(dp11906
bag91
(g7437
g86
tp11907
Rp11908
(dp11909
bag91
(g177
g86
tp11910
Rp11911
(dp11912
ba(lp11913
g2
(g83
g86
tp11914
Rp11915
(dp11916
batp11917
a((lp11918
g91
(g927
g86
tp11919
Rp11920
(dp11921
bag91
(g1005
g86
tp11922
Rp11923
(dp11924
bag91
(g123
g86
tp11925
Rp11926
(dp11927
bag91
(g17
g86
tp11928
Rp11929
(dp11930
bag91
(g1230
g86
tp11931
Rp11932
(dp11933
bag91
(g1212
g86
tp11934
Rp11935
(dp11936
bag91
(g1386
g86
tp11937
Rp11938
(dp11939
bag91
(g1554
g86
tp11940
Rp11941
(dp11942
bag91
(g1527
g86
tp11943
Rp11944
(dp11945
bag91
(g1683
g86
tp11946
Rp11947
(dp11948
bag91
(g1878
g86
tp11949
Rp11950
(dp11951
bag91
(g2580
g86
tp11952
Rp11953
(dp11954
bag91
(g2943
g86
tp11955
Rp11956
(dp11957
bag91
(g3372
g86
tp11958
Rp11959
(dp11960
bag91
(g150
g86
tp11961
Rp11962
(dp11963
bag91
(g6909
g86
tp11964
Rp11965
(dp11966
bag91
(g7437
g86
tp11967
Rp11968
(dp11969
bag91
(g177
g86
tp11970
Rp11971
(dp11972
ba(lp11973
g2
(g83
g86
tp11974
Rp11975
(dp11976
batp11977
a((lp11978
g91
(g1005
g86
tp11979
Rp11980
(dp11981
bag91
(g852
g86
tp11982
Rp11983
(dp11984
bag91
(g123
g86
tp11985
Rp11986
(dp11987
bag91
(g17
g86
tp11988
Rp11989
(dp11990
bag91
(g1230
g86
tp11991
Rp11992
(dp11993
bag91
(g1212
g86
tp11994
Rp11995
(dp11996
bag91
(g1386
g86
tp11997
Rp11998
(dp11999
bag91
(g1554
g86
tp12000
Rp12001
(dp12002
bag91
(g1527
g86
tp12003
Rp12004
(dp12005
bag91
(g1683
g86
tp12006
Rp12007
(dp12008
bag91
(g1878
g86
tp12009
Rp12010
(dp12011
bag91
(g2580
g86
tp12012
Rp12013
(dp12014
bag91
(g2943
g86
tp12015
Rp12016
(dp12017
bag91
(g3372
g86
tp12018
Rp12019
(dp12020
bag91
(g150
g86
tp12021
Rp12022
(dp12023
bag91
(g6909
g86
tp12024
Rp12025
(dp12026
bag91
(g7437
g86
tp12027
Rp12028
(dp12029
bag91
(g177
g86
tp12030
Rp12031
(dp12032
ba(lp12033
g2
(g83
g86
tp12034
Rp12035
(dp12036
batp12037
a.