(lp0
((lp1
csympy.core.relational
StrictGreaterThan
p2
(csympy.core.add
Add
p3
(csympy.core.numbers
Integer
p4
(I6435
tp5
Rp6
(dp7
bcsympy.core.mul
Mul
p8
(g4
(I1260
tp9
Rp10
(dp11
bcsympy.core.power
Pow
p12
(csympy.core.symbol
Symbol
p13
(S'x'
p14
tp15
Rp16
(dp17
S'_assumptions'
p18
ccopy_reg
_reconstructor
p19
(csympy.core.assumptions
StdFactKB
p20
c__builtin__
dict
p21
(dp22
S'real'
p23
NsS'irrational'
p24
NsS'antihermitian'
p25
NsS'nonpositive'
p26
NsS'unbounded'
p27
NsS'negative'
p28
NsS'hermitian'
p29
NsS'bounded'
p30
NsS'integer'
p31
NsS'imaginary'
p32
NsS'odd'
p33
NsS'even'
p34
NsS'commutative'
p35
I01
sS'positive'
p36
NsS'zero'
p37
NsS'nonnegative'
p38
NsS'rational'
p39
Nstp40
Rp41
sbg4
(I6
tp42
Rp43
(dp44
btp45
Rp46
(dp47
btp48
Rp49
(dp50
bg8
(g4
(I6930
tp51
Rp52
(dp53
bg12
(g16
g4
(I4
tp54
Rp55
(dp56
btp57
Rp58
(dp59
btp60
Rp61
(dp62
bg8
(g4
(I35
tp63
Rp64
(dp65
bg12
(g16
g4
(I8
tp66
Rp67
(dp68
btp69
Rp70
(dp71
btp72
Rp73
(dp74
bg8
(g4
(I12012
tp75
Rp76
(dp77
bg12
(g16
g4
(I2
tp78
Rp79
(dp80
btp81
Rp82
(dp83
btp84
Rp85
(dp86
btp87
Rp88
(dp89
bcsympy.core.numbers
Zero
p90
(tRp91
(dp92
btp93
Rp94
(dp95
bag2
(g3
(csympy.core.numbers
Rational
p96
(L-157799619549L
L10000000000L
tp97
Rp98
(dp99
bg8
(g96
(L15882114127L
I5000000
tp100
Rp101
(dp102
bg12
(g16
g4
(I5
tp103
Rp104
(dp105
btp106
Rp107
(dp108
btp109
Rp110
(dp111
bg8
(g96
(L-3863890793L
I400000000
tp112
Rp113
(dp114
bg12
(g16
g4
(I10
tp115
Rp116
(dp117
btp118
Rp119
(dp120
btp121
Rp122
(dp123
bg8
(g96
(L-3478359986689L
L10000000000L
tp124
Rp125
(dp126
bg70
tp127
Rp128
(dp129
bg8
(g96
(L-16661060527881L
L5000000000L
tp130
Rp131
(dp132
bg58
tp133
Rp134
(dp135
bg8
(g96
(L4266069093L
I10000000
tp136
Rp137
(dp138
bg16
tp139
Rp140
(dp141
bg8
(g96
(L36766661217L
I12500000
tp142
Rp143
(dp144
bg12
(g16
g4
(I3
tp145
Rp146
(dp147
btp148
Rp149
(dp150
btp151
Rp152
(dp153
bg8
(g96
(L-90273286638249L
L50000000000L
tp154
Rp155
(dp156
bg82
tp157
Rp158
(dp159
bg8
(g96
(L-9578578626477L
L5000000000L
tp160
Rp161
(dp162
bg46
tp163
Rp164
(dp165
bg8
(g96
(I373203173
I10000000
tp166
Rp167
(dp168
bg12
(g16
g4
(I9
tp169
Rp170
(dp171
btp172
Rp173
(dp174
btp175
Rp176
(dp177
bg8
(g96
(L15932299899L
I17500000
tp178
Rp179
(dp180
bg12
(g16
g4
(I7
tp181
Rp182
(dp183
btp184
Rp185
(dp186
btp187
Rp188
(dp189
btp190
Rp191
(dp192
bg91
tp193
Rp194
(dp195
bag2
(g3
(g96
(L-56736008637L
L50000000000L
tp196
Rp197
(dp198
bg8
(g96
(L-326507718873L
L5000000000L
tp199
Rp200
(dp201
bg82
tp202
Rp203
(dp204
bg8
(g96
(I53314739
I10000000
tp205
Rp206
(dp207
bg185
tp208
Rp209
(dp210
bg8
(g96
(L-145018709951L
L5000000000L
tp211
Rp212
(dp213
bg46
tp214
Rp215
(dp216
bg8
(g96
(L-27329163981L
I312500000
tp217
Rp218
(dp219
bg58
tp220
Rp221
(dp222
bg8
(g96
(I978828557
I10000000
tp223
Rp224
(dp225
bg149
tp226
Rp227
(dp228
bg8
(g96
(I-551984399
I400000000
tp229
Rp230
(dp231
bg70
tp232
Rp233
(dp234
bg8
(g96
(I765704709
I50000000
tp235
Rp236
(dp237
bg16
tp238
Rp239
(dp240
bg8
(g96
(I657609519
I10000000
tp241
Rp242
(dp243
bg107
tp244
Rp245
(dp246
btp247
Rp248
(dp249
bg91
tp250
Rp251
(dp252
bag2
(g3
(g96
(L-28323008637L
L50000000000L
tp253
Rp254
(dp255
bg8
(g96
(L-144957209951L
L5000000000L
tp256
Rp257
(dp258
bg46
tp259
Rp260
(dp261
bg209
g8
(g96
(L-27248445231L
I312500000
tp262
Rp263
(dp264
bg58
tp265
Rp266
(dp267
bg8
(g96
(L-322633218873L
L5000000000L
tp268
Rp269
(dp270
bg82
tp271
Rp272
(dp273
bg227
g233
g239
g245
tp274
Rp275
(dp276
bg91
tp277
Rp278
(dp279
bacsympy.core.relational
LessThan
p280
(g3
(g4
(I-231
tp281
Rp282
(dp283
bg8
(g4
(I-315
tp284
Rp285
(dp286
bg82
tp287
Rp288
(dp289
bg8
(g4
(I-105
tp290
Rp291
(dp292
bg58
tp293
Rp294
(dp295
bg8
(g4
(I-5
tp296
Rp297
(dp298
bg46
tp299
Rp300
(dp301
btp302
Rp303
(dp304
bg91
tp305
Rp306
(dp307
bag280
(g3
(csympy.core.numbers
NegativeOne
p308
(tRp309
(dp310
bg8
(g309
g16
tp311
Rp312
(dp313
btp314
Rp315
(dp316
bg91
tp317
Rp318
(dp319
bag2
(g3
(g96
(I-736831281
L50000000000L
tp320
Rp321
(dp322
bg8
(g96
(I-1301388761
I1562500000
tp323
Rp324
(dp325
bg82
tp326
Rp327
(dp328
bg8
(g96
(I53314739
I50000000
tp329
Rp330
(dp331
bg149
tp332
Rp333
(dp334
bg8
(g96
(I9944217
I50000000
tp335
Rp336
(dp337
bg16
tp338
Rp339
(dp340
bg8
(g96
(I-551984399
I2000000000
tp341
Rp342
(dp343
bg58
tp344
Rp345
(dp346
btp347
Rp348
(dp349
bg91
tp350
Rp351
(dp352
bag2
(g3
(g96
(I-367831281
L50000000000L
tp353
Rp354
(dp355
bg333
g339
g8
(g96
(I-1297545011
I1562500000
tp356
Rp357
(dp358
bg82
tp359
Rp360
(dp361
bg345
tp362
Rp363
(dp364
bg91
tp365
Rp366
(dp367
bag280
(g3
(g4
(I-3
tp368
Rp369
(dp370
bg8
(g309
g82
tp371
Rp372
(dp373
btp374
Rp375
(dp376
bg91
tp377
Rp378
(dp379
bag280
(g3
(g309
g16
tp380
Rp381
(dp382
bg91
tp383
Rp384
(dp385
ba(lp386
g2
(g312
g91
tp387
Rp388
(dp389
batp390
a((lp391
g280
(g88
g91
tp392
Rp393
(dp394
bag280
(g191
g91
tp395
Rp396
(dp397
bag2
(g248
g91
tp398
Rp399
(dp400
bag2
(g275
g91
tp401
Rp402
(dp403
bag280
(g303
g91
tp404
Rp405
(dp406
bag280
(g315
g91
tp407
Rp408
(dp409
bag2
(g348
g91
tp410
Rp411
(dp412
bag2
(g363
g91
tp413
Rp414
(dp415
bag280
(g375
g91
tp416
Rp417
(dp418
bag280
(g381
g91
tp419
Rp420
(dp421
ba(lp422
g2
(g312
g91
tp423
Rp424
(dp425
batp426
a((lp427
g2
(g191
g91
tp428
Rp429
(dp430
bag280
(g3
(g4
(I-6435
tp431
Rp432
(dp433
bg8
(g4
(I-6930
tp434
Rp435
(dp436
bg58
tp437
Rp438
(dp439
bg8
(g4
(I-35
tp440
Rp441
(dp442
bg70
tp443
Rp444
(dp445
bg8
(g4
(I-1260
tp446
Rp447
(dp448
bg46
tp449
Rp450
(dp451
bg8
(g4
(I-12012
tp452
Rp453
(dp454
bg82
tp455
Rp456
(dp457
btp458
Rp459
(dp460
bg91
tp461
Rp462
(dp463
bag2
(g248
g91
tp464
Rp465
(dp466
bag2
(g275
g91
tp467
Rp468
(dp469
bag280
(g303
g91
tp470
Rp471
(dp472
bag280
(g315
g91
tp473
Rp474
(dp475
bag2
(g348
g91
tp476
Rp477
(dp478
bag2
(g363
g91
tp479
Rp480
(dp481
bag280
(g375
g91
tp482
Rp483
(dp484
bag280
(g381
g91
tp485
Rp486
(dp487
ba(lp488
g2
(g312
g91
tp489
Rp490
(dp491
batp492
a((lp493
g280
(g459
g91
tp494
Rp495
(dp496
bag2
(g191
g91
tp497
Rp498
(dp499
bag280
(g459
g91
tp500
Rp501
(dp502
bag2
(g248
g91
tp503
Rp504
(dp505
bag2
(g275
g91
tp506
Rp507
(dp508
bag280
(g303
g91
tp509
Rp510
(dp511
bag280
(g315
g91
tp512
Rp513
(dp514
bag2
(g348
g91
tp515
Rp516
(dp517
bag2
(g363
g91
tp518
Rp519
(dp520
bag280
(g375
g91
tp521
Rp522
(dp523
bag280
(g381
g91
tp524
Rp525
(dp526
ba(lp527
g2
(g312
g91
tp528
Rp529
(dp530
batp531
a((lp532
g2
(g88
g91
tp533
Rp534
(dp535
bag2
(g3
(g96
(L-316100619549L
L10000000000L
tp536
Rp537
(dp538
bg110
g122
g140
g152
g8
(g96
(L-9594076626477L
L5000000000L
tp539
Rp540
(dp541
bg46
tp542
Rp543
(dp544
bg176
g188
g8
(g96
(L-91750762638249L
L50000000000L
tp545
Rp546
(dp547
bg82
tp548
Rp549
(dp550
bg8
(g96
(L-3479220986689L
L10000000000L
tp551
Rp552
(dp553
bg70
tp554
Rp555
(dp556
bg8
(g96
(L-16746299527881L
L5000000000L
tp557
Rp558
(dp559
bg58
tp560
Rp561
(dp562
btp563
Rp564
(dp565
bg91
tp566
Rp567
(dp568
bag2
(g191
g91
tp569
Rp570
(dp571
bag280
(g459
g91
tp572
Rp573
(dp574
bag2
(g248
g91
tp575
Rp576
(dp577
bag2
(g275
g91
tp578
Rp579
(dp580
bag280
(g303
g91
tp581
Rp582
(dp583
bag280
(g315
g91
tp584
Rp585
(dp586
bag2
(g348
g91
tp587
Rp588
(dp589
bag2
(g363
g91
tp590
Rp591
(dp592
bag280
(g375
g91
tp593
Rp594
(dp595
bag280
(g381
g91
tp596
Rp597
(dp598
ba(lp599
g2
(g312
g91
tp600
Rp601
(dp602
batp603
a((lp604
g280
(g88
g91
tp605
Rp606
(dp607
bag2
(g191
g91
tp608
Rp609
(dp610
bag280
(g459
g91
tp611
Rp612
(dp613
bag2
(g248
g91
tp614
Rp615
(dp616
bag2
(g275
g91
tp617
Rp618
(dp619
bag280
(g303
g91
tp620
Rp621
(dp622
bag280
(g315
g91
tp623
Rp624
(dp625
bag2
(g348
g91
tp626
Rp627
(dp628
bag2
(g363
g91
tp629
Rp630
(dp631
bag280
(g375
g91
tp632
Rp633
(dp634
bag280
(g381
g91
tp635
Rp636
(dp637
ba(lp638
g2
(g312
g91
tp639
Rp640
(dp641
batp642
a.