(lp0
((lp1
csympy.core.relational
LessThan
p2
(csympy.core.add
Add
p3
(csympy.core.numbers
Rational
p4
(L2313805824L
I125
tp5
Rp6
(dp7
bcsympy.core.mul
Mul
p8
(g4
(L-337040029130112L
I1220703125
tp9
Rp10
(dp11
bcsympy.core.power
Pow
p12
(csympy.core.symbol
Symbol
p13
(S'x'
p14
tp15
Rp16
(dp17
S'_assumptions'
p18
ccopy_reg
_reconstructor
p19
(csympy.core.assumptions
StdFactKB
p20
c__builtin__
dict
p21
(dp22
S'real'
p23
NsS'irrational'
p24
NsS'antihermitian'
p25
NsS'nonpositive'
p26
NsS'unbounded'
p27
NsS'negative'
p28
NsS'hermitian'
p29
NsS'bounded'
p30
NsS'integer'
p31
NsS'imaginary'
p32
NsS'odd'
p33
NsS'even'
p34
NsS'commutative'
p35
I01
sS'positive'
p36
NsS'zero'
p37
NsS'nonnegative'
p38
NsS'rational'
p39
Nstp40
Rp41
sbcsympy.core.numbers
Integer
p42
(I2
tp43
Rp44
(dp45
btp46
Rp47
(dp48
btp49
Rp50
(dp51
bg8
(g4
(L-3190225056166462761L
L190734863281250000L
tp52
Rp53
(dp54
bg12
(g16
g42
(I4
tp55
Rp56
(dp57
btp58
Rp59
(dp60
btp61
Rp62
(dp63
bg8
(g4
(L-5607318970368L
I390625
tp64
Rp65
(dp66
bg16
tp67
Rp68
(dp69
bg8
(g4
(L-297149834193849L
L190734863281250000000000000000000000000000L
tp70
Rp71
(dp72
bg12
(g16
g42
(I11
tp73
Rp74
(dp75
btp76
Rp77
(dp78
btp79
Rp80
(dp81
bg8
(g4
(L-90268445022289839894501L
L476837158203125000000000000L
tp82
Rp83
(dp84
bg12
(g16
g42
(I6
tp85
Rp86
(dp87
btp88
Rp89
(dp90
btp91
Rp92
(dp93
bg8
(g4
(L993184235083198197L
L95367431640625000000000000000000L
tp94
Rp95
(dp96
bg12
(g16
g42
(I8
tp97
Rp98
(dp99
btp100
Rp101
(dp102
btp103
Rp104
(dp105
bg8
(g4
(L12038052984399L
L381469726562500000000000000000000000000000000L
tp106
Rp107
(dp108
bg12
(g16
g42
(I12
tp109
Rp110
(dp111
btp112
Rp113
(dp114
btp115
Rp116
(dp117
bg8
(g4
(L-332092043766860568687L
L4768371582031250000000L
tp118
Rp119
(dp120
bg12
(g16
g42
(I5
tp121
Rp122
(dp123
btp124
Rp125
(dp126
btp127
Rp128
(dp129
bg8
(g4
(L17178145992170631L
L381469726562500000000000000000000000000L
tp130
Rp131
(dp132
bg12
(g16
g42
(I10
tp133
Rp134
(dp135
btp136
Rp137
(dp138
btp139
Rp140
(dp141
bg8
(g4
(L-14321096805512041460037L
L47683715820312500000000000000L
tp142
Rp143
(dp144
bg12
(g16
g42
(I7
tp145
Rp146
(dp147
btp148
Rp149
(dp150
btp151
Rp152
(dp153
bg8
(g4
(L-10046483167631472L
L3814697265625L
tp154
Rp155
(dp156
bg12
(g16
g42
(I3
tp157
Rp158
(dp159
btp160
Rp161
(dp162
btp163
Rp164
(dp165
bg8
(g4
(L-80860515314752719L
L95367431640625000000000000000000000L
tp166
Rp167
(dp168
bg12
(g16
g42
(I9
tp169
Rp170
(dp171
btp172
Rp173
(dp174
btp175
Rp176
(dp177
btp178
Rp179
(dp180
bcsympy.core.numbers
Zero
p181
(tRp182
(dp183
btp184
Rp185
(dp186
bag2
(g16
g182
tp187
Rp188
(dp189
bacsympy.core.relational
StrictGreaterThan
p190
(g3
(g42
(I2304
tp191
Rp192
(dp193
bg8
(g4
(I2736741
L250000000000L
tp194
Rp195
(dp196
bg59
tp197
Rp198
(dp199
bg8
(g4
(I47045881
L1000000000000000000L
tp200
Rp201
(dp202
bg89
tp203
Rp204
(dp205
bg8
(g4
(I7428297
L250000000000000L
tp206
Rp207
(dp208
bg125
tp209
Rp210
(dp211
bg8
(g4
(I6498
I15625
tp212
Rp213
(dp214
bg47
tp215
Rp216
(dp217
bg8
(g4
(I5472
I125
tp218
Rp219
(dp220
bg16
tp221
Rp222
(dp223
bg8
(g4
(I20577
I7812500
tp224
Rp225
(dp226
bg161
tp227
Rp228
(dp229
btp230
Rp231
(dp232
bg182
tp233
Rp234
(dp235
bag2
(g3
(g42
(I-2304
tp236
Rp237
(dp238
bg8
(g4
(I729
L76293945312500000000L
tp239
Rp240
(dp241
bg125
tp242
Rp243
(dp244
bg8
(g4
(I-1701
L6103515625000000L
tp245
Rp246
(dp247
bg59
tp248
Rp249
(dp250
bg8
(g4
(I1728
I3125
tp251
Rp252
(dp253
bg16
tp254
Rp255
(dp256
bg8
(g4
(I162
L30517578125L
tp257
Rp258
(dp259
bg161
tp260
Rp261
(dp262
bg8
(g4
(I-648
I9765625
tp263
Rp264
(dp265
bg47
tp266
Rp267
(dp268
bg8
(g4
(I-729
L3814697265625000000000000L
tp269
Rp270
(dp271
bg89
tp272
Rp273
(dp274
btp275
Rp276
(dp277
bg182
tp278
Rp279
(dp280
bag190
(g3
(g4
(I6624
I125
tp281
Rp282
(dp283
bg8
(g4
(I-16767
L76293945312500000000000L
tp284
Rp285
(dp286
bg125
tp287
Rp288
(dp289
bg8
(g4
(I16767
L3814697265625000000000000000L
tp290
Rp291
(dp292
bg89
tp293
Rp294
(dp295
bg8
(g4
(I-1863
L15258789062500L
tp296
Rp297
(dp298
bg161
tp299
Rp300
(dp301
bg8
(g4
(I39123
L6103515625000000000L
tp302
Rp303
(dp304
bg59
tp305
Rp306
(dp307
bg8
(g4
(I1863
I1220703125
tp308
Rp309
(dp310
bg47
tp311
Rp312
(dp313
bg8
(g4
(I-4968
I390625
tp314
Rp315
(dp316
bg16
tp317
Rp318
(dp319
btp320
Rp321
(dp322
bg182
tp323
Rp324
(dp325
bag190
(g8
(g4
(I277
I42
tp326
Rp327
(dp328
bg16
tp329
Rp330
(dp331
bg182
tp332
Rp333
(dp334
bag2
(g3
(g237
g8
(g4
(I-7428297
L250000000000000L
tp335
Rp336
(dp337
bg125
tp338
Rp339
(dp340
bg8
(g4
(I-5472
I125
tp341
Rp342
(dp343
bg16
tp344
Rp345
(dp346
bg8
(g4
(I-6498
I15625
tp347
Rp348
(dp349
bg47
tp350
Rp351
(dp352
bg8
(g4
(I-20577
I7812500
tp353
Rp354
(dp355
bg161
tp356
Rp357
(dp358
bg8
(g4
(I-47045881
L1000000000000000000L
tp359
Rp360
(dp361
bg89
tp362
Rp363
(dp364
bg8
(g4
(I-2736741
L250000000000L
tp365
Rp366
(dp367
bg59
tp368
Rp369
(dp370
btp371
Rp372
(dp373
bg182
tp374
Rp375
(dp376
bag2
(g8
(g4
(I-277
I42
tp377
Rp378
(dp379
bg16
tp380
Rp381
(dp382
bg182
tp383
Rp384
(dp385
bacsympy.core.relational
Equality
p386
(g3
(csympy.core.numbers
NegativeOne
p387
(tRp388
(dp389
bg8
(g44
g47
tp390
Rp391
(dp392
btp393
Rp394
(dp395
bg182
tp396
Rp397
(dp398
bag2
(g3
(g42
(I-289
tp399
Rp400
(dp401
bg16
tp402
Rp403
(dp404
bg182
tp405
Rp406
(dp407
ba(lp408
g190
(g8
(g388
g16
tp409
Rp410
(dp411
bg182
tp412
Rp413
(dp414
batp415
a((lp416
g2
(g3
(g4
(I-6624
I125
tp417
Rp418
(dp419
bg8
(g4
(I4968
I390625
tp420
Rp421
(dp422
bg16
tp423
Rp424
(dp425
bg8
(g4
(I-39123
L6103515625000000000L
tp426
Rp427
(dp428
bg59
tp429
Rp430
(dp431
bg8
(g4
(I-1863
I1220703125
tp432
Rp433
(dp434
bg47
tp435
Rp436
(dp437
bg8
(g4
(I-16767
L3814697265625000000000000000L
tp438
Rp439
(dp440
bg89
tp441
Rp442
(dp443
bg8
(g4
(I1863
L15258789062500L
tp444
Rp445
(dp446
bg161
tp447
Rp448
(dp449
bg8
(g4
(I16767
L76293945312500000000000L
tp450
Rp451
(dp452
bg125
tp453
Rp454
(dp455
btp456
Rp457
(dp458
bg182
tp459
Rp460
(dp461
bag2
(g3
(g4
(I-1000
I19
tp462
Rp463
(dp464
bg16
tp465
Rp466
(dp467
bg182
tp468
Rp469
(dp470
bag190
(g16
g182
tp471
Rp472
(dp473
bag2
(g276
g182
tp474
Rp475
(dp476
bag190
(g321
g182
tp477
Rp478
(dp479
bag190
(g330
g182
tp480
Rp481
(dp482
bag2
(g372
g182
tp483
Rp484
(dp485
bag2
(g381
g182
tp486
Rp487
(dp488
bag386
(g394
g182
tp489
Rp490
(dp491
bag2
(g403
g182
tp492
Rp493
(dp494
ba(lp495
g190
(g410
g182
tp496
Rp497
(dp498
batp499
a((lp500
g2
(g457
g182
tp501
Rp502
(dp503
bag2
(g457
g182
tp504
Rp505
(dp506
bag190
(g16
g182
tp507
Rp508
(dp509
bag2
(g276
g182
tp510
Rp511
(dp512
bag190
(g321
g182
tp513
Rp514
(dp515
bag190
(g330
g182
tp516
Rp517
(dp518
bag2
(g372
g182
tp519
Rp520
(dp521
bag2
(g381
g182
tp522
Rp523
(dp524
bag386
(g394
g182
tp525
Rp526
(dp527
bag2
(g403
g182
tp528
Rp529
(dp530
ba(lp531
g190
(g410
g182
tp532
Rp533
(dp534
batp535
a((lp536
g2
(g410
g182
tp537
Rp538
(dp539
bag2
(g457
g182
tp540
Rp541
(dp542
bag190
(g16
g182
tp543
Rp544
(dp545
bag2
(g276
g182
tp546
Rp547
(dp548
bag190
(g321
g182
tp549
Rp550
(dp551
bag190
(g330
g182
tp552
Rp553
(dp554
bag2
(g372
g182
tp555
Rp556
(dp557
bag2
(g381
g182
tp558
Rp559
(dp560
bag386
(g394
g182
tp561
Rp562
(dp563
bag2
(g403
g182
tp564
Rp565
(dp566
ba(lp567
g190
(g410
g182
tp568
Rp569
(dp570
batp571
a((lp572
g2
(g330
g182
tp573
Rp574
(dp575
bag2
(g3
(g42
(I-12500
tp576
Rp577
(dp578
bg16
tp579
Rp580
(dp581
bg182
tp582
Rp583
(dp584
bag2
(g457
g182
tp585
Rp586
(dp587
bag190
(g16
g182
tp588
Rp589
(dp590
bag2
(g276
g182
tp591
Rp592
(dp593
bag190
(g321
g182
tp594
Rp595
(dp596
bag190
(g330
g182
tp597
Rp598
(dp599
bag2
(g372
g182
tp600
Rp601
(dp602
bag2
(g381
g182
tp603
Rp604
(dp605
bag386
(g394
g182
tp606
Rp607
(dp608
bag2
(g403
g182
tp609
Rp610
(dp611
ba(lp612
g190
(g410
g182
tp613
Rp614
(dp615
batp616
a((lp617
g190
(g580
g182
tp618
Rp619
(dp620
bag2
(g457
g182
tp621
Rp622
(dp623
bag190
(g16
g182
tp624
Rp625
(dp626
bag2
(g276
g182
tp627
Rp628
(dp629
bag190
(g321
g182
tp630
Rp631
(dp632
bag190
(g330
g182
tp633
Rp634
(dp635
bag2
(g372
g182
tp636
Rp637
(dp638
bag2
(g381
g182
tp639
Rp640
(dp641
bag386
(g394
g182
tp642
Rp643
(dp644
bag2
(g403
g182
tp645
Rp646
(dp647
ba(lp648
g190
(g410
g182
tp649
Rp650
(dp651
batp652
a((lp653
g2
(g3
(g42
(L-21743271936L
tp654
Rp655
(dp656
bg8
(g4
(I-531441
L14551915228366851806640625000000000000000000000000L
tp657
Rp658
(dp659
bg113
tp660
Rp661
(dp662
bg8
(g4
(I1712421
L29103830456733703613281250000000000L
tp663
Rp664
(dp665
bg173
tp666
Rp667
(dp668
bg8
(g4
(I-4566456
L931322574615478515625L
tp669
Rp670
(dp671
bg89
tp672
Rp673
(dp674
bg8
(g4
(L16307453952L
I3125
tp675
Rp676
(dp677
bg16
tp678
Rp679
(dp680
bg8
(g4
(I-7617321
L2328306436538696289062500000000L
tp681
Rp682
(dp683
bg101
tp684
Rp685
(dp686
bg8
(g4
(I40310784
L298023223876953125L
tp687
Rp688
(dp689
bg125
tp690
Rp691
(dp692
bg8
(g4
(I531441
L72759576141834259033203125000000000000000000L
tp693
Rp694
(dp695
bg77
tp696
Rp697
(dp698
bg8
(g4
(I-282175488
L95367431640625L
tp699
Rp700
(dp701
bg59
tp702
Rp703
(dp704
bg8
(g4
(L-6115295232L
I9765625
tp705
Rp706
(dp707
bg47
tp708
Rp709
(dp710
bg8
(g4
(I-2302911
L2910383045673370361328125000000000000000L
tp711
Rp712
(dp713
bg137
tp714
Rp715
(dp716
bg8
(g4
(I1528823808
L30517578125L
tp717
Rp718
(dp719
bg161
tp720
Rp721
(dp722
bg8
(g4
(I413343
L2910383045673370361328125L
tp723
Rp724
(dp725
bg149
tp726
Rp727
(dp728
btp729
Rp730
(dp731
bg182
tp732
Rp733
(dp734
bag2
(g457
g182
tp735
Rp736
(dp737
bag190
(g16
g182
tp738
Rp739
(dp740
bag2
(g276
g182
tp741
Rp742
(dp743
bag190
(g321
g182
tp744
Rp745
(dp746
bag190
(g330
g182
tp747
Rp748
(dp749
bag2
(g372
g182
tp750
Rp751
(dp752
bag2
(g381
g182
tp753
Rp754
(dp755
bag386
(g394
g182
tp756
Rp757
(dp758
bag2
(g403
g182
tp759
Rp760
(dp761
ba(lp762
g190
(g410
g182
tp763
Rp764
(dp765
batp766
a((lp767
g2
(g3
(g42
(L21743271936L
tp768
Rp769
(dp770
bg8
(g4
(L6115295232L
I9765625
tp771
Rp772
(dp773
bg47
tp774
Rp775
(dp776
bg8
(g4
(I-40310784
L298023223876953125L
tp777
Rp778
(dp779
bg125
tp780
Rp781
(dp782
bg8
(g4
(I-1528823808
L30517578125L
tp783
Rp784
(dp785
bg161
tp786
Rp787
(dp788
bg8
(g4
(I4566456
L931322574615478515625L
tp789
Rp790
(dp791
bg89
tp792
Rp793
(dp794
bg8
(g4
(L-16307453952L
I3125
tp795
Rp796
(dp797
bg16
tp798
Rp799
(dp800
bg8
(g4
(I-413343
L2910383045673370361328125L
tp801
Rp802
(dp803
bg149
tp804
Rp805
(dp806
bg8
(g4
(I7617321
L2328306436538696289062500000000L
tp807
Rp808
(dp809
bg101
tp810
Rp811
(dp812
bg8
(g4
(I-1712421
L29103830456733703613281250000000000L
tp813
Rp814
(dp815
bg173
tp816
Rp817
(dp818
bg8
(g4
(I282175488
L95367431640625L
tp819
Rp820
(dp821
bg59
tp822
Rp823
(dp824
bg8
(g4
(I-531441
L72759576141834259033203125000000000000000000L
tp825
Rp826
(dp827
bg77
tp828
Rp829
(dp830
bg8
(g4
(I531441
L14551915228366851806640625000000000000000000000000L
tp831
Rp832
(dp833
bg113
tp834
Rp835
(dp836
bg8
(g4
(I2302911
L2910383045673370361328125000000000000000L
tp837
Rp838
(dp839
bg137
tp840
Rp841
(dp842
btp843
Rp844
(dp845
bg182
tp846
Rp847
(dp848
bag2
(g457
g182
tp849
Rp850
(dp851
bag190
(g16
g182
tp852
Rp853
(dp854
bag2
(g276
g182
tp855
Rp856
(dp857
bag190
(g321
g182
tp858
Rp859
(dp860
bag190
(g330
g182
tp861
Rp862
(dp863
bag2
(g372
g182
tp864
Rp865
(dp866
bag2
(g381
g182
tp867
Rp868
(dp869
bag386
(g394
g182
tp870
Rp871
(dp872
bag2
(g403
g182
tp873
Rp874
(dp875
ba(lp876
g190
(g410
g182
tp877
Rp878
(dp879
batp880
a((lp881
g2
(g330
g182
tp882
Rp883
(dp884
bag2
(g457
g182
tp885
Rp886
(dp887
bag190
(g16
g182
tp888
Rp889
(dp890
bag2
(g276
g182
tp891
Rp892
(dp893
bag190
(g321
g182
tp894
Rp895
(dp896
bag190
(g330
g182
tp897
Rp898
(dp899
bag2
(g372
g182
tp900
Rp901
(dp902
bag2
(g381
g182
tp903
Rp904
(dp905
bag386
(g394
g182
tp906
Rp907
(dp908
bag2
(g403
g182
tp909
Rp910
(dp911
ba(lp912
g190
(g410
g182
tp913
Rp914
(dp915
batp916
a((lp917
g2
(g381
g182
tp918
Rp919
(dp920
bag2
(g457
g182
tp921
Rp922
(dp923
bag190
(g16
g182
tp924
Rp925
(dp926
bag2
(g276
g182
tp927
Rp928
(dp929
bag190
(g321
g182
tp930
Rp931
(dp932
bag190
(g330
g182
tp933
Rp934
(dp935
bag2
(g372
g182
tp936
Rp937
(dp938
bag2
(g381
g182
tp939
Rp940
(dp941
bag386
(g394
g182
tp942
Rp943
(dp944
bag2
(g403
g182
tp945
Rp946
(dp947
ba(lp948
g190
(g410
g182
tp949
Rp950
(dp951
batp952
a((lp953
g2
(g3
(g4
(L62511906816L
I125
tp954
Rp955
(dp956
bg8
(g4
(L17581473792L
I1220703125
tp957
Rp958
(dp959
bg47
tp960
Rp961
(dp962
bg8
(g4
(I811254528
L11920928955078125L
tp963
Rp964
(dp965
bg59
tp966
Rp967
(dp968
bg8
(g4
(I-39385683
L29103830456733703613281250000000000000L
tp969
Rp970
(dp971
bg173
tp972
Rp973
(dp974
bg8
(g4
(I12223143
L14551915228366851806640625000000000000000000000000000L
tp975
Rp976
(dp977
bg113
tp978
Rp979
(dp980
bg8
(g4
(I13128561
L116415321826934814453125L
tp981
Rp982
(dp983
bg89
tp984
Rp985
(dp986
bg8
(g4
(L-46883930112L
I390625
tp987
Rp988
(dp989
bg16
tp990
Rp991
(dp992
bg8
(g4
(I-115893504
L37252902984619140625L
tp993
Rp994
(dp995
bg125
tp996
Rp997
(dp998
bg8
(g4
(L-4395368448L
L3814697265625L
tp999
Rp1000
(dp1001
bg161
tp1002
Rp1003
(dp1004
bg8
(g4
(I-12223143
L72759576141834259033203125000000000000000000000L
tp1005
Rp1006
(dp1007
bg77
tp1008
Rp1009
(dp1010
bg8
(g4
(I52966953
L2910383045673370361328125000000000000000000L
tp1011
Rp1012
(dp1013
bg137
tp1014
Rp1015
(dp1016
bg8
(g4
(I-9506889
L2910383045673370361328125000L
tp1017
Rp1018
(dp1019
bg149
tp1020
Rp1021
(dp1022
bg8
(g4
(I175198383
L2328306436538696289062500000000000L
tp1023
Rp1024
(dp1025
bg101
tp1026
Rp1027
(dp1028
btp1029
Rp1030
(dp1031
bg182
tp1032
Rp1033
(dp1034
bag2
(g457
g182
tp1035
Rp1036
(dp1037
bag190
(g16
g182
tp1038
Rp1039
(dp1040
bag2
(g276
g182
tp1041
Rp1042
(dp1043
bag190
(g321
g182
tp1044
Rp1045
(dp1046
bag190
(g330
g182
tp1047
Rp1048
(dp1049
bag2
(g372
g182
tp1050
Rp1051
(dp1052
bag2
(g381
g182
tp1053
Rp1054
(dp1055
bag386
(g394
g182
tp1056
Rp1057
(dp1058
bag2
(g403
g182
tp1059
Rp1060
(dp1061
ba(lp1062
g190
(g410
g182
tp1063
Rp1064
(dp1065
batp1066
a((lp1067
g2
(g3
(g4
(L-62511906816L
I125
tp1068
Rp1069
(dp1070
bg8
(g4
(I9506889
L2910383045673370361328125000L
tp1071
Rp1072
(dp1073
bg149
tp1074
Rp1075
(dp1076
bg8
(g4
(I-13128561
L116415321826934814453125L
tp1077
Rp1078
(dp1079
bg89
tp1080
Rp1081
(dp1082
bg8
(g4
(I12223143
L72759576141834259033203125000000000000000000000L
tp1083
Rp1084
(dp1085
bg77
tp1086
Rp1087
(dp1088
bg8
(g4
(I-811254528
L11920928955078125L
tp1089
Rp1090
(dp1091
bg59
tp1092
Rp1093
(dp1094
bg8
(g4
(I-12223143
L14551915228366851806640625000000000000000000000000000L
tp1095
Rp1096
(dp1097
bg113
tp1098
Rp1099
(dp1100
bg8
(g4
(I-52966953
L2910383045673370361328125000000000000000000L
tp1101
Rp1102
(dp1103
bg137
tp1104
Rp1105
(dp1106
bg8
(g4
(I39385683
L29103830456733703613281250000000000000L
tp1107
Rp1108
(dp1109
bg173
tp1110
Rp1111
(dp1112
bg8
(g4
(I115893504
L37252902984619140625L
tp1113
Rp1114
(dp1115
bg125
tp1116
Rp1117
(dp1118
bg8
(g4
(L-17581473792L
I1220703125
tp1119
Rp1120
(dp1121
bg47
tp1122
Rp1123
(dp1124
bg8
(g4
(I-175198383
L2328306436538696289062500000000000L
tp1125
Rp1126
(dp1127
bg101
tp1128
Rp1129
(dp1130
bg8
(g4
(L4395368448L
L3814697265625L
tp1131
Rp1132
(dp1133
bg161
tp1134
Rp1135
(dp1136
bg8
(g4
(L46883930112L
I390625
tp1137
Rp1138
(dp1139
bg16
tp1140
Rp1141
(dp1142
btp1143
Rp1144
(dp1145
bg182
tp1146
Rp1147
(dp1148
bag2
(g457
g182
tp1149
Rp1150
(dp1151
bag190
(g16
g182
tp1152
Rp1153
(dp1154
bag2
(g276
g182
tp1155
Rp1156
(dp1157
bag190
(g321
g182
tp1158
Rp1159
(dp1160
bag190
(g330
g182
tp1161
Rp1162
(dp1163
bag2
(g372
g182
tp1164
Rp1165
(dp1166
bag2
(g381
g182
tp1167
Rp1168
(dp1169
bag386
(g394
g182
tp1170
Rp1171
(dp1172
bag2
(g403
g182
tp1173
Rp1174
(dp1175
ba(lp1176
g190
(g410
g182
tp1177
Rp1178
(dp1179
batp1180
a((lp1181
g2
(g3
(g4
(L1907972112384L
I25
tp1182
Rp1183
(dp1184
bg8
(g4
(L-134154289152L
L762939453125L
tp1185
Rp1186
(dp1187
bg161
tp1188
Rp1189
(dp1190
bg8
(g4
(L536617156608L
I244140625
tp1191
Rp1192
(dp1193
bg47
tp1194
Rp1195
(dp1196
bg8
(g4
(I186535791
L1455191522836685180664062500000000000000000000000000L
tp1197
Rp1198
(dp1199
bg113
tp1200
Rp1201
(dp1202
bg8
(g4
(I-186535791
L7275957614183425903320312500000000000000000000L
tp1203
Rp1204
(dp1205
bg77
tp1206
Rp1207
(dp1208
bg8
(g4
(L2673679671L
L232830643653869628906250000000000L
tp1209
Rp1210
(dp1211
bg101
tp1212
Rp1213
(dp1214
bg8
(g4
(L-3537271296L
L7450580596923828125L
tp1215
Rp1216
(dp1217
bg125
tp1218
Rp1219
(dp1220
bg8
(g4
(L24760899072L
L2384185791015625L
tp1221
Rp1222
(dp1223
bg59
tp1224
Rp1225
(dp1226
bg8
(g4
(L-4706810921484288L
I78125
tp1227
Rp1228
(dp1229
bg16
tp1230
Rp1231
(dp1232
bg8
(g4
(I400706514
L23283064365386962890625L
tp1233
Rp1234
(dp1235
bg89
tp1236
Rp1237
(dp1238
bg8
(g4
(I808321761
L291038304567337036132812500000000000000000L
tp1239
Rp1240
(dp1241
bg137
tp1242
Rp1243
(dp1244
bg8
(g4
(I-601059771
L2910383045673370361328125000000000000L
tp1245
Rp1246
(dp1247
bg173
tp1248
Rp1249
(dp1250
bg8
(g4
(I-145083393
L291038304567337036132812500L
tp1251
Rp1252
(dp1253
bg149
tp1254
Rp1255
(dp1256
btp1257
Rp1258
(dp1259
bg182
tp1260
Rp1261
(dp1262
bag2
(g1030
g182
tp1263
Rp1264
(dp1265
bag2
(g1144
g182
tp1266
Rp1267
(dp1268
bag2
(g457
g182
tp1269
Rp1270
(dp1271
bag190
(g16
g182
tp1272
Rp1273
(dp1274
bag2
(g276
g182
tp1275
Rp1276
(dp1277
bag190
(g321
g182
tp1278
Rp1279
(dp1280
bag190
(g330
g182
tp1281
Rp1282
(dp1283
bag2
(g372
g182
tp1284
Rp1285
(dp1286
bag2
(g381
g182
tp1287
Rp1288
(dp1289
bag386
(g394
g182
tp1290
Rp1291
(dp1292
bag2
(g403
g182
tp1293
Rp1294
(dp1295
ba(lp1296
g190
(g410
g182
tp1297
Rp1298
(dp1299
batp1300
a((lp1301
g2
(g1144
g182
tp1302
Rp1303
(dp1304
bag190
(g1030
g182
tp1305
Rp1306
(dp1307
bag2
(g457
g182
tp1308
Rp1309
(dp1310
bag190
(g16
g182
tp1311
Rp1312
(dp1313
bag2
(g276
g182
tp1314
Rp1315
(dp1316
bag190
(g321
g182
tp1317
Rp1318
(dp1319
bag190
(g330
g182
tp1320
Rp1321
(dp1322
bag2
(g372
g182
tp1323
Rp1324
(dp1325
bag2
(g381
g182
tp1326
Rp1327
(dp1328
bag386
(g394
g182
tp1329
Rp1330
(dp1331
bag2
(g403
g182
tp1332
Rp1333
(dp1334
ba(lp1335
g190
(g410
g182
tp1336
Rp1337
(dp1338
batp1339
a((lp1340
g190
(g1030
g182
tp1341
Rp1342
(dp1343
bag2
(g457
g182
tp1344
Rp1345
(dp1346
bag190
(g16
g182
tp1347
Rp1348
(dp1349
bag2
(g276
g182
tp1350
Rp1351
(dp1352
bag190
(g321
g182
tp1353
Rp1354
(dp1355
bag190
(g330
g182
tp1356
Rp1357
(dp1358
bag2
(g372
g182
tp1359
Rp1360
(dp1361
bag2
(g381
g182
tp1362
Rp1363
(dp1364
bag386
(g394
g182
tp1365
Rp1366
(dp1367
bag2
(g403
g182
tp1368
Rp1369
(dp1370
ba(lp1371
g190
(g410
g182
tp1372
Rp1373
(dp1374
batp1375
a((lp1376
g2
(g16
g182
tp1377
Rp1378
(dp1379
bag2
(g457
g182
tp1380
Rp1381
(dp1382
bag190
(g16
g182
tp1383
Rp1384
(dp1385
bag2
(g276
g182
tp1386
Rp1387
(dp1388
bag190
(g321
g182
tp1389
Rp1390
(dp1391
bag190
(g330
g182
tp1392
Rp1393
(dp1394
bag2
(g372
g182
tp1395
Rp1396
(dp1397
bag2
(g381
g182
tp1398
Rp1399
(dp1400
bag386
(g394
g182
tp1401
Rp1402
(dp1403
bag2
(g403
g182
tp1404
Rp1405
(dp1406
ba(lp1407
g190
(g410
g182
tp1408
Rp1409
(dp1410
batp1411
a((lp1412
g2
(g3
(g42
(I-12
tp1413
Rp1414
(dp1415
bg8
(g4
(I-57
I500
tp1416
Rp1417
(dp1418
bg16
tp1419
Rp1420
(dp1421
bg8
(g4
(I-361
I1000000
tp1422
Rp1423
(dp1424
bg47
tp1425
Rp1426
(dp1427
btp1428
Rp1429
(dp1430
bg182
tp1431
Rp1432
(dp1433
bag2
(g457
g182
tp1434
Rp1435
(dp1436
bag190
(g16
g182
tp1437
Rp1438
(dp1439
bag2
(g276
g182
tp1440
Rp1441
(dp1442
bag190
(g321
g182
tp1443
Rp1444
(dp1445
bag190
(g330
g182
tp1446
Rp1447
(dp1448
bag2
(g372
g182
tp1449
Rp1450
(dp1451
bag2
(g381
g182
tp1452
Rp1453
(dp1454
bag386
(g394
g182
tp1455
Rp1456
(dp1457
bag2
(g403
g182
tp1458
Rp1459
(dp1460
ba(lp1461
g190
(g410
g182
tp1462
Rp1463
(dp1464
batp1465
a((lp1466
g2
(g3
(g110
g8
(g4
(I57
I500
tp1467
Rp1468
(dp1469
bg16
tp1470
Rp1471
(dp1472
bg8
(g4
(I361
I1000000
tp1473
Rp1474
(dp1475
bg47
tp1476
Rp1477
(dp1478
btp1479
Rp1480
(dp1481
bg182
tp1482
Rp1483
(dp1484
bag2
(g457
g182
tp1485
Rp1486
(dp1487
bag190
(g16
g182
tp1488
Rp1489
(dp1490
bag2
(g276
g182
tp1491
Rp1492
(dp1493
bag190
(g321
g182
tp1494
Rp1495
(dp1496
bag190
(g330
g182
tp1497
Rp1498
(dp1499
bag2
(g372
g182
tp1500
Rp1501
(dp1502
bag2
(g381
g182
tp1503
Rp1504
(dp1505
bag386
(g394
g182
tp1506
Rp1507
(dp1508
bag2
(g403
g182
tp1509
Rp1510
(dp1511
ba(lp1512
g190
(g410
g182
tp1513
Rp1514
(dp1515
batp1516
a((lp1517
g2
(g372
g182
tp1518
Rp1519
(dp1520
bag2
(g457
g182
tp1521
Rp1522
(dp1523
bag190
(g16
g182
tp1524
Rp1525
(dp1526
bag2
(g276
g182
tp1527
Rp1528
(dp1529
bag190
(g321
g182
tp1530
Rp1531
(dp1532
bag190
(g330
g182
tp1533
Rp1534
(dp1535
bag2
(g372
g182
tp1536
Rp1537
(dp1538
bag2
(g381
g182
tp1539
Rp1540
(dp1541
bag386
(g394
g182
tp1542
Rp1543
(dp1544
bag2
(g403
g182
tp1545
Rp1546
(dp1547
ba(lp1548
g190
(g410
g182
tp1549
Rp1550
(dp1551
batp1552
a((lp1553
g2
(g231
g182
tp1554
Rp1555
(dp1556
bag2
(g457
g182
tp1557
Rp1558
(dp1559
bag190
(g16
g182
tp1560
Rp1561
(dp1562
bag2
(g276
g182
tp1563
Rp1564
(dp1565
bag190
(g321
g182
tp1566
Rp1567
(dp1568
bag190
(g330
g182
tp1569
Rp1570
(dp1571
bag2
(g372
g182
tp1572
Rp1573
(dp1574
bag2
(g381
g182
tp1575
Rp1576
(dp1577
bag386
(g394
g182
tp1578
Rp1579
(dp1580
bag2
(g403
g182
tp1581
Rp1582
(dp1583
ba(lp1584
g190
(g410
g182
tp1585
Rp1586
(dp1587
batp1588
a((lp1589
g2
(g3
(g4
(L113728183861248L
I125
tp1590
Rp1591
(dp1592
bg8
(g4
(L-2682926482990077L
L36379788070917129516601562500000000000000000000L
tp1593
Rp1594
(dp1595
bg77
tp1596
Rp1597
(dp1598
bg8
(g4
(L668981650887L
L14551915228366851806640625000000000000000000000000000000000L
tp1599
Rp1600
(dp1601
bg12
(g16
g42
(I14
tp1602
Rp1603
(dp1604
btp1605
Rp1606
(dp1607
btp1608
Rp1609
(dp1610
bg8
(g4
(L-278987247489908736L
I390625
tp1611
Rp1612
(dp1613
bg16
tp1614
Rp1615
(dp1616
bg8
(g4
(L3612953956373451L
L3637978807091712951660156250000000000000000000000000L
tp1617
Rp1618
(dp1619
bg113
tp1620
Rp1621
(dp1622
bg8
(g4
(L5958523898693217L
L1455191522836685180664062500000000000000000L
tp1623
Rp1624
(dp1625
bg137
tp1626
Rp1627
(dp1628
bg8
(g4
(L427281051458808L
L116415321826934814453125L
tp1629
Rp1630
(dp1631
bg89
tp1632
Rp1633
(dp1634
bg8
(g4
(L-82965616080876601344L
L3814697265625L
tp1635
Rp1636
(dp1637
bg161
tp1638
Rp1639
(dp1640
bg8
(g4
(L3559463150366781L
L582076609134674072265625000000000L
tp1641
Rp1642
(dp1643
bg101
tp1644
Rp1645
(dp1646
bg8
(g4
(L-5164912679546799L
L29103830456733703613281250000000000000L
tp1647
Rp1648
(dp1649
bg173
tp1650
Rp1651
(dp1652
bg8
(g4
(L-2305052460338112L
L37252902984619140625L
tp1653
Rp1654
(dp1655
bg125
tp1656
Rp1657
(dp1658
bg8
(g4
(L-66791142968679L
L7275957614183425903320312500000000000000000000000000000L
tp1659
Rp1660
(dp1661
bg12
(g16
g42
(I13
tp1662
Rp1663
(dp1664
btp1665
Rp1666
(dp1667
btp1668
Rp1669
(dp1670
bg8
(g4
(L-244905887660571L
L1455191522836685180664062500L
tp1671
Rp1672
(dp1673
bg149
tp1674
Rp1675
(dp1676
bg8
(g4
(L-8350580314143719424L
I1220703125
tp1677
Rp1678
(dp1679
bg47
tp1680
Rp1681
(dp1682
bg8
(g4
(L9157891644048384L
L11920928955078125L
tp1683
Rp1684
(dp1685
bg59
tp1686
Rp1687
(dp1688
btp1689
Rp1690
(dp1691
bg182
tp1692
Rp1693
(dp1694
bag190
(g1480
g182
tp1695
Rp1696
(dp1697
bag2
(g457
g182
tp1698
Rp1699
(dp1700
bag190
(g16
g182
tp1701
Rp1702
(dp1703
bag2
(g276
g182
tp1704
Rp1705
(dp1706
bag190
(g321
g182
tp1707
Rp1708
(dp1709
bag190
(g330
g182
tp1710
Rp1711
(dp1712
bag2
(g372
g182
tp1713
Rp1714
(dp1715
bag2
(g381
g182
tp1716
Rp1717
(dp1718
bag386
(g394
g182
tp1719
Rp1720
(dp1721
bag2
(g403
g182
tp1722
Rp1723
(dp1724
ba(lp1725
g190
(g410
g182
tp1726
Rp1727
(dp1728
batp1729
a.