(lp0
((lp1
csympy.core.relational
LessThan
p2
(csympy.core.power
Pow
p3
(csympy.core.symbol
Symbol
p4
(S'x'
p5
tp6
Rp7
(dp8
S'_assumptions'
p9
ccopy_reg
_reconstructor
p10
(csympy.core.assumptions
StdFactKB
p11
c__builtin__
dict
p12
(dp13
S'real'
p14
NsS'irrational'
p15
NsS'antihermitian'
p16
NsS'nonpositive'
p17
NsS'unbounded'
p18
NsS'negative'
p19
NsS'hermitian'
p20
NsS'bounded'
p21
NsS'integer'
p22
NsS'imaginary'
p23
NsS'odd'
p24
NsS'even'
p25
NsS'commutative'
p26
I01
sS'positive'
p27
NsS'zero'
p28
NsS'nonnegative'
p29
NsS'rational'
p30
Nstp31
Rp32
sbcsympy.core.numbers
Integer
p33
(I2
tp34
Rp35
(dp36
btp37
Rp38
(dp39
bcsympy.core.numbers
Zero
p40
(tRp41
(dp42
btp43
Rp44
(dp45
bag2
(csympy.core.add
Add
p46
(csympy.core.mul
Mul
p47
(g33
(I3
tp48
Rp49
(dp50
bg38
tp51
Rp52
(dp53
bg47
(g49
g7
tp54
Rp55
(dp56
bg47
(csympy.core.numbers
Rational
p57
(I-1
I6
tp58
Rp59
(dp60
bg3
(g7
g33
(I8
tp61
Rp62
(dp63
btp64
Rp65
(dp66
btp67
Rp68
(dp69
btp70
Rp71
(dp72
bg41
tp73
Rp74
(dp75
bacsympy.core.relational
StrictGreaterThan
p76
(g46
(g47
(g33
(I-3
tp77
Rp78
(dp79
bg7
tp80
Rp81
(dp82
bg47
(g78
g38
tp83
Rp84
(dp85
bg47
(g57
(I1
I6
tp86
Rp87
(dp88
bg65
tp89
Rp90
(dp91
btp92
Rp93
(dp94
bg41
tp95
Rp96
(dp97
bag2
(g47
(csympy.core.numbers
NegativeOne
p98
(tRp99
(dp100
bg38
tp101
Rp102
(dp103
bg41
tp104
Rp105
(dp106
bag76
(g38
g41
tp107
Rp108
(dp109
bacsympy.core.relational
Equality
p110
(g46
(g78
g38
tp111
Rp112
(dp113
bg41
tp114
Rp115
(dp116
bag2
(g46
(g99
g7
tp117
Rp118
(dp119
bg41
tp120
Rp121
(dp122
bag2
(g47
(g99
g7
tp123
Rp124
(dp125
bg41
tp126
Rp127
(dp128
bag2
(g124
g41
tp129
Rp130
(dp131
bag76
(g7
g41
tp132
Rp133
(dp134
bag76
(g46
(g52
g55
tp135
Rp136
(dp137
bg41
tp138
Rp139
(dp140
ba(lp141
g76
(g46
(g81
g84
tp142
Rp143
(dp144
bg41
tp145
Rp146
(dp147
batp148
a((lp149
g2
(g38
g41
tp150
Rp151
(dp152
bag76
(g71
g41
tp153
Rp154
(dp155
bag2
(g102
g41
tp156
Rp157
(dp158
bag76
(g38
g41
tp159
Rp160
(dp161
bag110
(g112
g41
tp162
Rp163
(dp164
bag2
(g118
g41
tp165
Rp166
(dp167
bag2
(g124
g41
tp168
Rp169
(dp170
bag2
(g124
g41
tp171
Rp172
(dp173
bag76
(g7
g41
tp174
Rp175
(dp176
bag76
(g136
g41
tp177
Rp178
(dp179
ba(lp180
g76
(g143
g41
tp181
Rp182
(dp183
batp184
a((lp185
g2
(g71
g41
tp186
Rp187
(dp188
bag76
(g38
g41
tp189
Rp190
(dp191
bag2
(g102
g41
tp192
Rp193
(dp194
bag76
(g38
g41
tp195
Rp196
(dp197
bag110
(g112
g41
tp198
Rp199
(dp200
bag2
(g118
g41
tp201
Rp202
(dp203
bag2
(g124
g41
tp204
Rp205
(dp206
bag2
(g124
g41
tp207
Rp208
(dp209
bag76
(g7
g41
tp210
Rp211
(dp212
bag76
(g136
g41
tp213
Rp214
(dp215
ba(lp216
g76
(g143
g41
tp217
Rp218
(dp219
batp220
a((lp221
g2
(g38
g41
tp222
Rp223
(dp224
bag2
(g93
g41
tp225
Rp226
(dp227
bag2
(g102
g41
tp228
Rp229
(dp230
bag76
(g38
g41
tp231
Rp232
(dp233
bag110
(g112
g41
tp234
Rp235
(dp236
bag2
(g118
g41
tp237
Rp238
(dp239
bag2
(g124
g41
tp240
Rp241
(dp242
bag2
(g124
g41
tp243
Rp244
(dp245
bag76
(g7
g41
tp246
Rp247
(dp248
bag76
(g136
g41
tp249
Rp250
(dp251
ba(lp252
g76
(g143
g41
tp253
Rp254
(dp255
batp256
a((lp257
g76
(g38
g41
tp258
Rp259
(dp260
bag76
(g93
g41
tp261
Rp262
(dp263
bag2
(g102
g41
tp264
Rp265
(dp266
bag76
(g38
g41
tp267
Rp268
(dp269
bag110
(g112
g41
tp270
Rp271
(dp272
bag2
(g118
g41
tp273
Rp274
(dp275
bag2
(g124
g41
tp276
Rp277
(dp278
bag2
(g124
g41
tp279
Rp280
(dp281
bag76
(g7
g41
tp282
Rp283
(dp284
bag76
(g136
g41
tp285
Rp286
(dp287
ba(lp288
g76
(g143
g41
tp289
Rp290
(dp291
batp292
a((lp293
g2
(g38
g41
tp294
Rp295
(dp296
bag2
(g71
g41
tp297
Rp298
(dp299
bag2
(g102
g41
tp300
Rp301
(dp302
bag76
(g38
g41
tp303
Rp304
(dp305
bag110
(g112
g41
tp306
Rp307
(dp308
bag2
(g118
g41
tp309
Rp310
(dp311
bag2
(g124
g41
tp312
Rp313
(dp314
bag2
(g124
g41
tp315
Rp316
(dp317
bag76
(g7
g41
tp318
Rp319
(dp320
bag76
(g136
g41
tp321
Rp322
(dp323
ba(lp324
g76
(g143
g41
tp325
Rp326
(dp327
batp328
a((lp329
g76
(g46
(g33
(I2304
tp330
Rp331
(dp332
bg47
(g33
(I384
tp333
Rp334
(dp335
bg3
(g7
g49
tp336
Rp337
(dp338
btp339
Rp340
(dp341
bg47
(g331
g7
tp342
Rp343
(dp344
bg3
(g7
g33
(I6
tp345
Rp346
(dp347
btp348
Rp349
(dp350
bg47
(g33
(I1152
tp351
Rp352
(dp353
bg38
tp354
Rp355
(dp356
bg47
(g33
(I12
tp357
Rp358
(dp359
bg3
(g7
g33
(I5
tp360
Rp361
(dp362
btp363
Rp364
(dp365
btp366
Rp367
(dp368
bg47
(g33
(I84
tp369
Rp370
(dp371
bg3
(g7
g33
(I4
tp372
Rp373
(dp374
btp375
Rp376
(dp377
btp378
Rp379
(dp380
btp381
Rp382
(dp383
bg41
tp384
Rp385
(dp386
bag76
(g46
(g33
(I-2304
tp387
Rp388
(dp389
bg47
(g33
(I-384
tp390
Rp391
(dp392
bg337
tp393
Rp394
(dp395
bg47
(g33
(I-84
tp396
Rp397
(dp398
bg376
tp399
Rp400
(dp401
bg355
g47
(g99
g349
tp402
Rp403
(dp404
bg47
(g33
(I-12
tp405
Rp406
(dp407
bg364
tp408
Rp409
(dp410
bg47
(g388
g7
tp411
Rp412
(dp413
btp414
Rp415
(dp416
bg41
tp417
Rp418
(dp419
bag2
(g84
g41
tp420
Rp421
(dp422
bag2
(g102
g41
tp423
Rp424
(dp425
bag76
(g52
g41
tp426
Rp427
(dp428
bag2
(g124
g41
tp429
Rp430
(dp431
bag2
(g124
g41
tp432
Rp433
(dp434
bag2
(g118
g41
tp435
Rp436
(dp437
bag110
(g112
g41
tp438
Rp439
(dp440
bag76
(g38
g41
tp441
Rp442
(dp443
ba(lp444
g76
(g102
g41
tp445
Rp446
(dp447
batp448
a((lp449
g76
(g382
g41
tp450
Rp451
(dp452
bag76
(g415
g41
tp453
Rp454
(dp455
bag2
(g84
g41
tp456
Rp457
(dp458
bag2
(g102
g41
tp459
Rp460
(dp461
bag76
(g52
g41
tp462
Rp463
(dp464
bag76
(g102
g41
tp465
Rp466
(dp467
bag2
(g38
g41
tp468
Rp469
(dp470
bag110
(g112
g41
tp471
Rp472
(dp473
bag2
(g118
g41
tp474
Rp475
(dp476
bag2
(g124
g41
tp477
Rp478
(dp479
ba(lp480
g76
(g124
g41
tp481
Rp482
(dp483
batp484
a.