(lp0
((lp1
csympy.core.relational
LessThan
p2
(csympy.core.power
Pow
p3
(csympy.core.symbol
Symbol
p4
(S'x'
p5
tp6
Rp7
(dp8
S'_assumptions'
p9
ccopy_reg
_reconstructor
p10
(csympy.core.assumptions
StdFactKB
p11
c__builtin__
dict
p12
(dp13
S'real'
p14
NsS'irrational'
p15
NsS'antihermitian'
p16
NsS'nonpositive'
p17
NsS'unbounded'
p18
NsS'negative'
p19
NsS'hermitian'
p20
NsS'bounded'
p21
NsS'integer'
p22
NsS'imaginary'
p23
NsS'odd'
p24
NsS'even'
p25
NsS'commutative'
p26
I01
sS'positive'
p27
NsS'zero'
p28
NsS'nonnegative'
p29
NsS'rational'
p30
Nstp31
Rp32
sbcsympy.core.numbers
Integer
p33
(I2
tp34
Rp35
(dp36
btp37
Rp38
(dp39
bcsympy.core.numbers
Zero
p40
(tRp41
(dp42
btp43
Rp44
(dp45
bag2
(csympy.core.add
Add
p46
(csympy.core.mul
Mul
p47
(csympy.core.numbers
NegativeOne
p48
(tRp49
(dp50
bg3
(g7
g33
(I4
tp51
Rp52
(dp53
btp54
Rp55
(dp56
btp57
Rp58
(dp59
bg47
(g49
g3
(g7
g33
(I3
tp60
Rp61
(dp62
btp63
Rp64
(dp65
btp66
Rp67
(dp68
btp69
Rp70
(dp71
bg41
tp72
Rp73
(dp74
bacsympy.core.relational
StrictGreaterThan
p75
(g46
(g64
g55
tp76
Rp77
(dp78
bg41
tp79
Rp80
(dp81
bag75
(g77
g41
tp82
Rp83
(dp84
bag2
(g67
g41
tp85
Rp86
(dp87
bag75
(g64
g41
tp88
Rp89
(dp90
bag2
(g47
(g49
g38
tp91
Rp92
(dp93
bg41
tp94
Rp95
(dp96
bag75
(g38
g41
tp97
Rp98
(dp99
bag2
(g46
(g49
g7
tp100
Rp101
(dp102
bg41
tp103
Rp104
(dp105
bag2
(g47
(g49
g7
tp106
Rp107
(dp108
bg41
tp109
Rp110
(dp111
ba(lp112
g75
(g107
g41
tp113
Rp114
(dp115
batp116
a((lp117
g75
(g38
g41
tp118
Rp119
(dp120
bag2
(g70
g41
tp121
Rp122
(dp123
bag75
(g38
g41
tp124
Rp125
(dp126
bag75
(g77
g41
tp127
Rp128
(dp129
bag2
(g67
g41
tp130
Rp131
(dp132
bag75
(g64
g41
tp133
Rp134
(dp135
bag2
(g92
g41
tp136
Rp137
(dp138
bag75
(g38
g41
tp139
Rp140
(dp141
bag2
(g101
g41
tp142
Rp143
(dp144
bag2
(g107
g41
tp145
Rp146
(dp147
ba(lp148
g75
(g107
g41
tp149
Rp150
(dp151
batp152
a((lp153
g75
(g38
g41
tp154
Rp155
(dp156
bag2
(g107
g41
tp157
Rp158
(dp159
bag2
(g107
g41
tp160
Rp161
(dp162
bag2
(g101
g41
tp163
Rp164
(dp165
bag75
(g38
g41
tp166
Rp167
(dp168
bag2
(g92
g41
tp169
Rp170
(dp171
bag75
(g64
g41
tp172
Rp173
(dp174
bag2
(g67
g41
tp175
Rp176
(dp177
bag75
(g77
g41
tp178
Rp179
(dp180
bag75
(g38
g41
tp181
Rp182
(dp183
ba(lp184
g75
(g70
g41
tp185
Rp186
(dp187
batp188
a((lp189
g2
(g38
g41
tp190
Rp191
(dp192
bag2
(g46
(g58
g67
g47
(csympy.core.numbers
Rational
p193
(I1
I6
tp194
Rp195
(dp196
bg3
(g7
g33
(I8
tp197
Rp198
(dp199
btp200
Rp201
(dp202
btp203
Rp204
(dp205
btp206
Rp207
(dp208
bg41
tp209
Rp210
(dp211
bag2
(g107
g41
tp212
Rp213
(dp214
bag2
(g107
g41
tp215
Rp216
(dp217
bag2
(g101
g41
tp218
Rp219
(dp220
bag75
(g38
g41
tp221
Rp222
(dp223
bag2
(g92
g41
tp224
Rp225
(dp226
bag75
(g64
g41
tp227
Rp228
(dp229
bag2
(g67
g41
tp230
Rp231
(dp232
bag75
(g77
g41
tp233
Rp234
(dp235
bag75
(g38
g41
tp236
Rp237
(dp238
ba(lp239
g75
(g70
g41
tp240
Rp241
(dp242
batp243
a((lp244
g75
(g38
g41
tp245
Rp246
(dp247
bag75
(g207
g41
tp248
Rp249
(dp250
bag2
(g107
g41
tp251
Rp252
(dp253
bag2
(g107
g41
tp254
Rp255
(dp256
bag2
(g101
g41
tp257
Rp258
(dp259
bag75
(g38
g41
tp260
Rp261
(dp262
bag2
(g92
g41
tp263
Rp264
(dp265
bag75
(g64
g41
tp266
Rp267
(dp268
bag2
(g67
g41
tp269
Rp270
(dp271
bag75
(g77
g41
tp272
Rp273
(dp274
bag75
(g38
g41
tp275
Rp276
(dp277
ba(lp278
g75
(g70
g41
tp279
Rp280
(dp281
batp282
a((lp283
g2
(g38
g41
tp284
Rp285
(dp286
bag2
(g46
(g64
g55
g47
(g193
(I-1
I6
tp287
Rp288
(dp289
bg201
tp290
Rp291
(dp292
btp293
Rp294
(dp295
bg41
tp296
Rp297
(dp298
bag2
(g107
g41
tp299
Rp300
(dp301
bag2
(g107
g41
tp302
Rp303
(dp304
bag2
(g101
g41
tp305
Rp306
(dp307
bag75
(g38
g41
tp308
Rp309
(dp310
bag2
(g92
g41
tp311
Rp312
(dp313
bag75
(g64
g41
tp314
Rp315
(dp316
bag2
(g67
g41
tp317
Rp318
(dp319
bag75
(g77
g41
tp320
Rp321
(dp322
bag75
(g38
g41
tp323
Rp324
(dp325
ba(lp326
g75
(g70
g41
tp327
Rp328
(dp329
batp330
a((lp331
g2
(g92
g41
tp332
Rp333
(dp334
bag2
(g38
g41
tp335
Rp336
(dp337
bag2
(g294
g41
tp338
Rp339
(dp340
bag75
(g207
g41
tp341
Rp342
(dp343
bag2
(g107
g41
tp344
Rp345
(dp346
bag2
(g107
g41
tp347
Rp348
(dp349
bag2
(g101
g41
tp350
Rp351
(dp352
bag75
(g38
g41
tp353
Rp354
(dp355
bag2
(g92
g41
tp356
Rp357
(dp358
bag75
(g64
g41
tp359
Rp360
(dp361
bag2
(g67
g41
tp362
Rp363
(dp364
bag75
(g77
g41
tp365
Rp366
(dp367
bag75
(g38
g41
tp368
Rp369
(dp370
ba(lp371
g75
(g70
g41
tp372
Rp373
(dp374
batp375
a((lp376
g2
(g92
g41
tp377
Rp378
(dp379
bag2
(g38
g41
tp380
Rp381
(dp382
bag75
(g294
g41
tp383
Rp384
(dp385
bag2
(g107
g41
tp386
Rp387
(dp388
bag2
(g107
g41
tp389
Rp390
(dp391
bag2
(g101
g41
tp392
Rp393
(dp394
bag75
(g38
g41
tp395
Rp396
(dp397
bag2
(g92
g41
tp398
Rp399
(dp400
bag75
(g64
g41
tp401
Rp402
(dp403
bag2
(g67
g41
tp404
Rp405
(dp406
bag75
(g77
g41
tp407
Rp408
(dp409
bag75
(g38
g41
tp410
Rp411
(dp412
ba(lp413
g75
(g70
g41
tp414
Rp415
(dp416
batp417
a((lp418
g2
(g294
g41
tp419
Rp420
(dp421
bag75
(g38
g41
tp422
Rp423
(dp424
bag2
(g107
g41
tp425
Rp426
(dp427
bag2
(g107
g41
tp428
Rp429
(dp430
bag2
(g101
g41
tp431
Rp432
(dp433
bag75
(g38
g41
tp434
Rp435
(dp436
bag2
(g92
g41
tp437
Rp438
(dp439
bag75
(g64
g41
tp440
Rp441
(dp442
bag2
(g67
g41
tp443
Rp444
(dp445
bag75
(g77
g41
tp446
Rp447
(dp448
bag75
(g38
g41
tp449
Rp450
(dp451
ba(lp452
g75
(g70
g41
tp453
Rp454
(dp455
batp456
a.