(lp0
((lp1
csympy.core.relational
LessThan
p2
(csympy.core.symbol
Symbol
p3
(S'x'
p4
tp5
Rp6
(dp7
S'_assumptions'
p8
ccopy_reg
_reconstructor
p9
(csympy.core.assumptions
StdFactKB
p10
c__builtin__
dict
p11
(dp12
S'real'
p13
NsS'irrational'
p14
NsS'antihermitian'
p15
NsS'nonpositive'
p16
NsS'unbounded'
p17
NsS'negative'
p18
NsS'hermitian'
p19
NsS'bounded'
p20
NsS'integer'
p21
NsS'imaginary'
p22
NsS'odd'
p23
NsS'even'
p24
NsS'commutative'
p25
I01
sS'positive'
p26
NsS'zero'
p27
NsS'nonnegative'
p28
NsS'rational'
p29
Nstp30
Rp31
sbcsympy.core.numbers
Zero
p32
(tRp33
(dp34
btp35
Rp36
(dp37
bag2
(csympy.core.add
Add
p38
(csympy.core.numbers
NegativeOne
p39
(tRp40
(dp41
bcsympy.core.mul
Mul
p42
(csympy.core.numbers
Rational
p43
(I-1
I4
tp44
Rp45
(dp46
bcsympy.core.power
Pow
p47
(g6
csympy.core.numbers
Integer
p48
(I2
tp49
Rp50
(dp51
btp52
Rp53
(dp54
btp55
Rp56
(dp57
bg6
tp58
Rp59
(dp60
bg33
tp61
Rp62
(dp63
bag2
(g56
g33
tp64
Rp65
(dp66
bag2
(g38
(g43
(I-1
I32
tp67
Rp68
(dp69
bg6
tp70
Rp71
(dp72
bg33
tp73
Rp74
(dp75
bag2
(g38
(g43
(I-1
L85070591730234615865843651857942052864L
tp76
Rp77
(dp78
bg6
tp79
Rp80
(dp81
bg33
tp82
Rp83
(dp84
bag2
(g38
(g68
g42
(g40
g6
tp85
Rp86
(dp87
btp88
Rp89
(dp90
bg33
tp91
Rp92
(dp93
bag2
(g38
(g43
(I-1
L85070591730234615865843651857942052864L
tp94
Rp95
(dp96
bg86
tp97
Rp98
(dp99
bg33
tp100
Rp101
(dp102
bag2
(g38
(g48
(I-2
tp103
Rp104
(dp105
bg6
tp106
Rp107
(dp108
bg33
tp109
Rp110
(dp111
bag2
(g38
(g48
(I-3
tp112
Rp113
(dp114
bg6
tp115
Rp116
(dp117
bg33
tp118
Rp119
(dp120
bag2
(g38
(csympy.core.numbers
Half
p121
(tRp122
(dp123
bg86
tp124
Rp125
(dp126
bg33
tp127
Rp128
(dp129
ba(lp130
csympy.core.relational
StrictGreaterThan
p131
(g86
g33
tp132
Rp133
(dp134
batp135
a((lp136
g2
(g38
(g42
(g48
(I3
tp137
Rp138
(dp139
bg53
tp140
Rp141
(dp142
bg42
(g122
g6
tp143
Rp144
(dp145
bg42
(g43
(I3
I2
tp146
Rp147
(dp148
bg47
(g6
g48
(I4
tp149
Rp150
(dp151
btp152
Rp153
(dp154
btp155
Rp156
(dp157
bg42
(g150
g47
(g6
g138
tp158
Rp159
(dp160
btp161
Rp162
(dp163
btp164
Rp165
(dp166
bg33
tp167
Rp168
(dp169
bag131
(g6
g33
tp170
Rp171
(dp172
bag2
(g59
g33
tp173
Rp174
(dp175
bag2
(g56
g33
tp176
Rp177
(dp178
bag2
(g71
g33
tp179
Rp180
(dp181
bag2
(g80
g33
tp182
Rp183
(dp184
bag2
(g89
g33
tp185
Rp186
(dp187
bag2
(g98
g33
tp188
Rp189
(dp190
bag2
(g107
g33
tp191
Rp192
(dp193
bag2
(g116
g33
tp194
Rp195
(dp196
bag2
(g125
g33
tp197
Rp198
(dp199
ba(lp200
g131
(g86
g33
tp201
Rp202
(dp203
batp204
a((lp205
g2
(g6
g33
tp206
Rp207
(dp208
bag131
(g165
g33
tp209
Rp210
(dp211
bag2
(g59
g33
tp212
Rp213
(dp214
bag2
(g56
g33
tp215
Rp216
(dp217
bag2
(g71
g33
tp218
Rp219
(dp220
bag2
(g80
g33
tp221
Rp222
(dp223
bag2
(g89
g33
tp224
Rp225
(dp226
bag2
(g98
g33
tp227
Rp228
(dp229
bag2
(g107
g33
tp230
Rp231
(dp232
bag2
(g116
g33
tp233
Rp234
(dp235
bag2
(g125
g33
tp236
Rp237
(dp238
ba(lp239
g131
(g86
g33
tp240
Rp241
(dp242
batp243
a((lp244
g2
(g165
g33
tp245
Rp246
(dp247
bag2
(g59
g33
tp248
Rp249
(dp250
bag2
(g56
g33
tp251
Rp252
(dp253
bag2
(g71
g33
tp254
Rp255
(dp256
bag2
(g80
g33
tp257
Rp258
(dp259
bag2
(g89
g33
tp260
Rp261
(dp262
bag2
(g98
g33
tp263
Rp264
(dp265
bag2
(g107
g33
tp266
Rp267
(dp268
bag2
(g116
g33
tp269
Rp270
(dp271
bag2
(g125
g33
tp272
Rp273
(dp274
ba(lp275
g131
(g86
g33
tp276
Rp277
(dp278
batp279
a((lp280
g2
(g165
g33
tp281
Rp282
(dp283
bag2
(g165
g33
tp284
Rp285
(dp286
bag2
(g59
g33
tp287
Rp288
(dp289
bag2
(g56
g33
tp290
Rp291
(dp292
bag2
(g71
g33
tp293
Rp294
(dp295
bag2
(g80
g33
tp296
Rp297
(dp298
bag2
(g89
g33
tp299
Rp300
(dp301
bag2
(g98
g33
tp302
Rp303
(dp304
bag2
(g107
g33
tp305
Rp306
(dp307
bag2
(g116
g33
tp308
Rp309
(dp310
bag2
(g125
g33
tp311
Rp312
(dp313
ba(lp314
g131
(g86
g33
tp315
Rp316
(dp317
batp318
a((lp319
g2
(g165
g33
tp320
Rp321
(dp322
bag2
(g165
g33
tp323
Rp324
(dp325
bag2
(g59
g33
tp326
Rp327
(dp328
bag2
(g56
g33
tp329
Rp330
(dp331
bag2
(g71
g33
tp332
Rp333
(dp334
bag2
(g80
g33
tp335
Rp336
(dp337
bag2
(g89
g33
tp338
Rp339
(dp340
bag2
(g98
g33
tp341
Rp342
(dp343
bag2
(g107
g33
tp344
Rp345
(dp346
bag2
(g116
g33
tp347
Rp348
(dp349
bag2
(g125
g33
tp350
Rp351
(dp352
ba(lp353
g131
(g86
g33
tp354
Rp355
(dp356
batp357
a((lp358
g2
(g165
g33
tp359
Rp360
(dp361
bag131
(g6
g33
tp362
Rp363
(dp364
bag2
(g165
g33
tp365
Rp366
(dp367
bag2
(g59
g33
tp368
Rp369
(dp370
bag2
(g56
g33
tp371
Rp372
(dp373
bag2
(g71
g33
tp374
Rp375
(dp376
bag2
(g80
g33
tp377
Rp378
(dp379
bag2
(g89
g33
tp380
Rp381
(dp382
bag2
(g98
g33
tp383
Rp384
(dp385
bag2
(g107
g33
tp386
Rp387
(dp388
bag2
(g116
g33
tp389
Rp390
(dp391
bag2
(g125
g33
tp392
Rp393
(dp394
ba(lp395
g131
(g86
g33
tp396
Rp397
(dp398
batp399
a((lp400
g2
(g38
(g42
(g43
(I-3
I2
tp401
Rp402
(dp403
bg153
tp404
Rp405
(dp406
bg42
(g43
(I-1
I2
tp407
Rp408
(dp409
bg6
tp410
Rp411
(dp412
bg42
(g48
(I-4
tp413
Rp414
(dp415
bg159
tp416
Rp417
(dp418
bg42
(g113
g53
tp419
Rp420
(dp421
btp422
Rp423
(dp424
bg33
tp425
Rp426
(dp427
bag131
(g6
g33
tp428
Rp429
(dp430
bag2
(g165
g33
tp431
Rp432
(dp433
bag2
(g59
g33
tp434
Rp435
(dp436
bag2
(g56
g33
tp437
Rp438
(dp439
bag2
(g71
g33
tp440
Rp441
(dp442
bag2
(g80
g33
tp443
Rp444
(dp445
bag2
(g89
g33
tp446
Rp447
(dp448
bag2
(g98
g33
tp449
Rp450
(dp451
bag2
(g107
g33
tp452
Rp453
(dp454
bag2
(g116
g33
tp455
Rp456
(dp457
bag2
(g125
g33
tp458
Rp459
(dp460
ba(lp461
g131
(g86
g33
tp462
Rp463
(dp464
batp465
a((lp466
g2
(g6
g33
tp467
Rp468
(dp469
bag131
(g423
g33
tp470
Rp471
(dp472
bag2
(g165
g33
tp473
Rp474
(dp475
bag2
(g59
g33
tp476
Rp477
(dp478
bag2
(g56
g33
tp479
Rp480
(dp481
bag2
(g71
g33
tp482
Rp483
(dp484
bag2
(g80
g33
tp485
Rp486
(dp487
bag2
(g89
g33
tp488
Rp489
(dp490
bag2
(g98
g33
tp491
Rp492
(dp493
bag2
(g107
g33
tp494
Rp495
(dp496
bag2
(g116
g33
tp497
Rp498
(dp499
bag2
(g125
g33
tp500
Rp501
(dp502
ba(lp503
g131
(g86
g33
tp504
Rp505
(dp506
batp507
a((lp508
g2
(g423
g33
tp509
Rp510
(dp511
bag2
(g165
g33
tp512
Rp513
(dp514
bag2
(g59
g33
tp515
Rp516
(dp517
bag2
(g56
g33
tp518
Rp519
(dp520
bag2
(g71
g33
tp521
Rp522
(dp523
bag2
(g80
g33
tp524
Rp525
(dp526
bag2
(g89
g33
tp527
Rp528
(dp529
bag2
(g98
g33
tp530
Rp531
(dp532
bag2
(g107
g33
tp533
Rp534
(dp535
bag2
(g116
g33
tp536
Rp537
(dp538
bag2
(g125
g33
tp539
Rp540
(dp541
ba(lp542
g131
(g86
g33
tp543
Rp544
(dp545
batp546
a((lp547
g2
(g423
g33
tp548
Rp549
(dp550
bag131
(g6
g33
tp551
Rp552
(dp553
bag2
(g423
g33
tp554
Rp555
(dp556
bag2
(g165
g33
tp557
Rp558
(dp559
bag2
(g59
g33
tp560
Rp561
(dp562
bag2
(g56
g33
tp563
Rp564
(dp565
bag2
(g71
g33
tp566
Rp567
(dp568
bag2
(g80
g33
tp569
Rp570
(dp571
bag2
(g89
g33
tp572
Rp573
(dp574
bag2
(g98
g33
tp575
Rp576
(dp577
bag2
(g107
g33
tp578
Rp579
(dp580
bag2
(g116
g33
tp581
Rp582
(dp583
bag2
(g125
g33
tp584
Rp585
(dp586
ba(lp587
g131
(g86
g33
tp588
Rp589
(dp590
batp591
a((lp592
g2
(g423
g33
tp593
Rp594
(dp595
bag2
(g423
g33
tp596
Rp597
(dp598
bag2
(g165
g33
tp599
Rp600
(dp601
bag2
(g59
g33
tp602
Rp603
(dp604
bag2
(g56
g33
tp605
Rp606
(dp607
bag2
(g71
g33
tp608
Rp609
(dp610
bag2
(g80
g33
tp611
Rp612
(dp613
bag2
(g89
g33
tp614
Rp615
(dp616
bag2
(g98
g33
tp617
Rp618
(dp619
bag2
(g107
g33
tp620
Rp621
(dp622
bag2
(g116
g33
tp623
Rp624
(dp625
bag2
(g125
g33
tp626
Rp627
(dp628
ba(lp629
g131
(g86
g33
tp630
Rp631
(dp632
batp633
a((lp634
g2
(g86
g33
tp635
Rp636
(dp637
bag131
(g38
(csympy.core.numbers
One
p638
(tRp639
(dp640
bg42
(g43
(I-9
I7
tp641
Rp642
(dp643
bg6
tp644
Rp645
(dp646
btp647
Rp648
(dp649
bg33
tp650
Rp651
(dp652
bag2
(g423
g33
tp653
Rp654
(dp655
bag2
(g165
g33
tp656
Rp657
(dp658
bag2
(g59
g33
tp659
Rp660
(dp661
bag2
(g56
g33
tp662
Rp663
(dp664
bag2
(g71
g33
tp665
Rp666
(dp667
bag2
(g80
g33
tp668
Rp669
(dp670
bag2
(g89
g33
tp671
Rp672
(dp673
bag2
(g98
g33
tp674
Rp675
(dp676
bag2
(g107
g33
tp677
Rp678
(dp679
bag2
(g116
g33
tp680
Rp681
(dp682
bag2
(g125
g33
tp683
Rp684
(dp685
ba(lp686
g131
(g86
g33
tp687
Rp688
(dp689
batp690
a.