(lp0
((lp1
csympy.core.relational
LessThan
p2
(csympy.core.mul
Mul
p3
(csympy.core.numbers
Integer
p4
(I-2
tp5
Rp6
(dp7
bcsympy.core.power
Pow
p8
(csympy.core.symbol
Symbol
p9
(S'x'
p10
tp11
Rp12
(dp13
S'_assumptions'
p14
ccopy_reg
_reconstructor
p15
(csympy.core.assumptions
StdFactKB
p16
c__builtin__
dict
p17
(dp18
S'real'
p19
NsS'irrational'
p20
NsS'antihermitian'
p21
NsS'nonpositive'
p22
NsS'unbounded'
p23
NsS'negative'
p24
NsS'hermitian'
p25
NsS'bounded'
p26
NsS'integer'
p27
NsS'imaginary'
p28
NsS'odd'
p29
NsS'even'
p30
NsS'commutative'
p31
I01
sS'positive'
p32
NsS'zero'
p33
NsS'nonnegative'
p34
NsS'rational'
p35
Nstp36
Rp37
sbg4
(I2
tp38
Rp39
(dp40
btp41
Rp42
(dp43
btp44
Rp45
(dp46
bcsympy.core.numbers
Zero
p47
(tRp48
(dp49
btp50
Rp51
(dp52
bag2
(g3
(g39
g42
tp53
Rp54
(dp55
bg48
tp56
Rp57
(dp58
bag2
(csympy.core.add
Add
p59
(g3
(g6
g12
tp60
Rp61
(dp62
bg3
(csympy.core.numbers
Rational
p63
(I-1
I50
tp64
Rp65
(dp66
bg42
tp67
Rp68
(dp69
btp70
Rp71
(dp72
bg48
tp73
Rp74
(dp75
bacsympy.core.relational
StrictGreaterThan
p76
(g3
(csympy.core.numbers
NegativeOne
p77
(tRp78
(dp79
bg12
tp80
Rp81
(dp82
bg48
tp83
Rp84
(dp85
bacsympy.core.relational
Equality
p86
(g59
(g78
g42
g81
tp87
Rp88
(dp89
bg48
tp90
Rp91
(dp92
bag86
(g59
(csympy.core.numbers
One
p93
(tRp94
(dp95
bg42
g81
tp96
Rp97
(dp98
bg48
tp99
Rp100
(dp101
bag86
(g59
(g42
g81
tp102
Rp103
(dp104
bg48
tp105
Rp106
(dp107
bag2
(g81
g48
tp108
Rp109
(dp110
bag2
(g81
g48
tp111
Rp112
(dp113
bag2
(g81
g48
tp114
Rp115
(dp116
ba(lp117
g2
(g59
(g63
(I-7
I5
tp118
Rp119
(dp120
bg12
tp121
Rp122
(dp123
bg48
tp124
Rp125
(dp126
batp127
a.