(lp0
((lp1
csympy.core.relational
LessThan
p2
(csympy.core.mul
Mul
p3
(csympy.core.numbers
Integer
p4
(I-4
tp5
Rp6
(dp7
bcsympy.core.symbol
Symbol
p8
(S'x'
p9
tp10
Rp11
(dp12
S'_assumptions'
p13
ccopy_reg
_reconstructor
p14
(csympy.core.assumptions
StdFactKB
p15
c__builtin__
dict
p16
(dp17
S'real'
p18
NsS'irrational'
p19
NsS'antihermitian'
p20
NsS'nonpositive'
p21
NsS'unbounded'
p22
NsS'negative'
p23
NsS'hermitian'
p24
NsS'bounded'
p25
NsS'integer'
p26
NsS'imaginary'
p27
NsS'odd'
p28
NsS'even'
p29
NsS'commutative'
p30
I01
sS'positive'
p31
NsS'zero'
p32
NsS'nonnegative'
p33
NsS'rational'
p34
Nstp35
Rp36
sbtp37
Rp38
(dp39
bcsympy.core.numbers
Zero
p40
(tRp41
(dp42
btp43
Rp44
(dp45
bacsympy.core.relational
StrictGreaterThan
p46
(csympy.core.add
Add
p47
(g3
(csympy.core.numbers
Rational
p48
(I32
I3
tp49
Rp50
(dp51
bcsympy.core.power
Pow
p52
(g11
g4
(I3
tp53
Rp54
(dp55
btp56
Rp57
(dp58
btp59
Rp60
(dp61
bg38
tp62
Rp63
(dp64
bg41
tp65
Rp66
(dp67
bag46
(g3
(g4
(I4
tp68
Rp69
(dp70
bg11
tp71
Rp72
(dp73
bg41
tp74
Rp75
(dp76
bag46
(g47
(g54
g3
(csympy.core.numbers
NegativeOne
p77
(tRp78
(dp79
bg11
tp80
Rp81
(dp82
btp83
Rp84
(dp85
bg41
tp86
Rp87
(dp88
bag46
(g84
g41
tp89
Rp90
(dp91
bag46
(g84
g41
tp92
Rp93
(dp94
bag46
(g84
g41
tp95
Rp96
(dp97
bag46
(g47
(g48
(I-1
I10
tp98
Rp99
(dp100
bg11
tp101
Rp102
(dp103
bg41
tp104
Rp105
(dp106
bag46
(g102
g41
tp107
Rp108
(dp109
bag46
(g102
g41
tp110
Rp111
(dp112
ba(lp113
g2
(g102
g41
tp114
Rp115
(dp116
batp117
a((lp118
g2
(g81
g41
tp119
Rp120
(dp121
bag46
(g47
(g3
(g48
(I34
I3
tp122
Rp123
(dp124
bg57
tp125
Rp126
(dp127
bg3
(g4
(I-8
tp128
Rp129
(dp130
bg11
tp131
Rp132
(dp133
btp134
Rp135
(dp136
bg41
tp137
Rp138
(dp139
bag46
(g72
g41
tp140
Rp141
(dp142
bag46
(g84
g41
tp143
Rp144
(dp145
bag46
(g84
g41
tp146
Rp147
(dp148
bag46
(g84
g41
tp149
Rp150
(dp151
bag46
(g84
g41
tp152
Rp153
(dp154
bag46
(g102
g41
tp155
Rp156
(dp157
bag46
(g102
g41
tp158
Rp159
(dp160
bag46
(g102
g41
tp161
Rp162
(dp163
ba(lp164
g2
(g102
g41
tp165
Rp166
(dp167
batp168
a((lp169
g2
(g11
g41
tp170
Rp171
(dp172
bag46
(g47
(g132
g3
(g48
(I67
I6
tp173
Rp174
(dp175
bg57
tp176
Rp177
(dp178
btp179
Rp180
(dp181
bg41
tp182
Rp183
(dp184
bag46
(g72
g41
tp185
Rp186
(dp187
bag46
(g84
g41
tp188
Rp189
(dp190
bag46
(g84
g41
tp191
Rp192
(dp193
bag46
(g84
g41
tp194
Rp195
(dp196
bag46
(g84
g41
tp197
Rp198
(dp199
bag46
(g102
g41
tp200
Rp201
(dp202
bag46
(g102
g41
tp203
Rp204
(dp205
bag46
(g102
g41
tp206
Rp207
(dp208
ba(lp209
g2
(g102
g41
tp210
Rp211
(dp212
batp213
a((lp214
g46
(g135
g41
tp215
Rp216
(dp217
bag46
(g11
g41
tp218
Rp219
(dp220
bag46
(g72
g41
tp221
Rp222
(dp223
bag46
(g84
g41
tp224
Rp225
(dp226
bag46
(g84
g41
tp227
Rp228
(dp229
bag46
(g84
g41
tp230
Rp231
(dp232
bag46
(g84
g41
tp233
Rp234
(dp235
bag46
(g102
g41
tp236
Rp237
(dp238
bag46
(g102
g41
tp239
Rp240
(dp241
bag46
(g102
g41
tp242
Rp243
(dp244
ba(lp245
g2
(g102
g41
tp246
Rp247
(dp248
batp249
a((lp250
g46
(g47
(g132
g177
tp251
Rp252
(dp253
bg41
tp254
Rp255
(dp256
bag46
(g11
g41
tp257
Rp258
(dp259
bag46
(g72
g41
tp260
Rp261
(dp262
bag46
(g84
g41
tp263
Rp264
(dp265
bag46
(g84
g41
tp266
Rp267
(dp268
bag46
(g84
g41
tp269
Rp270
(dp271
bag46
(g84
g41
tp272
Rp273
(dp274
bag46
(g102
g41
tp275
Rp276
(dp277
bag46
(g102
g41
tp278
Rp279
(dp280
bag46
(g102
g41
tp281
Rp282
(dp283
ba(lp284
g2
(g102
g41
tp285
Rp286
(dp287
batp288
a((lp289
g2
(g81
g41
tp290
Rp291
(dp292
bag2
(g11
g41
tp293
Rp294
(dp295
bag46
(g252
g41
tp296
Rp297
(dp298
bag46
(g11
g41
tp299
Rp300
(dp301
bag46
(g72
g41
tp302
Rp303
(dp304
bag46
(g84
g41
tp305
Rp306
(dp307
bag46
(g84
g41
tp308
Rp309
(dp310
bag46
(g84
g41
tp311
Rp312
(dp313
bag46
(g84
g41
tp314
Rp315
(dp316
bag46
(g102
g41
tp317
Rp318
(dp319
bag46
(g102
g41
tp320
Rp321
(dp322
bag46
(g102
g41
tp323
Rp324
(dp325
ba(lp326
g2
(g102
g41
tp327
Rp328
(dp329
batp330
a((lp331
g46
(g11
g41
tp332
Rp333
(dp334
bag46
(g11
g41
tp335
Rp336
(dp337
bag46
(g72
g41
tp338
Rp339
(dp340
bag46
(g84
g41
tp341
Rp342
(dp343
bag46
(g84
g41
tp344
Rp345
(dp346
bag46
(g84
g41
tp347
Rp348
(dp349
bag46
(g84
g41
tp350
Rp351
(dp352
bag46
(g102
g41
tp353
Rp354
(dp355
bag46
(g102
g41
tp356
Rp357
(dp358
bag46
(g102
g41
tp359
Rp360
(dp361
ba(lp362
g2
(g102
g41
tp363
Rp364
(dp365
batp366
a((lp367
g46
(g11
g41
tp368
Rp369
(dp370
bag46
(g11
g41
tp371
Rp372
(dp373
bag46
(g72
g41
tp374
Rp375
(dp376
bag46
(g84
g41
tp377
Rp378
(dp379
bag46
(g84
g41
tp380
Rp381
(dp382
bag46
(g84
g41
tp383
Rp384
(dp385
bag46
(g84
g41
tp386
Rp387
(dp388
bag46
(g102
g41
tp389
Rp390
(dp391
bag46
(g102
g41
tp392
Rp393
(dp394
bag46
(g102
g41
tp395
Rp396
(dp397
ba(lp398
g2
(g102
g41
tp399
Rp400
(dp401
batp402
a((lp403
g46
(g11
g41
tp404
Rp405
(dp406
bag46
(g11
g41
tp407
Rp408
(dp409
bag46
(g11
g41
tp410
Rp411
(dp412
bag46
(g72
g41
tp413
Rp414
(dp415
bag46
(g84
g41
tp416
Rp417
(dp418
bag46
(g84
g41
tp419
Rp420
(dp421
bag46
(g84
g41
tp422
Rp423
(dp424
bag46
(g84
g41
tp425
Rp426
(dp427
bag46
(g102
g41
tp428
Rp429
(dp430
bag46
(g102
g41
tp431
Rp432
(dp433
bag46
(g102
g41
tp434
Rp435
(dp436
ba(lp437
g2
(g102
g41
tp438
Rp439
(dp440
batp441
a((lp442
g46
(g47
(g132
g177
tp443
Rp444
(dp445
bg41
tp446
Rp447
(dp448
bag46
(g11
g41
tp449
Rp450
(dp451
bag46
(g11
g41
tp452
Rp453
(dp454
bag46
(g72
g41
tp455
Rp456
(dp457
bag46
(g84
g41
tp458
Rp459
(dp460
bag46
(g84
g41
tp461
Rp462
(dp463
bag46
(g84
g41
tp464
Rp465
(dp466
bag46
(g84
g41
tp467
Rp468
(dp469
bag46
(g102
g41
tp470
Rp471
(dp472
bag46
(g102
g41
tp473
Rp474
(dp475
bag46
(g102
g41
tp476
Rp477
(dp478
ba(lp479
g2
(g102
g41
tp480
Rp481
(dp482
batp483
a.