(lp0
((lp1
csympy.core.relational
StrictGreaterThan
p2
(csympy.core.add
Add
p3
(csympy.core.numbers
Rational
p4
(I295
I36
tp5
Rp6
(dp7
bcsympy.core.mul
Mul
p8
(g4
(I-107
I18
tp9
Rp10
(dp11
bcsympy.core.symbol
Symbol
p12
(S'x'
p13
tp14
Rp15
(dp16
S'_assumptions'
p17
ccopy_reg
_reconstructor
p18
(csympy.core.assumptions
StdFactKB
p19
c__builtin__
dict
p20
(dp21
S'real'
p22
NsS'irrational'
p23
NsS'antihermitian'
p24
NsS'nonpositive'
p25
NsS'unbounded'
p26
NsS'negative'
p27
NsS'hermitian'
p28
NsS'bounded'
p29
NsS'integer'
p30
NsS'imaginary'
p31
NsS'odd'
p32
NsS'even'
p33
NsS'commutative'
p34
I01
sS'positive'
p35
NsS'zero'
p36
NsS'nonnegative'
p37
NsS'rational'
p38
Nstp39
Rp40
sbtp41
Rp42
(dp43
btp44
Rp45
(dp46
bcsympy.core.numbers
Zero
p47
(tRp48
(dp49
btp50
Rp51
(dp52
bag2
(g3
(g4
(I536045
I65536
tp53
Rp54
(dp55
bg42
tp56
Rp57
(dp58
bg48
tp59
Rp60
(dp61
bag2
(g45
g48
tp62
Rp63
(dp64
bacsympy.core.relational
Equality
p65
(g3
(csympy.core.power
Pow
p66
(g15
csympy.core.numbers
Integer
p67
(I3
tp68
Rp69
(dp70
btp71
Rp72
(dp73
bg8
(g67
(I-2
tp74
Rp75
(dp76
bg15
tp77
Rp78
(dp79
btp80
Rp81
(dp82
bg48
tp83
Rp84
(dp85
bag65
(g3
(g78
g66
(g15
g67
(I2
tp86
Rp87
(dp88
btp89
Rp90
(dp91
btp92
Rp93
(dp94
bg48
tp95
Rp96
(dp97
bacsympy.core.relational
LessThan
p98
(g3
(g4
(I-33
I32
tp99
Rp100
(dp101
bg15
tp102
Rp103
(dp104
bg48
tp105
Rp106
(dp107
bag98
(g3
(g75
g15
tp108
Rp109
(dp110
bg48
tp111
Rp112
(dp113
bag98
(g3
(g4
(I3
I2
tp114
Rp115
(dp116
bg8
(csympy.core.numbers
NegativeOne
p117
(tRp118
(dp119
bg15
tp120
Rp121
(dp122
btp123
Rp124
(dp125
bg48
tp126
Rp127
(dp128
bag98
(g3
(csympy.core.numbers
One
p129
(tRp130
(dp131
bg121
tp132
Rp133
(dp134
bg48
tp135
Rp136
(dp137
bag98
(g121
g48
tp138
Rp139
(dp140
ba(lp141
g2
(g121
g48
tp142
Rp143
(dp144
batp145
a.