(lp0
((lp1
csympy.core.relational
StrictGreaterThan
p2
(csympy.core.add
Add
p3
(csympy.core.mul
Mul
p4
(csympy.core.numbers
Float
p5
((I1
S'1L'
p6
I2
I1
tp7
tp8
Rp9
(dp10
S'_prec'
p11
I53
sbcsympy.core.power
Pow
p12
(csympy.core.symbol
Symbol
p13
(S'x'
p14
tp15
Rp16
(dp17
S'_assumptions'
p18
ccopy_reg
_reconstructor
p19
(csympy.core.assumptions
StdFactKB
p20
c__builtin__
dict
p21
(dp22
S'real'
p23
NsS'irrational'
p24
NsS'antihermitian'
p25
NsS'nonpositive'
p26
NsS'negative'
p27
NsS'hermitian'
p28
NsS'bounded'
p29
NsS'integer'
p30
NsS'imaginary'
p31
NsS'odd'
p32
NsS'even'
p33
NsS'commutative'
p34
I01
sS'positive'
p35
NsS'zero'
p36
NsS'nonnegative'
p37
NsS'rational'
p38
Nstp39
Rp40
sbcsympy.core.numbers
Integer
p41
(I3
tp42
Rp43
(dp44
btp45
Rp46
(dp47
btp48
Rp49
(dp50
bg4
(g5
((I0
S'1L'
p51
I0
I1
tp52
tp53
Rp54
(dp55
g11
I53
sbg12
(g16
g41
(I2
tp56
Rp57
(dp58
btp59
Rp60
(dp61
btp62
Rp63
(dp64
bg4
(g5
((I1
S'1L'
p65
I1
I1
tp66
tp67
Rp68
(dp69
g11
I53
sbg12
(g16
g41
(I4
tp70
Rp71
(dp72
btp73
Rp74
(dp75
btp76
Rp77
(dp78
btp79
Rp80
(dp81
bcsympy.core.numbers
Zero
p82
(tRp83
(dp84
btp85
Rp86
(dp87
bacsympy.logic.boolalg
BooleanTrue
p88
(tRp89
(dp90
bacsympy.core.relational
GreaterThan
p91
(g16
g83
tp92
Rp93
(dp94
bag91
(g16
g83
tp95
Rp96
(dp97
bacsympy.core.relational
Equality
p98
(g4
(csympy.core.numbers
NegativeOne
p99
(tRp100
(dp101
bg60
tp102
Rp103
(dp104
bg83
tp105
Rp106
(dp107
bacsympy.core.relational
LessThan
p108
(g3
(g4
(g5
((I0
S'1L'
p109
I-1
I1
tp110
tp111
Rp112
(dp113
g11
I53
sbg46
tp114
Rp115
(dp116
bg103
tp117
Rp118
(dp119
bg83
tp120
Rp121
(dp122
bag108
(g118
g83
tp123
Rp124
(dp125
bag108
(g4
(g41
(I-2
tp126
Rp127
(dp128
bg16
tp129
Rp130
(dp131
bg83
tp132
Rp133
(dp134
bag89
ag98
(g16
g83
tp135
Rp136
(dp137
bag91
(g16
g83
tp138
Rp139
(dp140
bag2
(g16
g83
tp141
Rp142
(dp143
bag2
(g16
g83
tp144
Rp145
(dp146
ba(lp147
g2
(g80
g83
tp148
Rp149
(dp150
batp151
a.