(lp0
((lp1
csympy.core.relational
StrictGreaterThan
p2
(csympy.core.add
Add
p3
(csympy.core.mul
Mul
p4
(csympy.core.numbers
Float
p5
((I1
S'1L'
p6
I2
I1
tp7
tp8
Rp9
(dp10
S'_prec'
p11
I53
sbcsympy.core.power
Pow
p12
(csympy.core.symbol
Symbol
p13
(S'x'
p14
tp15
Rp16
(dp17
S'_assumptions'
p18
ccopy_reg
_reconstructor
p19
(csympy.core.assumptions
StdFactKB
p20
c__builtin__
dict
p21
(dp22
S'real'
p23
NsS'irrational'
p24
NsS'antihermitian'
p25
NsS'nonpositive'
p26
NsS'negative'
p27
NsS'hermitian'
p28
NsS'bounded'
p29
NsS'integer'
p30
NsS'imaginary'
p31
NsS'odd'
p32
NsS'even'
p33
NsS'commutative'
p34
I01
sS'positive'
p35
NsS'zero'
p36
NsS'nonnegative'
p37
NsS'rational'
p38
Nstp39
Rp40
sbcsympy.core.numbers
Integer
p41
(I3
tp42
Rp43
(dp44
btp45
Rp46
(dp47
btp48
Rp49
(dp50
bg4
(g5
((I1
S'1L'
p51
I1
I1
tp52
tp53
Rp54
(dp55
g11
I53
sbg12
(g16
g41
(I4
tp56
Rp57
(dp58
btp59
Rp60
(dp61
btp62
Rp63
(dp64
bg4
(csympy.core.numbers
NegativeOne
p65
(tRp66
(dp67
bg12
(g16
g41
(I2
tp68
Rp69
(dp70
btp71
Rp72
(dp73
btp74
Rp75
(dp76
btp77
Rp78
(dp79
bcsympy.core.numbers
Zero
p80
(tRp81
(dp82
btp83
Rp84
(dp85
bacsympy.logic.boolalg
BooleanTrue
p86
(tRp87
(dp88
bacsympy.core.relational
GreaterThan
p89
(g16
g81
tp90
Rp91
(dp92
bag89
(g16
g81
tp93
Rp94
(dp95
bacsympy.core.relational
Equality
p96
(g75
g81
tp97
Rp98
(dp99
bacsympy.core.relational
LessThan
p100
(g3
(g4
(g5
((I0
S'1L'
p101
I-1
I1
tp102
tp103
Rp104
(dp105
g11
I53
sbg46
tp106
Rp107
(dp108
bg75
tp109
Rp110
(dp111
bg81
tp112
Rp113
(dp114
bag100
(g110
g81
tp115
Rp116
(dp117
bag100
(g4
(g41
(I-2
tp118
Rp119
(dp120
bg16
tp121
Rp122
(dp123
bg81
tp124
Rp125
(dp126
bag87
ag89
(g16
g81
tp127
Rp128
(dp129
bag89
(g16
g81
tp130
Rp131
(dp132
bag2
(g16
g81
tp133
Rp134
(dp135
bag2
(g16
g81
tp136
Rp137
(dp138
ba(lp139
g87
ag87
ag2
(g75
g81
tp140
Rp141
(dp142
batp143
a.