(lp0
((lp1
csympy.logic.boolalg
BooleanTrue
p2
(tRp3
(dp4
bacsympy.core.relational
StrictGreaterThan
p5
(csympy.core.add
Add
p6
(csympy.core.mul
Mul
p7
(csympy.core.numbers
Float
p8
((I1
S'1L'
p9
I2
I1
tp10
tp11
Rp12
(dp13
S'_prec'
p14
I53
sbcsympy.core.power
Pow
p15
(csympy.core.symbol
Symbol
p16
(S'x'
p17
tp18
Rp19
(dp20
S'_assumptions'
p21
ccopy_reg
_reconstructor
p22
(csympy.core.assumptions
StdFactKB
p23
c__builtin__
dict
p24
(dp25
S'real'
p26
NsS'irrational'
p27
NsS'antihermitian'
p28
NsS'nonpositive'
p29
NsS'negative'
p30
NsS'hermitian'
p31
NsS'bounded'
p32
NsS'integer'
p33
NsS'imaginary'
p34
NsS'odd'
p35
NsS'even'
p36
NsS'commutative'
p37
I01
sS'positive'
p38
NsS'zero'
p39
NsS'nonnegative'
p40
NsS'rational'
p41
Nstp42
Rp43
sbcsympy.core.numbers
Integer
p44
(I3
tp45
Rp46
(dp47
btp48
Rp49
(dp50
btp51
Rp52
(dp53
bg7
(g8
((I1
S'1L'
p54
I1
I1
tp55
tp56
Rp57
(dp58
g14
I53
sbg15
(g19
g44
(I4
tp59
Rp60
(dp61
btp62
Rp63
(dp64
btp65
Rp66
(dp67
bg7
(csympy.core.numbers
NegativeOne
p68
(tRp69
(dp70
bg15
(g19
g44
(I2
tp71
Rp72
(dp73
btp74
Rp75
(dp76
btp77
Rp78
(dp79
btp80
Rp81
(dp82
bcsympy.core.numbers
Zero
p83
(tRp84
(dp85
btp86
Rp87
(dp88
bag3
acsympy.core.relational
GreaterThan
p89
(g19
g84
tp90
Rp91
(dp92
bag89
(g19
g84
tp93
Rp94
(dp95
bacsympy.core.relational
Equality
p96
(g78
g84
tp97
Rp98
(dp99
bacsympy.core.relational
LessThan
p100
(g6
(g7
(g8
((I0
S'1L'
p101
I-1
I1
tp102
tp103
Rp104
(dp105
g14
I53
sbg49
tp106
Rp107
(dp108
bg78
tp109
Rp110
(dp111
bg84
tp112
Rp113
(dp114
bag100
(g110
g84
tp115
Rp116
(dp117
bag100
(g7
(g44
(I-2
tp118
Rp119
(dp120
bg19
tp121
Rp122
(dp123
bg84
tp124
Rp125
(dp126
bag3
ag89
(g19
g84
tp127
Rp128
(dp129
bag89
(g19
g84
tp130
Rp131
(dp132
bag5
(g19
g84
tp133
Rp134
(dp135
bag5
(g19
g84
tp136
Rp137
(dp138
ba(lp139
g3
ag5
(g78
g84
tp140
Rp141
(dp142
batp143
a.